---
triple:          'arm64-apple-darwin'
binary-path:     '/Users/mattia/Desktop/workspaces/python/higher-order-motifs/rust-core/target/debug/deps/librust_core.dylib'
relocations:
  - { offset: 0x45, size: 0x8, addend: 0x0, symName: __ZN9rust_core8triangle7forward7forward7forward9_PYO3_DEF17heb9ab8ae9c22d0a3E, symObjAddr: 0x28, symBinAddr: 0xD03A8, symSize: 0x0 }
  - { offset: 0x15D4, size: 0x8, addend: 0x0, symName: '__ZN102_$LT$core..iter..adapters..zip..Zip$LT$A$C$B$GT$$u20$as$u20$core..iter..traits..iterator..Iterator$GT$4next17heca23b6205a448f6E', symObjAddr: 0x0, symBinAddr: 0x948, symSize: 0x24 }
  - { offset: 0x1E09, size: 0x8, addend: 0x0, symName: '__ZN102_$LT$core..iter..adapters..zip..Zip$LT$A$C$B$GT$$u20$as$u20$core..iter..traits..iterator..Iterator$GT$4next17heca23b6205a448f6E', symObjAddr: 0x0, symBinAddr: 0x948, symSize: 0x24 }
  - { offset: 0x1E4D, size: 0x8, addend: 0x0, symName: '__ZN111_$LT$core..iter..adapters..zip..Zip$LT$A$C$B$GT$$u20$as$u20$core..iter..adapters..zip..ZipImpl$LT$A$C$B$GT$$GT$3new17h7a18ed596ef891d1E', symObjAddr: 0x24, symBinAddr: 0x96C, symSize: 0x3C }
  - { offset: 0x1E99, size: 0x8, addend: 0x0, symName: '__ZN111_$LT$core..iter..adapters..zip..Zip$LT$A$C$B$GT$$u20$as$u20$core..iter..adapters..zip..ZipImpl$LT$A$C$B$GT$$GT$4next17h0f147e75894d8b12E', symObjAddr: 0x60, symBinAddr: 0x9A8, symSize: 0xE0 }
  - { offset: 0x20C6, size: 0x8, addend: 0x0, symName: '__ZN63_$LT$I$u20$as$u20$core..iter..traits..collect..IntoIterator$GT$9into_iter17h760a79b7ecb693d8E', symObjAddr: 0x140, symBinAddr: 0xA88, symSize: 0x30 }
  - { offset: 0x20FE, size: 0x8, addend: 0x0, symName: '__ZN63_$LT$I$u20$as$u20$core..iter..traits..collect..IntoIterator$GT$9into_iter17hcf4e2f6c750dcaf8E', symObjAddr: 0x170, symBinAddr: 0xAB8, symSize: 0x30 }
  - { offset: 0x357D, size: 0x8, addend: 0x0, symName: '__ZN111_$LT$alloc..vec..Vec$LT$T$GT$$u20$as$u20$alloc..vec..spec_from_iter_nested..SpecFromIterNested$LT$T$C$I$GT$$GT$9from_iter17h0a1b909612460b18E', symObjAddr: 0x0, symBinAddr: 0xAE8, symSize: 0x12C }
  - { offset: 0x4EF4, size: 0x8, addend: 0x0, symName: '__ZN4core5slice29_$LT$impl$u20$$u5b$T$u5d$$GT$4iter17h675773da953c02c7E', symObjAddr: 0xF18, symBinAddr: 0x1A00, symSize: 0x28 }
  - { offset: 0x6C8A, size: 0x8, addend: 0x0, symName: '__ZN13pyo3_stub_gen9stub_type11collections87_$LT$impl$u20$pyo3_stub_gen..stub_type..PyStubType$u20$for$u20$$LP$T1$C$T2$C$T3$RP$$GT$11type_output17ha5dba580a3bd2054E', symObjAddr: 0x484, symBinAddr: 0xF6C, symSize: 0x618 }
  - { offset: 0x6DA8, size: 0x8, addend: 0x0, symName: '__ZN13pyo3_stub_gen9stub_type11collections91_$LT$impl$u20$pyo3_stub_gen..stub_type..PyStubType$u20$for$u20$alloc..vec..Vec$LT$T$GT$$GT$10type_input17h6ef34acb5aa0c8b1E', symObjAddr: 0xA9C, symBinAddr: 0x1584, symSize: 0x220 }
  - { offset: 0x6E78, size: 0x8, addend: 0x0, symName: '__ZN13pyo3_stub_gen9stub_type11collections91_$LT$impl$u20$pyo3_stub_gen..stub_type..PyStubType$u20$for$u20$alloc..vec..Vec$LT$T$GT$$GT$10type_input17h7122c1a4d9e146b9E', symObjAddr: 0xCBC, symBinAddr: 0x17A4, symSize: 0x220 }
  - { offset: 0x6F48, size: 0x8, addend: 0x0, symName: '__ZN13pyo3_stub_gen9stub_type11collections91_$LT$impl$u20$pyo3_stub_gen..stub_type..PyStubType$u20$for$u20$alloc..vec..Vec$LT$T$GT$$GT$11type_output17h6b6d449a212f2358E', symObjAddr: 0xEDC, symBinAddr: 0x19C4, symSize: 0x14 }
  - { offset: 0x6F6F, size: 0x8, addend: 0x0, symName: '__ZN13pyo3_stub_gen9stub_type11collections91_$LT$impl$u20$pyo3_stub_gen..stub_type..PyStubType$u20$for$u20$alloc..vec..Vec$LT$T$GT$$GT$11type_output17ha25a44f3cb1589a4E', symObjAddr: 0xEF0, symBinAddr: 0x19D8, symSize: 0x14 }
  - { offset: 0x6F96, size: 0x8, addend: 0x0, symName: '__ZN13pyo3_stub_gen9stub_type11collections91_$LT$impl$u20$pyo3_stub_gen..stub_type..PyStubType$u20$for$u20$alloc..vec..Vec$LT$T$GT$$GT$11type_output17hae4e1b0b6f7ddd16E', symObjAddr: 0xF04, symBinAddr: 0x19EC, symSize: 0x14 }
  - { offset: 0x7BB6, size: 0x8, addend: 0x0, symName: '__ZN111_$LT$alloc..vec..Vec$LT$T$GT$$u20$as$u20$alloc..vec..spec_from_iter_nested..SpecFromIterNested$LT$T$C$I$GT$$GT$9from_iter17h0a1b909612460b18E', symObjAddr: 0x0, symBinAddr: 0xAE8, symSize: 0x12C }
  - { offset: 0x7C77, size: 0x8, addend: 0x0, symName: '__ZN111_$LT$alloc..vec..Vec$LT$T$GT$$u20$as$u20$alloc..vec..spec_from_iter_nested..SpecFromIterNested$LT$T$C$I$GT$$GT$9from_iter17h9620d2d96c3d9f14E', symObjAddr: 0x12C, symBinAddr: 0xC14, symSize: 0x12C }
  - { offset: 0x7D3E, size: 0x8, addend: 0x0, symName: '__ZN111_$LT$alloc..vec..Vec$LT$T$GT$$u20$as$u20$alloc..vec..spec_from_iter_nested..SpecFromIterNested$LT$T$C$I$GT$$GT$9from_iter17hdf162260345a6c93E', symObjAddr: 0x258, symBinAddr: 0xD40, symSize: 0x22C }
  - { offset: 0x8799, size: 0x8, addend: 0x0, symName: '__ZN5alloc3vec16Vec$LT$T$C$A$GT$14extend_trusted28_$u7b$$u7b$closure$u7d$$u7d$17hecdeb76f85157dbdE', symObjAddr: 0x24F0, symBinAddr: 0x2FD8, symSize: 0x30 }
  - { offset: 0x8841, size: 0x8, addend: 0x0, symName: '__ZN5alloc3vec16Vec$LT$T$C$A$GT$14extend_trusted28_$u7b$$u7b$closure$u7d$$u7d$17hef05218d981ee2efE', symObjAddr: 0x2520, symBinAddr: 0x3008, symSize: 0x30 }
  - { offset: 0x88EB, size: 0x8, addend: 0x0, symName: __ZN5alloc3vec9from_elem17h5bb0220bea3b4395E, symObjAddr: 0x2C28, symBinAddr: 0x3710, symSize: 0x20 }
  - { offset: 0x8932, size: 0x8, addend: 0x0, symName: __ZN5alloc3vec9from_elem17hdd5f1f4453a3e554E, symObjAddr: 0x2C48, symBinAddr: 0x3730, symSize: 0x24 }
  - { offset: 0x8978, size: 0x8, addend: 0x0, symName: __ZN5alloc3vec9from_elem17hf483770d9c3ba413E, symObjAddr: 0x2C6C, symBinAddr: 0x3754, symSize: 0x20 }
  - { offset: 0x89BF, size: 0x8, addend: 0x0, symName: __ZN5alloc3vec9from_elem17hf6b5d3ebd88a6b76E, symObjAddr: 0x2C8C, symBinAddr: 0x3774, symSize: 0x24 }
  - { offset: 0x8A05, size: 0x8, addend: 0x0, symName: __ZN5alloc3vec9from_elem17hf897544538c52cbbE, symObjAddr: 0x2CB0, symBinAddr: 0x3798, symSize: 0x24 }
  - { offset: 0x8A55, size: 0x8, addend: 0x0, symName: '__ZN62_$LT$T$u20$as$u20$alloc..vec..spec_from_elem..SpecFromElem$GT$9from_elem17h540983f34b3c8ebcE', symObjAddr: 0x2CD4, symBinAddr: 0x37BC, symSize: 0xF8 }
  - { offset: 0x8B6F, size: 0x8, addend: 0x0, symName: '__ZN72_$LT$alloc..vec..Vec$LT$T$C$A$GT$$u20$as$u20$core..ops..deref..Deref$GT$5deref17h95c1f160005697ebE', symObjAddr: 0x2E64, symBinAddr: 0x394C, symSize: 0x20 }
  - { offset: 0x8D82, size: 0x8, addend: 0x0, symName: '__ZN67_$LT$alloc..vec..Vec$LT$T$C$A$GT$$u20$as$u20$core..clone..Clone$GT$5clone17h660599bfcc8c172dE', symObjAddr: 0x2DCC, symBinAddr: 0x38B4, symSize: 0x4C }
  - { offset: 0x8EEA, size: 0x8, addend: 0x0, symName: '__ZN67_$LT$alloc..vec..Vec$LT$T$C$A$GT$$u20$as$u20$core..clone..Clone$GT$5clone17h78bde31967d1e9fdE', symObjAddr: 0x2E18, symBinAddr: 0x3900, symSize: 0x4C }
  - { offset: 0x9058, size: 0x8, addend: 0x0, symName: '__ZN75_$LT$alloc..vec..Vec$LT$T$C$A$GT$$u20$as$u20$core..ops..deref..DerefMut$GT$9deref_mut17hbbf2dfed1d78bb6fE', symObjAddr: 0x2E84, symBinAddr: 0x396C, symSize: 0x20 }
  - { offset: 0x920B, size: 0x8, addend: 0x0, symName: '__ZN81_$LT$alloc..vec..Vec$LT$T$C$A$GT$$u20$as$u20$core..ops..index..Index$LT$I$GT$$GT$5index17h043c53d01ce1b2ebE', symObjAddr: 0x2EF4, symBinAddr: 0x39DC, symSize: 0x44 }
  - { offset: 0x9324, size: 0x8, addend: 0x0, symName: '__ZN81_$LT$alloc..vec..Vec$LT$T$C$A$GT$$u20$as$u20$core..ops..index..Index$LT$I$GT$$GT$5index17h1f170f0e2649f5d8E', symObjAddr: 0x2F38, symBinAddr: 0x3A20, symSize: 0x44 }
  - { offset: 0x943D, size: 0x8, addend: 0x0, symName: '__ZN81_$LT$alloc..vec..Vec$LT$T$C$A$GT$$u20$as$u20$core..ops..index..Index$LT$I$GT$$GT$5index17h5cfdb96826c888cfE', symObjAddr: 0x2F7C, symBinAddr: 0x3A64, symSize: 0xD0 }
  - { offset: 0x95D8, size: 0x8, addend: 0x0, symName: '__ZN81_$LT$alloc..vec..Vec$LT$T$C$A$GT$$u20$as$u20$core..ops..index..Index$LT$I$GT$$GT$5index17h78fb0219de6c03a0E', symObjAddr: 0x304C, symBinAddr: 0x3B34, symSize: 0x44 }
  - { offset: 0x96F1, size: 0x8, addend: 0x0, symName: '__ZN81_$LT$alloc..vec..Vec$LT$T$C$A$GT$$u20$as$u20$core..ops..index..Index$LT$I$GT$$GT$5index17h9746b15aa0fde482E', symObjAddr: 0x3090, symBinAddr: 0x3B78, symSize: 0x44 }
  - { offset: 0x980A, size: 0x8, addend: 0x0, symName: '__ZN81_$LT$alloc..vec..Vec$LT$T$C$A$GT$$u20$as$u20$core..ops..index..Index$LT$I$GT$$GT$5index17hf34c218a1710cbe5E', symObjAddr: 0x30D4, symBinAddr: 0x3BBC, symSize: 0x44 }
  - { offset: 0x9929, size: 0x8, addend: 0x0, symName: '__ZN84_$LT$alloc..vec..Vec$LT$T$C$A$GT$$u20$as$u20$core..ops..index..IndexMut$LT$I$GT$$GT$9index_mut17h4bf3fa187d043679E', symObjAddr: 0x3118, symBinAddr: 0x3C00, symSize: 0x44 }
  - { offset: 0x9A42, size: 0x8, addend: 0x0, symName: '__ZN84_$LT$alloc..vec..Vec$LT$T$C$A$GT$$u20$as$u20$core..ops..index..IndexMut$LT$I$GT$$GT$9index_mut17h58ae7b4003cbf4afE', symObjAddr: 0x315C, symBinAddr: 0x3C44, symSize: 0x44 }
  - { offset: 0x9B5B, size: 0x8, addend: 0x0, symName: '__ZN84_$LT$alloc..vec..Vec$LT$T$C$A$GT$$u20$as$u20$core..ops..index..IndexMut$LT$I$GT$$GT$9index_mut17h619aebaffbe6c2f6E', symObjAddr: 0x31A0, symBinAddr: 0x3C88, symSize: 0x44 }
  - { offset: 0x9C74, size: 0x8, addend: 0x0, symName: '__ZN84_$LT$alloc..vec..Vec$LT$T$C$A$GT$$u20$as$u20$core..ops..index..IndexMut$LT$I$GT$$GT$9index_mut17h9f6a0fe3b143f646E', symObjAddr: 0x31E4, symBinAddr: 0x3CCC, symSize: 0x44 }
  - { offset: 0x9D8D, size: 0x8, addend: 0x0, symName: '__ZN84_$LT$alloc..vec..Vec$LT$T$C$A$GT$$u20$as$u20$core..ops..index..IndexMut$LT$I$GT$$GT$9index_mut17hcf91877f9dde8abbE', symObjAddr: 0x3228, symBinAddr: 0x3D10, symSize: 0x44 }
  - { offset: 0x9EAC, size: 0x8, addend: 0x0, symName: '__ZN90_$LT$alloc..vec..Vec$LT$T$C$A$GT$$u20$as$u20$core..iter..traits..collect..IntoIterator$GT$9into_iter17h2fd79c0fa10e2531E', symObjAddr: 0x35F8, symBinAddr: 0x40E0, symSize: 0xA8 }
  - { offset: 0xA0A3, size: 0x8, addend: 0x0, symName: '__ZN90_$LT$alloc..vec..Vec$LT$T$C$A$GT$$u20$as$u20$core..iter..traits..collect..IntoIterator$GT$9into_iter17h7478020f716b4661E', symObjAddr: 0x36A0, symBinAddr: 0x4188, symSize: 0xA8 }
  - { offset: 0xA29A, size: 0x8, addend: 0x0, symName: '__ZN90_$LT$alloc..vec..Vec$LT$T$C$A$GT$$u20$as$u20$core..iter..traits..collect..IntoIterator$GT$9into_iter17hdbbef6aa5742fab4E', symObjAddr: 0x3748, symBinAddr: 0x4230, symSize: 0xB0 }
  - { offset: 0xA497, size: 0x8, addend: 0x0, symName: '__ZN94_$LT$$RF$alloc..vec..Vec$LT$T$C$A$GT$$u20$as$u20$core..iter..traits..collect..IntoIterator$GT$9into_iter17h83b4efb95081ff23E', symObjAddr: 0x37F8, symBinAddr: 0x42E0, symSize: 0x60 }
  - { offset: 0xA682, size: 0x8, addend: 0x0, symName: '__ZN95_$LT$alloc..vec..Vec$LT$T$GT$$u20$as$u20$core..iter..traits..collect..FromIterator$LT$T$GT$$GT$9from_iter17h76408ec6c6095a11E', symObjAddr: 0x3858, symBinAddr: 0x4340, symSize: 0x34 }
  - { offset: 0xA6C3, size: 0x8, addend: 0x0, symName: '__ZN95_$LT$alloc..vec..Vec$LT$T$GT$$u20$as$u20$core..iter..traits..collect..FromIterator$LT$T$GT$$GT$9from_iter17ha9f54e064789b282E', symObjAddr: 0x388C, symBinAddr: 0x4374, symSize: 0x38 }
  - { offset: 0xA703, size: 0x8, addend: 0x0, symName: '__ZN95_$LT$alloc..vec..Vec$LT$T$GT$$u20$as$u20$core..iter..traits..collect..FromIterator$LT$T$GT$$GT$9from_iter17hd9f2e74959fb77c9E', symObjAddr: 0x38C4, symBinAddr: 0x43AC, symSize: 0x38 }
  - { offset: 0xA74E, size: 0x8, addend: 0x0, symName: '__ZN97_$LT$alloc..vec..Vec$LT$T$C$A$GT$$u20$as$u20$alloc..vec..spec_extend..SpecExtend$LT$T$C$I$GT$$GT$11spec_extend17h6d8d594d2af6b14bE', symObjAddr: 0x38FC, symBinAddr: 0x43E4, symSize: 0x34 }
  - { offset: 0xA79F, size: 0x8, addend: 0x0, symName: '__ZN97_$LT$alloc..vec..Vec$LT$T$C$A$GT$$u20$as$u20$alloc..vec..spec_extend..SpecExtend$LT$T$C$I$GT$$GT$11spec_extend17hdf535d3cbf197cf7E', symObjAddr: 0x3954, symBinAddr: 0x443C, symSize: 0x34 }
  - { offset: 0xA7F6, size: 0x8, addend: 0x0, symName: '__ZN97_$LT$alloc..vec..Vec$LT$T$C$A$GT$$u20$as$u20$alloc..vec..spec_extend..SpecExtend$LT$T$C$I$GT$$GT$11spec_extend17hbed27cf18b956b12E', symObjAddr: 0x3930, symBinAddr: 0x4418, symSize: 0x24 }
  - { offset: 0xA854, size: 0x8, addend: 0x0, symName: '__ZN98_$LT$alloc..vec..Vec$LT$T$GT$$u20$as$u20$alloc..vec..spec_from_iter..SpecFromIter$LT$T$C$I$GT$$GT$9from_iter17h0c7cc4321314b511E', symObjAddr: 0x3988, symBinAddr: 0x4470, symSize: 0x2C }
  - { offset: 0xA892, size: 0x8, addend: 0x0, symName: '__ZN98_$LT$alloc..vec..Vec$LT$T$GT$$u20$as$u20$alloc..vec..spec_from_iter..SpecFromIter$LT$T$C$I$GT$$GT$9from_iter17h84b1f510ac26bb20E', symObjAddr: 0x39B4, symBinAddr: 0x449C, symSize: 0x2C }
  - { offset: 0xA8D0, size: 0x8, addend: 0x0, symName: '__ZN98_$LT$alloc..vec..Vec$LT$T$GT$$u20$as$u20$alloc..vec..spec_from_iter..SpecFromIter$LT$T$C$I$GT$$GT$9from_iter17hb8c2eceb2afeeb6aE', symObjAddr: 0x39E0, symBinAddr: 0x44C8, symSize: 0x14 }
  - { offset: 0xAB1B, size: 0x8, addend: 0x0, symName: '__ZN87_$LT$T$u20$as$u20$alloc..slice..$LT$impl$u20$$u5b$T$u5d$$GT$..to_vec_in..ConvertVec$GT$6to_vec17h0ca4a5c7f0d5832bE', symObjAddr: 0x326C, symBinAddr: 0x3D54, symSize: 0x38C }
  - { offset: 0xB376, size: 0x8, addend: 0x0, symName: __ZN4pyo310conversion12IntoPyObject28owned_sequence_into_pyobject17h5b4d088bb050b513E, symObjAddr: 0xF40, symBinAddr: 0x1A28, symSize: 0xDC }
  - { offset: 0xB42C, size: 0x8, addend: 0x0, symName: __ZN4pyo310conversion15IntoPyObjectExt17into_bound_py_any17h2661ac05bdcb5b3eE, symObjAddr: 0x101C, symBinAddr: 0x1B04, symSize: 0xE0 }
  - { offset: 0xB4B9, size: 0x8, addend: 0x0, symName: __ZN4pyo310conversion15IntoPyObjectExt17into_bound_py_any17h2d371a78afdfaeadE, symObjAddr: 0x10FC, symBinAddr: 0x1BE4, symSize: 0xE0 }
  - { offset: 0xB546, size: 0x8, addend: 0x0, symName: __ZN4pyo310conversion15IntoPyObjectExt17into_bound_py_any17h367f1c8e53f11248E, symObjAddr: 0x11DC, symBinAddr: 0x1CC4, symSize: 0xE0 }
  - { offset: 0xB5D3, size: 0x8, addend: 0x0, symName: __ZN4pyo310conversion15IntoPyObjectExt17into_bound_py_any17he7968c6699071283E, symObjAddr: 0x12BC, symBinAddr: 0x1DA4, symSize: 0xE4 }
  - { offset: 0xB6AE, size: 0x8, addend: 0x0, symName: '__ZN4pyo311conversions3std3vec85_$LT$impl$u20$pyo3..conversion..FromPyObject$u20$for$u20$alloc..vec..Vec$LT$T$GT$$GT$7extract17h825e080c90d89279E', symObjAddr: 0x13A0, symBinAddr: 0x1E88, symSize: 0xE4 }
  - { offset: 0xB6FE, size: 0x8, addend: 0x0, symName: '__ZN4pyo311conversions3std3vec85_$LT$impl$u20$pyo3..conversion..IntoPyObject$u20$for$u20$alloc..vec..Vec$LT$T$GT$$GT$13into_pyobject17h0ac46447e2cb5a59E', symObjAddr: 0x1484, symBinAddr: 0x1F6C, symSize: 0x34 }
  - { offset: 0xB74D, size: 0x8, addend: 0x0, symName: '__ZN4pyo311conversions3std3vec85_$LT$impl$u20$pyo3..conversion..IntoPyObject$u20$for$u20$alloc..vec..Vec$LT$T$GT$$GT$13into_pyobject17h38b065c27455a2f7E', symObjAddr: 0x14B8, symBinAddr: 0x1FA0, symSize: 0x34 }
  - { offset: 0xB79C, size: 0x8, addend: 0x0, symName: '__ZN4pyo311conversions3std3vec85_$LT$impl$u20$pyo3..conversion..IntoPyObject$u20$for$u20$alloc..vec..Vec$LT$T$GT$$GT$13into_pyobject17h4d0d520fbccbcdc4E', symObjAddr: 0x14EC, symBinAddr: 0x1FD4, symSize: 0x34 }
  - { offset: 0xB7FE, size: 0x8, addend: 0x0, symName: '__ZN4pyo35types5tuple81_$LT$impl$u20$pyo3..conversion..IntoPyObject$u20$for$u20$$LP$T0$C$T1$C$T2$RP$$GT$13into_pyobject17hc75a0f1d56e5ed7eE', symObjAddr: 0x1520, symBinAddr: 0x2008, symSize: 0x378 }
  - { offset: 0xBBA4, size: 0x8, addend: 0x0, symName: '__ZN80_$LT$T$u20$as$u20$pyo3..impl_..extract_argument..PyFunctionArgument$LT$_$GT$$GT$7extract17h0e660ecdeae76714E', symObjAddr: 0x2EA4, symBinAddr: 0x398C, symSize: 0x28 }
  - { offset: 0xBBE3, size: 0x8, addend: 0x0, symName: '__ZN80_$LT$T$u20$as$u20$pyo3..impl_..extract_argument..PyFunctionArgument$LT$_$GT$$GT$7extract17hee3c38adbc774358E', symObjAddr: 0x2ECC, symBinAddr: 0x39B4, symSize: 0x28 }
  - { offset: 0xBD61, size: 0x8, addend: 0x0, symName: '__ZN5alloc3vec12Vec$LT$T$GT$13with_capacity17h509912bbf5be54a6E', symObjAddr: 0x1898, symBinAddr: 0x2380, symSize: 0x44 }
  - { offset: 0xBE00, size: 0x8, addend: 0x0, symName: '__ZN5alloc3vec12Vec$LT$T$GT$3new17h1a6bd1fb70ec599cE', symObjAddr: 0x18DC, symBinAddr: 0x23C4, symSize: 0x14 }
  - { offset: 0xC3EC, size: 0x8, addend: 0x0, symName: '__ZN5alloc3vec16Vec$LT$T$C$A$GT$11extend_with17h294c470846c22dd1E', symObjAddr: 0x18F0, symBinAddr: 0x23D8, symSize: 0x218 }
  - { offset: 0xC7A0, size: 0x8, addend: 0x0, symName: '__ZN5alloc3vec16Vec$LT$T$C$A$GT$11extend_with17h7343867dac4cead2E', symObjAddr: 0x1B08, symBinAddr: 0x25F0, symSize: 0x1F0 }
  - { offset: 0xCB61, size: 0x8, addend: 0x0, symName: '__ZN5alloc3vec16Vec$LT$T$C$A$GT$11extend_with17h9744dde5bee17f36E', symObjAddr: 0x1CF8, symBinAddr: 0x27E0, symSize: 0x214 }
  - { offset: 0xCEC3, size: 0x8, addend: 0x0, symName: '__ZN5alloc3vec16Vec$LT$T$C$A$GT$11extend_with17ha3c9b459edd4540eE', symObjAddr: 0x1F0C, symBinAddr: 0x29F4, symSize: 0x1C4 }
  - { offset: 0xD291, size: 0x8, addend: 0x0, symName: '__ZN5alloc3vec16Vec$LT$T$C$A$GT$11extend_with17he278b576f0218a9fE', symObjAddr: 0x20D0, symBinAddr: 0x2BB8, symSize: 0x1D8 }
  - { offset: 0xD607, size: 0x8, addend: 0x0, symName: '__ZN5alloc3vec16Vec$LT$T$C$A$GT$14extend_trusted17h656d1430149a12c0E', symObjAddr: 0x22A8, symBinAddr: 0x2D90, symSize: 0x124 }
  - { offset: 0xD7FA, size: 0x8, addend: 0x0, symName: '__ZN5alloc3vec16Vec$LT$T$C$A$GT$14extend_trusted17hee63b8ab35364c3bE', symObjAddr: 0x23CC, symBinAddr: 0x2EB4, symSize: 0x124 }
  - { offset: 0xDF3F, size: 0x8, addend: 0x0, symName: '__ZN5alloc3vec16Vec$LT$T$C$A$GT$16extend_desugared17ha9fdd453c14369d3E', symObjAddr: 0x2550, symBinAddr: 0x3038, symSize: 0x1C0 }
  - { offset: 0xE1B4, size: 0x8, addend: 0x0, symName: '__ZN5alloc3vec16Vec$LT$T$C$A$GT$3len17he5ae368dc0e3cf10E', symObjAddr: 0x2710, symBinAddr: 0x31F8, symSize: 0x18 }
  - { offset: 0xE1E9, size: 0x8, addend: 0x0, symName: '__ZN5alloc3vec16Vec$LT$T$C$A$GT$4push17h2259e618379f2d9dE', symObjAddr: 0x2728, symBinAddr: 0x3210, symSize: 0x24 }
  - { offset: 0xE23B, size: 0x8, addend: 0x0, symName: '__ZN5alloc3vec16Vec$LT$T$C$A$GT$4push17hbaa967051d910bd1E', symObjAddr: 0x274C, symBinAddr: 0x3234, symSize: 0x30 }
  - { offset: 0xE33B, size: 0x8, addend: 0x0, symName: '__ZN5alloc3vec16Vec$LT$T$C$A$GT$5clear17hbf06e7c52411cbf8E', symObjAddr: 0x277C, symBinAddr: 0x3264, symSize: 0x28 }
  - { offset: 0xE53B, size: 0x8, addend: 0x0, symName: '__ZN5alloc3vec16Vec$LT$T$C$A$GT$7reserve17h7fe079fd9da4ac58E', symObjAddr: 0x27A4, symBinAddr: 0x328C, symSize: 0xA0 }
  - { offset: 0xE79F, size: 0x8, addend: 0x0, symName: '__ZN5alloc3vec16Vec$LT$T$C$A$GT$7reserve17hab795b2de0cd098dE', symObjAddr: 0x2844, symBinAddr: 0x332C, symSize: 0xA8 }
  - { offset: 0xEA03, size: 0x8, addend: 0x0, symName: '__ZN5alloc3vec16Vec$LT$T$C$A$GT$7reserve17habb216744a3d7243E', symObjAddr: 0x28EC, symBinAddr: 0x33D4, symSize: 0xA8 }
  - { offset: 0xEC67, size: 0x8, addend: 0x0, symName: '__ZN5alloc3vec16Vec$LT$T$C$A$GT$7reserve17hbbfbcf8f4a5f45a3E', symObjAddr: 0x2994, symBinAddr: 0x347C, symSize: 0xA0 }
  - { offset: 0xEDDA, size: 0x8, addend: 0x0, symName: '__ZN5alloc3vec16Vec$LT$T$C$A$GT$8is_empty17h97f17351a36619eaE', symObjAddr: 0x2A34, symBinAddr: 0x351C, symSize: 0x20 }
  - { offset: 0xEF0D, size: 0x8, addend: 0x0, symName: '__ZN5alloc3vec16Vec$LT$T$C$A$GT$8push_mut17h5ca317ffe2a16ebcE', symObjAddr: 0x2A54, symBinAddr: 0x353C, symSize: 0xF4 }
  - { offset: 0xF1A6, size: 0x8, addend: 0x0, symName: '__ZN5alloc3vec16Vec$LT$T$C$A$GT$8push_mut17h7923c61f7941dd39E', symObjAddr: 0x2B48, symBinAddr: 0x3630, symSize: 0xE0 }
  - { offset: 0x10980, size: 0x8, addend: 0x0, symName: __ZN9rust_core8triangle7forward15compact_forward17h7a5bc285379a9a82E, symObjAddr: 0x0, symBinAddr: 0x44DC, symSize: 0x5D0 }
  - { offset: 0x109AE, size: 0x8, addend: 0x0, symName: __ZN9rust_core8triangle7forward1_11__INVENTORY17hc9102afdd50f0ce2E, symObjAddr: 0xF68, symBinAddr: 0xD03C8, symSize: 0x0 }
  - { offset: 0x109BB, size: 0x8, addend: 0x0, symName: __ZN9rust_core8triangle7forward1_6__ctor17h3be4cce5bb8c06a1E, symObjAddr: 0x5D0, symBinAddr: 0x4AAC, symSize: 0x34 }
  - { offset: 0x109D6, size: 0x8, addend: 0x0, symName: __ZN9rust_core8triangle7forward15compact_forward17h7a5bc285379a9a82E, symObjAddr: 0x0, symBinAddr: 0x44DC, symSize: 0x5D0 }
  - { offset: 0x10B75, size: 0x8, addend: 0x0, symName: __ZN9rust_core8triangle7forward7forward17h5c52887799c3ca5aE, symObjAddr: 0x604, symBinAddr: 0x4AE0, symSize: 0x558 }
  - { offset: 0x1152A, size: 0x8, addend: 0x0, symName: __ZN4core4iter6traits8iterator8Iterator3map17h18ada8bd09190541E, symObjAddr: 0x0, symBinAddr: 0x5038, symSize: 0x1C }
  - { offset: 0x11D83, size: 0x8, addend: 0x0, symName: __ZN4core4iter6traits8iterator8Iterator3map17h18ada8bd09190541E, symObjAddr: 0x0, symBinAddr: 0x5038, symSize: 0x1C }
  - { offset: 0x11DDB, size: 0x8, addend: 0x0, symName: __ZN4core4iter6traits8iterator8Iterator3map17h24e3bd89cfe641d4E, symObjAddr: 0x1C, symBinAddr: 0x5054, symSize: 0x1C }
  - { offset: 0x11E33, size: 0x8, addend: 0x0, symName: __ZN4core4iter6traits8iterator8Iterator3map17hd1855864e1c1ce12E, symObjAddr: 0x38, symBinAddr: 0x5070, symSize: 0x1C }
  - { offset: 0x11E8B, size: 0x8, addend: 0x0, symName: __ZN4core4iter6traits8iterator8Iterator3max17he2d46a982b0e2eb9E, symObjAddr: 0x54, symBinAddr: 0x508C, symSize: 0x2C }
  - { offset: 0x11EC2, size: 0x8, addend: 0x0, symName: __ZN4core4iter6traits8iterator8Iterator6copied17hc9ac5ef0ed7056f1E, symObjAddr: 0x80, symBinAddr: 0x50B8, symSize: 0x1C }
  - { offset: 0x11F02, size: 0x8, addend: 0x0, symName: __ZN4core4iter6traits8iterator8Iterator6max_by17hcf5d41911c96c50cE, symObjAddr: 0x9C, symBinAddr: 0x50D4, symSize: 0x2C }
  - { offset: 0x11F51, size: 0x8, addend: 0x0, symName: __ZN4core4iter6traits8iterator8Iterator6reduce17hfb74898820749a06E, symObjAddr: 0xC8, symBinAddr: 0x5100, symSize: 0xE0 }
  - { offset: 0x1207F, size: 0x8, addend: 0x0, symName: '__ZN63_$LT$I$u20$as$u20$core..iter..traits..collect..IntoIterator$GT$9into_iter17h4b376c75c0a425c8E', symObjAddr: 0x250, symBinAddr: 0x5288, symSize: 0x1C }
  - { offset: 0x13840, size: 0x8, addend: 0x0, symName: '__ZN91_$LT$core..slice..iter..Iter$LT$T$GT$$u20$as$u20$core..iter..traits..iterator..Iterator$GT$4fold17h3c2195b1b781adccE', symObjAddr: 0x26C, symBinAddr: 0x52A4, symSize: 0x1F8 }
  - { offset: 0x13A49, size: 0x8, addend: 0x0, symName: '__ZN91_$LT$core..slice..iter..Iter$LT$T$GT$$u20$as$u20$core..iter..traits..iterator..Iterator$GT$4fold17h3c46e22d1056b11eE', symObjAddr: 0x464, symBinAddr: 0x549C, symSize: 0x1E0 }
  - { offset: 0x13C4A, size: 0x8, addend: 0x0, symName: '__ZN91_$LT$core..slice..iter..Iter$LT$T$GT$$u20$as$u20$core..iter..traits..iterator..Iterator$GT$4fold17h6177cacafaf1dc17E', symObjAddr: 0x644, symBinAddr: 0x567C, symSize: 0x1F0 }
  - { offset: 0x13E53, size: 0x8, addend: 0x0, symName: '__ZN91_$LT$core..slice..iter..Iter$LT$T$GT$$u20$as$u20$core..iter..traits..iterator..Iterator$GT$4fold17hbec94490d9081d2eE', symObjAddr: 0x834, symBinAddr: 0x586C, symSize: 0x1E0 }
  - { offset: 0x14054, size: 0x8, addend: 0x0, symName: '__ZN91_$LT$core..slice..iter..Iter$LT$T$GT$$u20$as$u20$core..iter..traits..iterator..Iterator$GT$4next17h4998eb1c6b92ca46E', symObjAddr: 0xA14, symBinAddr: 0x5A4C, symSize: 0x84 }
  - { offset: 0x1410A, size: 0x8, addend: 0x0, symName: '__ZN91_$LT$core..slice..iter..Iter$LT$T$GT$$u20$as$u20$core..iter..traits..iterator..Iterator$GT$4next17h7fef91d9a2aa0062E', symObjAddr: 0xA98, symBinAddr: 0x5AD0, symSize: 0x84 }
  - { offset: 0x1420F, size: 0x8, addend: 0x0, symName: '__ZN91_$LT$core..slice..iter..Iter$LT$T$GT$$u20$as$u20$core..iter..traits..iterator..Iterator$GT$8position17h7895a371a0fb550fE', symObjAddr: 0xB1C, symBinAddr: 0x5B54, symSize: 0x1D0 }
  - { offset: 0x1446C, size: 0x8, addend: 0x0, symName: '__ZN91_$LT$core..slice..iter..Iter$LT$T$GT$$u20$as$u20$core..iter..traits..iterator..Iterator$GT$8position17hb3f53a3ae3d51a17E', symObjAddr: 0xCEC, symBinAddr: 0x5D24, symSize: 0x1D0 }
  - { offset: 0x1467A, size: 0x8, addend: 0x0, symName: '__ZN91_$LT$core..slice..iter..Iter$LT$T$GT$$u20$as$u20$core..iter..traits..iterator..Iterator$GT$9size_hint17h3eedb21baa5b95ddE', symObjAddr: 0xEBC, symBinAddr: 0x5EF4, symSize: 0xB4 }
  - { offset: 0x151B0, size: 0x8, addend: 0x0, symName: '__ZN4core5slice4iter13Iter$LT$T$GT$3new17h5fee7980e7690936E', symObjAddr: 0x1A8, symBinAddr: 0x51E0, symSize: 0x50 }
  - { offset: 0x154B2, size: 0x8, addend: 0x0, symName: '__ZN4core5slice4iter13Iter$LT$T$GT$3new17h7325d8f728d82ba9E', symObjAddr: 0x1F8, symBinAddr: 0x5230, symSize: 0x58 }
  - { offset: 0x15A77, size: 0x8, addend: 0x0, symName: '__ZN4core3cmp5impls50_$LT$impl$u20$core..cmp..Ord$u20$for$u20$$RF$A$GT$3cmp17h97b2c5f1ac2f7bfbE', symObjAddr: 0x0, symBinAddr: 0x5FA8, symSize: 0x34 }
  - { offset: 0x15AB6, size: 0x8, addend: 0x0, symName: '__ZN4core3cmp5impls50_$LT$impl$u20$core..cmp..Ord$u20$for$u20$$RF$A$GT$3cmp17h97b2c5f1ac2f7bfbE', symObjAddr: 0x0, symBinAddr: 0x5FA8, symSize: 0x34 }
  - { offset: 0x15B46, size: 0x8, addend: 0x0, symName: '__ZN74_$LT$pyo3_stub_gen..stub_type..ModuleRef$u20$as$u20$core..clone..Clone$GT$5clone17h01ad712d6769d44aE', symObjAddr: 0x0, symBinAddr: 0x5FDC, symSize: 0x80 }
  - { offset: 0x15B62, size: 0x8, addend: 0x0, symName: '__ZN74_$LT$pyo3_stub_gen..stub_type..ModuleRef$u20$as$u20$core..clone..Clone$GT$5clone17h01ad712d6769d44aE', symObjAddr: 0x0, symBinAddr: 0x5FDC, symSize: 0x80 }
  - { offset: 0x15DEF, size: 0x8, addend: 0x0, symName: __ZN9rust_core6motifs7motifs314count_motifs_39_PYO3_DEF17h04258992b5c9c60eE, symObjAddr: 0x28, symBinAddr: 0xD03E0, symSize: 0x0 }
  - { offset: 0x1737D, size: 0x8, addend: 0x0, symName: __ZN13pyo3_stub_gen9stub_type10PyStubType10type_input17h2b57900a4eb93a2eE, symObjAddr: 0x0, symBinAddr: 0x605C, symSize: 0x14 }
  - { offset: 0x173B7, size: 0x8, addend: 0x0, symName: __ZN13pyo3_stub_gen9stub_type10PyStubType10type_input17h2b57900a4eb93a2eE, symObjAddr: 0x0, symBinAddr: 0x605C, symSize: 0x14 }
  - { offset: 0x173DF, size: 0x8, addend: 0x0, symName: __ZN13pyo3_stub_gen9stub_type10PyStubType10type_input17he609b95c729b72f4E, symObjAddr: 0x14, symBinAddr: 0x6070, symSize: 0x14 }
  - { offset: 0x17C70, size: 0x8, addend: 0x0, symName: __ZN13pyo3_stub_gen9stub_type8TypeInfo7list_of17h4d9e34a1a8112902E, symObjAddr: 0x28, symBinAddr: 0x6084, symSize: 0x4BC }
  - { offset: 0x17D76, size: 0x8, addend: 0x0, symName: __ZN13pyo3_stub_gen9stub_type8TypeInfo7list_of17haebc02aa0aa2d51fE, symObjAddr: 0x4E4, symBinAddr: 0x6540, symSize: 0x4BC }
  - { offset: 0x17E75, size: 0x8, addend: 0x0, symName: __ZN13pyo3_stub_gen9stub_type8TypeInfo7list_of17hf6162a418c1087a1E, symObjAddr: 0x9A0, symBinAddr: 0x69FC, symSize: 0x4BC }
  - { offset: 0x1809B, size: 0x8, addend: 0x0, symName: __ZN9rust_core8triangle4cetc4cetc15__pyo3_pymodule17h64be82de1e5a26c3E, symObjAddr: 0x0, symBinAddr: 0x6EB8, symSize: 0x134 }
  - { offset: 0x180CE, size: 0x8, addend: 0x0, symName: __ZN9rust_core8triangle4cetc4cetc1_11__INVENTORY17h8265d1960002fff5E, symObjAddr: 0xBE0, symBinAddr: 0xD0400, symSize: 0x0 }
  - { offset: 0x180E8, size: 0x8, addend: 0x0, symName: __ZN9rust_core8triangle4cetc4cetc1_11__INVENTORY17hdabf8171a94b19cdE, symObjAddr: 0xBF8, symBinAddr: 0xD0418, symSize: 0x0 }
  - { offset: 0x180F5, size: 0x8, addend: 0x0, symName: __ZN9rust_core8triangle4cetc4cetc1_6__ctor17h54ac4a35fb09ad8eE, symObjAddr: 0x60C, symBinAddr: 0x74C4, symSize: 0x34 }
  - { offset: 0x1810F, size: 0x8, addend: 0x0, symName: __ZN9rust_core8triangle4cetc4cetc1_6__ctor17haab3e9de557d633dE, symObjAddr: 0x640, symBinAddr: 0x74F8, symSize: 0x34 }
  - { offset: 0x18137, size: 0x8, addend: 0x0, symName: __ZN9rust_core8triangle4cetc4cetc9_PYO3_DEF17hd3746751212a5104E, symObjAddr: 0xC10, symBinAddr: 0xD0430, symSize: 0x0 }
  - { offset: 0x18144, size: 0x8, addend: 0x0, symName: __ZN9rust_core8triangle4cetc4cetc15__pyo3_pymodule17h64be82de1e5a26c3E, symObjAddr: 0x0, symBinAddr: 0x6EB8, symSize: 0x134 }
  - { offset: 0x181AD, size: 0x8, addend: 0x0, symName: __ZN9rust_core8triangle4cetc4cetc17__pyfunction_cetc17hff712d44aa45557fE, symObjAddr: 0x134, symBinAddr: 0x6FEC, symSize: 0x26C }
  - { offset: 0x1832E, size: 0x8, addend: 0x0, symName: __ZN9rust_core8triangle4cetc4cetc19__pyfunction_cetc_s17h59762585fabcb4a9E, symObjAddr: 0x3A0, symBinAddr: 0x7258, symSize: 0x26C }
  - { offset: 0x184AF, size: 0x8, addend: 0x0, symName: __ZN9rust_core8triangle4cetc4cetc4cetc17hc60f1cbff25555bbE, symObjAddr: 0x674, symBinAddr: 0x752C, symSize: 0x5C }
  - { offset: 0x184E6, size: 0x8, addend: 0x0, symName: '__ZN9rust_core8triangle4cetc4cetc64_$LT$impl$u20$rust_core..triangle..cetc..cetc..cetc..MakeDef$GT$9_PYO3_DEF10trampoline17h131323fc49c398b5E', symObjAddr: 0x6D0, symBinAddr: 0x7588, symSize: 0x50 }
  - { offset: 0x18548, size: 0x8, addend: 0x0, symName: '__ZN9rust_core8triangle4cetc4cetc66_$LT$impl$u20$rust_core..triangle..cetc..cetc..cetc_s..MakeDef$GT$9_PYO3_DEF10trampoline17h5b90d82a3274727eE', symObjAddr: 0x720, symBinAddr: 0x75D8, symSize: 0x50 }
  - { offset: 0x185A0, size: 0x8, addend: 0x0, symName: __ZN9rust_core8triangle4cetc4cetc6cetc_s17h4d7ac81755ecdd0bE, symObjAddr: 0x770, symBinAddr: 0x7628, symSize: 0x5C }
  - { offset: 0x1AF31, size: 0x8, addend: 0x0, symName: __ZN4pyo33err10cast_error9CastError3new17h5111be4d295b0030E, symObjAddr: 0x0, symBinAddr: 0x7684, symSize: 0x1C }
  - { offset: 0x1B0E2, size: 0x8, addend: 0x0, symName: '__ZN73_$LT$pyo3..err..cast_error..CastIntoError$u20$as$u20$core..fmt..Debug$GT$3fmt17hbddc26a0885b99e7E', symObjAddr: 0x1C, symBinAddr: 0x76A0, symSize: 0x8C }
  - { offset: 0x1C877, size: 0x8, addend: 0x0, symName: __ZN4pyo33err10cast_error9CastError3new17h5111be4d295b0030E, symObjAddr: 0x0, symBinAddr: 0x7684, symSize: 0x1C }
  - { offset: 0x1C92E, size: 0x8, addend: 0x0, symName: __ZN9rust_core8triangle1_6__ctor17h8e5836740b77c64bE, symObjAddr: 0x0, symBinAddr: 0x772C, symSize: 0x34 }
  - { offset: 0x1C957, size: 0x8, addend: 0x0, symName: __ZN9rust_core8triangle1_11__INVENTORY17hf6f53ca850c7f2bbE, symObjAddr: 0xD8, symBinAddr: 0xD04C0, symSize: 0x0 }
  - { offset: 0x1C964, size: 0x8, addend: 0x0, symName: __ZN9rust_core8triangle1_6__ctor17h8e5836740b77c64bE, symObjAddr: 0x0, symBinAddr: 0x772C, symSize: 0x34 }
  - { offset: 0x1CAC1, size: 0x8, addend: 0x0, symName: __ZN4core4char7methods15encode_utf8_raw17hd4ec47e7a0548635E, symObjAddr: 0x0, symBinAddr: 0x7760, symSize: 0x100 }
  - { offset: 0x1CB33, size: 0x8, addend: 0x0, symName: __ZN4core4char7methods15encode_utf8_raw8do_panic7runtime17h3fcfd7d6f9a7d22dE, symObjAddr: 0x100, symBinAddr: 0x7860, symSize: 0xC4 }
  - { offset: 0x1CC30, size: 0x8, addend: 0x0, symName: __ZN4core4char7methods15encode_utf8_raw17hd4ec47e7a0548635E, symObjAddr: 0x0, symBinAddr: 0x7760, symSize: 0x100 }
  - { offset: 0x1CD6A, size: 0x8, addend: 0x0, symName: __ZN4core4char7methods25encode_utf8_raw_unchecked17ha06297e8b6bcd48bE, symObjAddr: 0x1C4, symBinAddr: 0x7924, symSize: 0x188 }
  - { offset: 0x1D496, size: 0x8, addend: 0x0, symName: '__ZN100_$LT$core..array..iter..iter_inner..PolymorphicIter$LT$DATA$GT$$u20$as$u20$core..ops..drop..Drop$GT$4drop17h719740ce58fff18eE', symObjAddr: 0x0, symBinAddr: 0x7AAC, symSize: 0x30 }
  - { offset: 0x1DD3A, size: 0x8, addend: 0x0, symName: __ZN4core3ops8function5FnMut8call_mut17h17c39a5175cf0549E, symObjAddr: 0x204, symBinAddr: 0x7CB0, symSize: 0x30 }
  - { offset: 0x1DD84, size: 0x8, addend: 0x0, symName: '__ZN4core3ops8function6FnOnce40call_once$u7b$$u7b$vtable.shim$u7d$$u7d$17h2a74fbba0777b67dE', symObjAddr: 0x234, symBinAddr: 0x7CE0, symSize: 0x38 }
  - { offset: 0x1DDC8, size: 0x8, addend: 0x0, symName: '__ZN4core3ops8function6FnOnce40call_once$u7b$$u7b$vtable.shim$u7d$$u7d$17h71e7f402476536c6E', symObjAddr: 0x26C, symBinAddr: 0x7D18, symSize: 0x38 }
  - { offset: 0x1DE0C, size: 0x8, addend: 0x0, symName: '__ZN4core3ops8function6FnOnce40call_once$u7b$$u7b$vtable.shim$u7d$$u7d$17hd0455854a922614dE', symObjAddr: 0x2A4, symBinAddr: 0x7D50, symSize: 0x38 }
  - { offset: 0x1DE50, size: 0x8, addend: 0x0, symName: __ZN4core3ops8function6FnOnce9call_once17h15a6b3436ea59524E, symObjAddr: 0x2DC, symBinAddr: 0x7D88, symSize: 0x48 }
  - { offset: 0x1DE94, size: 0x8, addend: 0x0, symName: __ZN4core3ops8function6FnOnce9call_once17h28da1cdf91ac002cE, symObjAddr: 0x324, symBinAddr: 0x7DD0, symSize: 0x5C }
  - { offset: 0x1DED8, size: 0x8, addend: 0x0, symName: __ZN4core3ops8function6FnOnce9call_once17h4e16bf03fc85363dE, symObjAddr: 0x3A4, symBinAddr: 0x7E2C, symSize: 0x4C }
  - { offset: 0x1DF1C, size: 0x8, addend: 0x0, symName: __ZN4core3ops8function6FnOnce9call_once17h68bd4cfecce2ccf4E, symObjAddr: 0x3F0, symBinAddr: 0x7E78, symSize: 0x58 }
  - { offset: 0x1DF60, size: 0x8, addend: 0x0, symName: __ZN4core3ops8function6FnOnce9call_once17h76faaaac13224813E, symObjAddr: 0x448, symBinAddr: 0x7ED0, symSize: 0x24 }
  - { offset: 0x1DFA4, size: 0x8, addend: 0x0, symName: __ZN4core3ops8function6FnOnce9call_once17h79eeb3aedaed3dd3E, symObjAddr: 0x46C, symBinAddr: 0x7EF4, symSize: 0x24 }
  - { offset: 0x1DFE8, size: 0x8, addend: 0x0, symName: __ZN4core3ops8function6FnOnce9call_once17h87a1c2ff6f9b7e8aE, symObjAddr: 0x490, symBinAddr: 0x7F18, symSize: 0x3C }
  - { offset: 0x1E02C, size: 0x8, addend: 0x0, symName: __ZN4core3ops8function6FnOnce9call_once17h9f4d6563812411d3E, symObjAddr: 0x4CC, symBinAddr: 0x7F54, symSize: 0x24 }
  - { offset: 0x1E070, size: 0x8, addend: 0x0, symName: __ZN4core3ops8function6FnOnce9call_once17hd1a4774528022d41E, symObjAddr: 0x4F0, symBinAddr: 0x7F78, symSize: 0x58 }
  - { offset: 0x1E0FB, size: 0x8, addend: 0x0, symName: '__ZN100_$LT$core..array..iter..iter_inner..PolymorphicIter$LT$DATA$GT$$u20$as$u20$core..ops..drop..Drop$GT$4drop17h719740ce58fff18eE', symObjAddr: 0x0, symBinAddr: 0x7AAC, symSize: 0x30 }
  - { offset: 0x1E179, size: 0x8, addend: 0x0, symName: '__ZN82_$LT$core..array..iter..IntoIter$LT$T$C$_$GT$$u20$as$u20$core..ops..drop..Drop$GT$4drop17h8b6236c00cad10ddE', symObjAddr: 0x1070, symBinAddr: 0x8AD4, symSize: 0x30 }
  - { offset: 0x1E3EC, size: 0x8, addend: 0x0, symName: '__ZN4core3ptr100drop_in_place$LT$alloc..raw_vec..RawVec$LT$std..collections..hash..set..HashSet$LT$usize$GT$$GT$$GT$17h91f1adb0a973e39fE', symObjAddr: 0x548, symBinAddr: 0x7FD0, symSize: 0x24 }
  - { offset: 0x1E41B, size: 0x8, addend: 0x0, symName: '__ZN4core3ptr101drop_in_place$LT$hashbrown..map..HashMap$LT$usize$C$$LP$$RP$$C$std..hash..random..RandomState$GT$$GT$17hf74ac1ae67a95d10E', symObjAddr: 0x56C, symBinAddr: 0x7FF4, symSize: 0x24 }
  - { offset: 0x1E44A, size: 0x8, addend: 0x0, symName: '__ZN4core3ptr118drop_in_place$LT$core..array..iter..IntoIter$LT$pyo3..instance..Bound$LT$pyo3..types..any..PyAny$GT$$C$3_usize$GT$$GT$17h3145d61caac6091aE', symObjAddr: 0x590, symBinAddr: 0x8018, symSize: 0x24 }
  - { offset: 0x1E479, size: 0x8, addend: 0x0, symName: '__ZN4core3ptr119drop_in_place$LT$core..result..Result$LT$alloc..vec..Vec$LT$alloc..vec..Vec$LT$usize$GT$$GT$$C$pyo3..err..PyErr$GT$$GT$17hf68cfd297248ff54E', symObjAddr: 0x5B4, symBinAddr: 0x803C, symSize: 0x50 }
  - { offset: 0x1E4A8, size: 0x8, addend: 0x0, symName: '__ZN4core3ptr142drop_in_place$LT$$LT$alloc..collections..vec_deque..VecDeque$LT$T$C$A$GT$$u20$as$u20$core..ops..drop..Drop$GT$..drop..Dropper$LT$usize$GT$$GT$17h90aca2c44ca40ad2E', symObjAddr: 0x604, symBinAddr: 0x808C, symSize: 0x24 }
  - { offset: 0x1E4D7, size: 0x8, addend: 0x0, symName: '__ZN4core3ptr143drop_in_place$LT$core..result..Result$LT$$LP$alloc..vec..Vec$LT$usize$GT$$C$alloc..vec..Vec$LT$usize$GT$$C$usize$RP$$C$pyo3..err..PyErr$GT$$GT$17h7ddcb7e31b4957a4E', symObjAddr: 0x628, symBinAddr: 0x80B0, symSize: 0x50 }
  - { offset: 0x1E506, size: 0x8, addend: 0x0, symName: '__ZN4core3ptr146drop_in_place$LT$core..result..Result$LT$$RF$pyo3..instance..Bound$LT$pyo3..types..module..PyModule$GT$$C$pyo3..err..cast_error..CastError$GT$$GT$17h9111c248fcdbe6ebE', symObjAddr: 0x678, symBinAddr: 0x8100, symSize: 0x44 }
  - { offset: 0x1E535, size: 0x8, addend: 0x0, symName: '__ZN4core3ptr157drop_in_place$LT$$LT$alloc..vec..into_iter..IntoIter$LT$T$C$A$GT$$u20$as$u20$core..ops..drop..Drop$GT$..drop..DropGuard$LT$i32$C$alloc..alloc..Global$GT$$GT$17h4236cf7ec2779772E', symObjAddr: 0x6BC, symBinAddr: 0x8144, symSize: 0x24 }
  - { offset: 0x1E564, size: 0x8, addend: 0x0, symName: '__ZN4core3ptr159drop_in_place$LT$$LT$alloc..vec..into_iter..IntoIter$LT$T$C$A$GT$$u20$as$u20$core..ops..drop..Drop$GT$..drop..DropGuard$LT$usize$C$alloc..alloc..Global$GT$$GT$17hee85e6decf417f65E', symObjAddr: 0x6E0, symBinAddr: 0x8168, symSize: 0x24 }
  - { offset: 0x1E593, size: 0x8, addend: 0x0, symName: '__ZN4core3ptr168drop_in_place$LT$core..iter..adapters..enumerate..Enumerate$LT$core..array..iter..IntoIter$LT$pyo3..instance..Bound$LT$pyo3..types..any..PyAny$GT$$C$3_usize$GT$$GT$$GT$17h880cd1b92d317d16E', symObjAddr: 0x704, symBinAddr: 0x818C, symSize: 0x24 }
  - { offset: 0x1E5C2, size: 0x8, addend: 0x0, symName: '__ZN4core3ptr178drop_in_place$LT$core..iter..adapters..map..Map$LT$pyo3..types..list..BoundListIterator$C$rust_core..triangle..common..degeneracy_ordering_py..$u7b$$u7b$closure$u7d$$u7d$$GT$$GT$17h5c740893eb7c04c5E', symObjAddr: 0x728, symBinAddr: 0x81B0, symSize: 0x24 }
  - { offset: 0x1E5F1, size: 0x8, addend: 0x0, symName: '__ZN4core3ptr182drop_in_place$LT$$LT$alloc..vec..into_iter..IntoIter$LT$T$C$A$GT$$u20$as$u20$core..ops..drop..Drop$GT$..drop..DropGuard$LT$alloc..vec..Vec$LT$usize$GT$$C$alloc..alloc..Global$GT$$GT$17hde533502b79ac0f8E', symObjAddr: 0x74C, symBinAddr: 0x81D4, symSize: 0x24 }
  - { offset: 0x1E620, size: 0x8, addend: 0x0, symName: '__ZN4core3ptr185drop_in_place$LT$$LT$T$u20$as$u20$alloc..slice..$LT$impl$u20$$u5b$T$u5d$$GT$..to_vec_in..ConvertVec$GT$..to_vec..DropGuard$LT$alloc..vec..Vec$LT$usize$GT$$C$alloc..alloc..Global$GT$$GT$17h0a1384e13da58223E', symObjAddr: 0x770, symBinAddr: 0x81F8, symSize: 0x24 }
  - { offset: 0x1E64F, size: 0x8, addend: 0x0, symName: '__ZN4core3ptr192drop_in_place$LT$core..array..iter..iter_inner..PolymorphicIter$LT$$u5b$core..mem..maybe_uninit..MaybeUninit$LT$pyo3..instance..Bound$LT$pyo3..types..any..PyAny$GT$$GT$$u3b$$u20$3$u5d$$GT$$GT$17h4102637a272d895eE', symObjAddr: 0x794, symBinAddr: 0x821C, symSize: 0x24 }
  - { offset: 0x1E67E, size: 0x8, addend: 0x0, symName: '__ZN4core3ptr250drop_in_place$LT$core..iter..adapters..map..Map$LT$alloc..vec..into_iter..IntoIter$LT$i32$GT$$C$$LT$i32$u20$as$u20$pyo3..conversion..IntoPyObject$GT$..owned_sequence_into_pyobject$LT$alloc..vec..Vec$LT$i32$GT$$GT$..$u7b$$u7b$closure$u7d$$u7d$$GT$$GT$17h01063c553c7a1eb4E', symObjAddr: 0x7B8, symBinAddr: 0x8240, symSize: 0x24 }
  - { offset: 0x1E6AD, size: 0x8, addend: 0x0, symName: '__ZN4core3ptr256drop_in_place$LT$core..iter..adapters..map..Map$LT$alloc..vec..into_iter..IntoIter$LT$usize$GT$$C$$LT$usize$u20$as$u20$pyo3..conversion..IntoPyObject$GT$..owned_sequence_into_pyobject$LT$alloc..vec..Vec$LT$usize$GT$$GT$..$u7b$$u7b$closure$u7d$$u7d$$GT$$GT$17hb67d0c0a5ddffd59E', symObjAddr: 0x7DC, symBinAddr: 0x8264, symSize: 0x24 }
  - { offset: 0x1E6DC, size: 0x8, addend: 0x0, symName: '__ZN4core3ptr275drop_in_place$LT$alloc..vec..Vec$LT$usize$GT$..extend_trusted$LT$core..iter..adapters..map..Map$LT$core..slice..iter..Iter$LT$alloc..vec..Vec$LT$usize$GT$$GT$$C$rust_core..triangle..common..degree_ordering..$u7b$$u7b$closure$u7d$$u7d$$GT$$GT$..$u7b$$u7b$closure$u7d$$u7d$$GT$17h52a86fa08edc1d96E', symObjAddr: 0x800, symBinAddr: 0x8288, symSize: 0x24 }
  - { offset: 0x1E70B, size: 0x8, addend: 0x0, symName: '__ZN4core3ptr279drop_in_place$LT$alloc..vec..Vec$LT$usize$GT$..extend_trusted$LT$core..iter..adapters..map..Map$LT$core..slice..iter..Iter$LT$alloc..vec..Vec$LT$usize$GT$$GT$$C$rust_core..triangle..common..degeneracy_ordering..$u7b$$u7b$closure$u7d$$u7d$$GT$$GT$..$u7b$$u7b$closure$u7d$$u7d$$GT$17h218d149383e124a0E', symObjAddr: 0x824, symBinAddr: 0x82AC, symSize: 0x24 }
  - { offset: 0x1E73A, size: 0x8, addend: 0x0, symName: '__ZN4core3ptr325drop_in_place$LT$core..iter..adapters..map..Map$LT$alloc..vec..into_iter..IntoIter$LT$alloc..vec..Vec$LT$usize$GT$$GT$$C$$LT$alloc..vec..Vec$LT$usize$GT$$u20$as$u20$pyo3..conversion..IntoPyObject$GT$..owned_sequence_into_pyobject$LT$alloc..vec..Vec$LT$alloc..vec..Vec$LT$usize$GT$$GT$$GT$..$u7b$$u7b$closure$u7d$$u7d$$GT$$GT$17h03b318820e2af971E', symObjAddr: 0x848, symBinAddr: 0x82D0, symSize: 0x24 }
  - { offset: 0x1E769, size: 0x8, addend: 0x0, symName: '__ZN4core3ptr374drop_in_place$LT$core..iter..traits..iterator..Iterator..for_each..call$LT$usize$C$alloc..vec..Vec$LT$usize$GT$..extend_trusted$LT$core..iter..adapters..map..Map$LT$core..slice..iter..Iter$LT$alloc..vec..Vec$LT$usize$GT$$GT$$C$rust_core..triangle..common..degree_ordering..$u7b$$u7b$closure$u7d$$u7d$$GT$$GT$..$u7b$$u7b$closure$u7d$$u7d$$GT$..$u7b$$u7b$closure$u7d$$u7d$$GT$17h1c4d3eebe4ad883aE', symObjAddr: 0x86C, symBinAddr: 0x82F4, symSize: 0x24 }
  - { offset: 0x1E798, size: 0x8, addend: 0x0, symName: '__ZN4core3ptr378drop_in_place$LT$core..iter..traits..iterator..Iterator..for_each..call$LT$usize$C$alloc..vec..Vec$LT$usize$GT$..extend_trusted$LT$core..iter..adapters..map..Map$LT$core..slice..iter..Iter$LT$alloc..vec..Vec$LT$usize$GT$$GT$$C$rust_core..triangle..common..degeneracy_ordering..$u7b$$u7b$closure$u7d$$u7d$$GT$$GT$..$u7b$$u7b$closure$u7d$$u7d$$GT$..$u7b$$u7b$closure$u7d$$u7d$$GT$17h83688d55e5d2fb17E', symObjAddr: 0x890, symBinAddr: 0x8318, symSize: 0x24 }
  - { offset: 0x1E7C7, size: 0x8, addend: 0x0, symName: '__ZN4core3ptr47drop_in_place$LT$alloc..vec..Vec$LT$i32$GT$$GT$17h931d7fb993ceb499E', symObjAddr: 0x8B4, symBinAddr: 0x833C, symSize: 0x5C }
  - { offset: 0x1E7F6, size: 0x8, addend: 0x0, symName: '__ZN4core3ptr48drop_in_place$LT$alloc..vec..Vec$LT$bool$GT$$GT$17h15905f035667e55dE', symObjAddr: 0x910, symBinAddr: 0x8398, symSize: 0x5C }
  - { offset: 0x1E825, size: 0x8, addend: 0x0, symName: '__ZN4core3ptr54drop_in_place$LT$alloc..raw_vec..RawVec$LT$i32$GT$$GT$17h8814d135eb2cf4c9E', symObjAddr: 0x990, symBinAddr: 0x83F4, symSize: 0x24 }
  - { offset: 0x1E854, size: 0x8, addend: 0x0, symName: '__ZN4core3ptr55drop_in_place$LT$alloc..raw_vec..RawVec$LT$bool$GT$$GT$17h9d1c6d9f70793cf2E', symObjAddr: 0x9B4, symBinAddr: 0x8418, symSize: 0x24 }
  - { offset: 0x1E883, size: 0x8, addend: 0x0, symName: '__ZN4core3ptr576drop_in_place$LT$core..iter..adapters..map..map_fold$LT$$RF$alloc..vec..Vec$LT$usize$GT$$C$usize$C$$LP$$RP$$C$rust_core..triangle..common..degree_ordering..$u7b$$u7b$closure$u7d$$u7d$$C$core..iter..traits..iterator..Iterator..for_each..call$LT$usize$C$alloc..vec..Vec$LT$usize$GT$..extend_trusted$LT$core..iter..adapters..map..Map$LT$core..slice..iter..Iter$LT$alloc..vec..Vec$LT$usize$GT$$GT$$C$rust_core..triangle..common..degree_ordering..$u7b$$u7b$closure$u7d$$u7d$$GT$$GT$..$u7b$$u7b$closure$u7d$$u7d$$GT$..$u7b$$u7b$closure$u7d$$u7d$$GT$..$u7b$$u7b$closure$u7d$$u7d$$GT$17hc665b55c87d72a47E', symObjAddr: 0x9D8, symBinAddr: 0x843C, symSize: 0x24 }
  - { offset: 0x1E8B2, size: 0x8, addend: 0x0, symName: '__ZN4core3ptr584drop_in_place$LT$core..iter..adapters..map..map_fold$LT$$RF$alloc..vec..Vec$LT$usize$GT$$C$usize$C$$LP$$RP$$C$rust_core..triangle..common..degeneracy_ordering..$u7b$$u7b$closure$u7d$$u7d$$C$core..iter..traits..iterator..Iterator..for_each..call$LT$usize$C$alloc..vec..Vec$LT$usize$GT$..extend_trusted$LT$core..iter..adapters..map..Map$LT$core..slice..iter..Iter$LT$alloc..vec..Vec$LT$usize$GT$$GT$$C$rust_core..triangle..common..degeneracy_ordering..$u7b$$u7b$closure$u7d$$u7d$$GT$$GT$..$u7b$$u7b$closure$u7d$$u7d$$GT$..$u7b$$u7b$closure$u7d$$u7d$$GT$..$u7b$$u7b$closure$u7d$$u7d$$GT$17he2bed568864cf3f8E', symObjAddr: 0x9FC, symBinAddr: 0x8460, symSize: 0x24 }
  - { offset: 0x1E8E1, size: 0x8, addend: 0x0, symName: '__ZN4core3ptr59drop_in_place$LT$$u5b$alloc..vec..Vec$LT$usize$GT$$u5d$$GT$17h486bcedea0068dc5E', symObjAddr: 0xA20, symBinAddr: 0x8484, symSize: 0xC4 }
  - { offset: 0x1E910, size: 0x8, addend: 0x0, symName: '__ZN4core3ptr63drop_in_place$LT$alloc..vec..into_iter..IntoIter$LT$i32$GT$$GT$17hb574688d06f2b8c1E', symObjAddr: 0xAE4, symBinAddr: 0x8548, symSize: 0x24 }
  - { offset: 0x1E93F, size: 0x8, addend: 0x0, symName: '__ZN4core3ptr65drop_in_place$LT$alloc..vec..into_iter..IntoIter$LT$usize$GT$$GT$17hcd42d1374f132105E', symObjAddr: 0xB08, symBinAddr: 0x856C, symSize: 0x24 }
  - { offset: 0x1E96E, size: 0x8, addend: 0x0, symName: '__ZN4core3ptr70drop_in_place$LT$std..collections..hash..set..HashSet$LT$usize$GT$$GT$17h83451c77bd738af0E', symObjAddr: 0xB2C, symBinAddr: 0x8590, symSize: 0x24 }
  - { offset: 0x1E99D, size: 0x8, addend: 0x0, symName: '__ZN4core3ptr72drop_in_place$LT$alloc..vec..Vec$LT$alloc..vec..Vec$LT$usize$GT$$GT$$GT$17h9a67e5d8e7338ed2E', symObjAddr: 0xB50, symBinAddr: 0x85B4, symSize: 0x5C }
  - { offset: 0x1E9CC, size: 0x8, addend: 0x0, symName: '__ZN4core3ptr73drop_in_place$LT$alloc..collections..vec_deque..VecDeque$LT$usize$GT$$GT$17h4c82e2ade9e10a76E', symObjAddr: 0xBAC, symBinAddr: 0x8610, symSize: 0x5C }
  - { offset: 0x1E9FB, size: 0x8, addend: 0x0, symName: '__ZN4core3ptr77drop_in_place$LT$hashbrown..raw..RawTable$LT$$LP$usize$C$$LP$$RP$$RP$$GT$$GT$17h2c26702be9f9b563E', symObjAddr: 0xC08, symBinAddr: 0x866C, symSize: 0x24 }
  - { offset: 0x1EA2A, size: 0x8, addend: 0x0, symName: '__ZN4core3ptr79drop_in_place$LT$alloc..raw_vec..RawVec$LT$alloc..vec..Vec$LT$usize$GT$$GT$$GT$17h1e0f21959cd5e6a0E', symObjAddr: 0xC2C, symBinAddr: 0x8690, symSize: 0x24 }
  - { offset: 0x1EA59, size: 0x8, addend: 0x0, symName: '__ZN4core3ptr80drop_in_place$LT$$u5b$std..collections..hash..set..HashSet$LT$usize$GT$$u5d$$GT$17hc281b06c4da97fe7E', symObjAddr: 0xC50, symBinAddr: 0x86B4, symSize: 0xC4 }
  - { offset: 0x1EA88, size: 0x8, addend: 0x0, symName: '__ZN4core3ptr88drop_in_place$LT$alloc..vec..into_iter..IntoIter$LT$alloc..vec..Vec$LT$usize$GT$$GT$$GT$17h38d567e9a5a52842E', symObjAddr: 0xD14, symBinAddr: 0x8778, symSize: 0x24 }
  - { offset: 0x1EAB7, size: 0x8, addend: 0x0, symName: '__ZN4core3ptr90drop_in_place$LT$hashbrown..set..HashSet$LT$usize$C$std..hash..random..RandomState$GT$$GT$17h06cf84281ac3fb58E', symObjAddr: 0xD38, symBinAddr: 0x879C, symSize: 0x24 }
  - { offset: 0x1EAE6, size: 0x8, addend: 0x0, symName: '__ZN4core3ptr93drop_in_place$LT$alloc..vec..Vec$LT$std..collections..hash..set..HashSet$LT$usize$GT$$GT$$GT$17hf26900270bf37dd6E', symObjAddr: 0xD5C, symBinAddr: 0x87C0, symSize: 0x5C }
  - { offset: 0x1EB15, size: 0x8, addend: 0x0, symName: '__ZN4core3ptr94drop_in_place$LT$core..result..Result$LT$alloc..vec..Vec$LT$i32$GT$$C$pyo3..err..PyErr$GT$$GT$17ha15b9e1c18988a10E', symObjAddr: 0xDB8, symBinAddr: 0x881C, symSize: 0x50 }
  - { offset: 0x1EB44, size: 0x8, addend: 0x0, symName: '__ZN4core3ptr96drop_in_place$LT$$LP$alloc..vec..Vec$LT$usize$GT$$C$alloc..vec..Vec$LT$usize$GT$$C$usize$RP$$GT$17he8a06fb1fcabf521E', symObjAddr: 0xE08, symBinAddr: 0x886C, symSize: 0x60 }
  - { offset: 0x1EB73, size: 0x8, addend: 0x0, symName: '__ZN4core3ptr96drop_in_place$LT$core..result..Result$LT$alloc..vec..Vec$LT$usize$GT$$C$pyo3..err..PyErr$GT$$GT$17h1d35de4deac7e0f3E', symObjAddr: 0xE68, symBinAddr: 0x88CC, symSize: 0x50 }
  - { offset: 0x204FB, size: 0x8, addend: 0x0, symName: '__ZN77_$LT$alloc..raw_vec..RawVec$LT$T$C$A$GT$$u20$as$u20$core..ops..drop..Drop$GT$4drop17h6b99d334cd13b32bE', symObjAddr: 0xF70, symBinAddr: 0x89D4, symSize: 0x34 }
  - { offset: 0x20537, size: 0x8, addend: 0x0, symName: '__ZN77_$LT$alloc..raw_vec..RawVec$LT$T$C$A$GT$$u20$as$u20$core..ops..drop..Drop$GT$4drop17h7a54017fe8af2277E', symObjAddr: 0xFA4, symBinAddr: 0x8A08, symSize: 0x30 }
  - { offset: 0x20573, size: 0x8, addend: 0x0, symName: '__ZN77_$LT$alloc..raw_vec..RawVec$LT$T$C$A$GT$$u20$as$u20$core..ops..drop..Drop$GT$4drop17h914288d2517d06e7E', symObjAddr: 0xFD4, symBinAddr: 0x8A38, symSize: 0x30 }
  - { offset: 0x205AF, size: 0x8, addend: 0x0, symName: '__ZN77_$LT$alloc..raw_vec..RawVec$LT$T$C$A$GT$$u20$as$u20$core..ops..drop..Drop$GT$4drop17hf1b3e682aa13e9ddE', symObjAddr: 0x1004, symBinAddr: 0x8A68, symSize: 0x34 }
  - { offset: 0x20614, size: 0x8, addend: 0x0, symName: '__ZN157_$LT$$LT$alloc..vec..into_iter..IntoIter$LT$T$C$A$GT$$u20$as$u20$core..ops..drop..Drop$GT$..drop..DropGuard$LT$T$C$A$GT$$u20$as$u20$core..ops..drop..Drop$GT$4drop17h36e85ce99af3f471E', symObjAddr: 0x30, symBinAddr: 0x7ADC, symSize: 0x6C }
  - { offset: 0x20757, size: 0x8, addend: 0x0, symName: '__ZN157_$LT$$LT$alloc..vec..into_iter..IntoIter$LT$T$C$A$GT$$u20$as$u20$core..ops..drop..Drop$GT$..drop..DropGuard$LT$T$C$A$GT$$u20$as$u20$core..ops..drop..Drop$GT$4drop17h49549ac45e21394eE', symObjAddr: 0x9C, symBinAddr: 0x7B48, symSize: 0x6C }
  - { offset: 0x2089A, size: 0x8, addend: 0x0, symName: '__ZN157_$LT$$LT$alloc..vec..into_iter..IntoIter$LT$T$C$A$GT$$u20$as$u20$core..ops..drop..Drop$GT$..drop..DropGuard$LT$T$C$A$GT$$u20$as$u20$core..ops..drop..Drop$GT$4drop17h8407f1bfca4bd8b5E', symObjAddr: 0x108, symBinAddr: 0x7BB4, symSize: 0x6C }
  - { offset: 0x20A54, size: 0x8, addend: 0x0, symName: '__ZN86_$LT$alloc..vec..into_iter..IntoIter$LT$T$C$A$GT$$u20$as$u20$core..ops..drop..Drop$GT$4drop17h62952b5405405c98E', symObjAddr: 0x10A0, symBinAddr: 0x8B04, symSize: 0x64 }
  - { offset: 0x20AA6, size: 0x8, addend: 0x0, symName: '__ZN86_$LT$alloc..vec..into_iter..IntoIter$LT$T$C$A$GT$$u20$as$u20$core..ops..drop..Drop$GT$4drop17h77597c5b28cd468bE', symObjAddr: 0x1104, symBinAddr: 0x8B68, symSize: 0x78 }
  - { offset: 0x20AF8, size: 0x8, addend: 0x0, symName: '__ZN86_$LT$alloc..vec..into_iter..IntoIter$LT$T$C$A$GT$$u20$as$u20$core..ops..drop..Drop$GT$4drop17h94bbf7d51d02ed2fE', symObjAddr: 0x117C, symBinAddr: 0x8BE0, symSize: 0x64 }
  - { offset: 0x20DB4, size: 0x8, addend: 0x0, symName: '__ZN70_$LT$alloc..vec..Vec$LT$T$C$A$GT$$u20$as$u20$core..ops..drop..Drop$GT$4drop17h2451d2d0928ae72fE', symObjAddr: 0xEB8, symBinAddr: 0x891C, symSize: 0x38 }
  - { offset: 0x20E64, size: 0x8, addend: 0x0, symName: '__ZN70_$LT$alloc..vec..Vec$LT$T$C$A$GT$$u20$as$u20$core..ops..drop..Drop$GT$4drop17h4ee95fc4b7c334a8E', symObjAddr: 0xEF0, symBinAddr: 0x8954, symSize: 0x38 }
  - { offset: 0x20F14, size: 0x8, addend: 0x0, symName: '__ZN70_$LT$alloc..vec..Vec$LT$T$C$A$GT$$u20$as$u20$core..ops..drop..Drop$GT$4drop17h71ea3358115f4e99E', symObjAddr: 0xF28, symBinAddr: 0x898C, symSize: 0x24 }
  - { offset: 0x20FC4, size: 0x8, addend: 0x0, symName: '__ZN70_$LT$alloc..vec..Vec$LT$T$C$A$GT$$u20$as$u20$core..ops..drop..Drop$GT$4drop17heb6c2318dcc068a5E', symObjAddr: 0xF4C, symBinAddr: 0x89B0, symSize: 0x24 }
  - { offset: 0x211B4, size: 0x8, addend: 0x0, symName: '__ZN159_$LT$$LT$alloc..collections..vec_deque..VecDeque$LT$T$C$A$GT$$u20$as$u20$core..ops..drop..Drop$GT$..drop..Dropper$LT$T$GT$$u20$as$u20$core..ops..drop..Drop$GT$4drop17hc92e7887f12d505fE', symObjAddr: 0x174, symBinAddr: 0x7C20, symSize: 0x10 }
  - { offset: 0x21205, size: 0x8, addend: 0x0, symName: '__ZN94_$LT$alloc..collections..vec_deque..VecDeque$LT$T$C$A$GT$$u20$as$u20$core..ops..drop..Drop$GT$4drop17hcc098a61300b9106E', symObjAddr: 0x11E0, symBinAddr: 0x8C44, symSize: 0x90 }
  - { offset: 0x214F1, size: 0x8, addend: 0x0, symName: '__ZN160_$LT$$LT$T$u20$as$u20$alloc..slice..$LT$impl$u20$$u5b$T$u5d$$GT$..to_vec_in..ConvertVec$GT$..to_vec..DropGuard$LT$T$C$A$GT$$u20$as$u20$core..ops..drop..Drop$GT$4drop17h77da2d6235e6d66bE', symObjAddr: 0x184, symBinAddr: 0x7C30, symSize: 0x80 }
  - { offset: 0x21C1B, size: 0x8, addend: 0x0, symName: '__ZN79_$LT$hashbrown..raw..RawTable$LT$T$C$A$GT$$u20$as$u20$core..ops..drop..Drop$GT$4drop17h315c5a00c7a285e6E', symObjAddr: 0x1038, symBinAddr: 0x8A9C, symSize: 0x38 }
  - { offset: 0x23066, size: 0x8, addend: 0x0, symName: '__ZN62_$LT$T$u20$as$u20$alloc..vec..spec_from_elem..SpecFromElem$GT$9from_elem17h51c55622dfe014a0E', symObjAddr: 0x0, symBinAddr: 0x8CD4, symSize: 0x198 }
  - { offset: 0x2371F, size: 0x8, addend: 0x0, symName: '__ZN62_$LT$T$u20$as$u20$alloc..vec..spec_from_elem..SpecFromElem$GT$9from_elem17h51c55622dfe014a0E', symObjAddr: 0x0, symBinAddr: 0x8CD4, symSize: 0x198 }
  - { offset: 0x23837, size: 0x8, addend: 0x0, symName: '__ZN62_$LT$T$u20$as$u20$alloc..vec..spec_from_elem..SpecFromElem$GT$9from_elem17hef07d9345c53b8efE', symObjAddr: 0x198, symBinAddr: 0x8E6C, symSize: 0x198 }
  - { offset: 0x2394F, size: 0x8, addend: 0x0, symName: '__ZN62_$LT$T$u20$as$u20$alloc..vec..spec_from_elem..SpecFromElem$GT$9from_elem17hf55a66047a128a6bE', symObjAddr: 0x330, symBinAddr: 0x9004, symSize: 0x19C }
  - { offset: 0x23E1F, size: 0x8, addend: 0x0, symName: __ZN4pyo35impl_16extract_argument16extract_argument17h0869273791cbfeddE, symObjAddr: 0x0, symBinAddr: 0x91A0, symSize: 0x168 }
  - { offset: 0x25A96, size: 0x8, addend: 0x0, symName: __ZN4pyo35impl_16extract_argument16extract_argument17h0869273791cbfeddE, symObjAddr: 0x0, symBinAddr: 0x91A0, symSize: 0x168 }
  - { offset: 0x25B1B, size: 0x8, addend: 0x0, symName: __ZN4pyo35impl_16extract_argument16extract_argument17h5ede28468fdc99fcE, symObjAddr: 0x168, symBinAddr: 0x9308, symSize: 0x13C }
  - { offset: 0x25B9F, size: 0x8, addend: 0x0, symName: __ZN4pyo35impl_16extract_argument16extract_argument17ha67a1c436103f107E, symObjAddr: 0x2A4, symBinAddr: 0x9444, symSize: 0x15C }
  - { offset: 0x25C24, size: 0x8, addend: 0x0, symName: __ZN4pyo35impl_16extract_argument16extract_argument17hcfb4f5388e6a838aE, symObjAddr: 0x400, symBinAddr: 0x95A0, symSize: 0x168 }
  - { offset: 0x25DB2, size: 0x8, addend: 0x0, symName: '__ZN4pyo35impl_16extract_argument19FunctionDescription26extract_arguments_fastcall28_$u7b$$u7b$closure$u7d$$u7d$17hdc0e94380e41709fE', symObjAddr: 0x12AC, symBinAddr: 0xA44C, symSize: 0x24 }
  - { offset: 0x25E0A, size: 0x8, addend: 0x0, symName: '__ZN4pyo35impl_16extract_argument19FunctionDescription36find_keyword_parameter_in_positional28_$u7b$$u7b$closure$u7d$$u7d$17h507aa14a67b2cb09E', symObjAddr: 0x12D0, symBinAddr: 0xA470, symSize: 0x48 }
  - { offset: 0x25E6A, size: 0x8, addend: 0x0, symName: '__ZN4pyo35impl_16extract_argument19FunctionDescription38find_keyword_parameter_in_keyword_only28_$u7b$$u7b$closure$u7d$$u7d$17hfafab257917ac574E', symObjAddr: 0x1318, symBinAddr: 0xA4B8, symSize: 0x38 }
  - { offset: 0x25EB1, size: 0x8, addend: 0x0, symName: '__ZN80_$LT$T$u20$as$u20$pyo3..impl_..extract_argument..PyFunctionArgument$LT$_$GT$$GT$7extract17h0ab96d2645893f69E', symObjAddr: 0x1350, symBinAddr: 0xA4F0, symSize: 0x28 }
  - { offset: 0x269E5, size: 0x8, addend: 0x0, symName: __ZN4pyo35impl_16extract_argument19FunctionDescription13handle_kwargs17h9f4f788cfc664014E, symObjAddr: 0x568, symBinAddr: 0x9708, symSize: 0x70C }
  - { offset: 0x26C04, size: 0x8, addend: 0x0, symName: __ZN4pyo35impl_16extract_argument19FunctionDescription26extract_arguments_fastcall17h95e05a01c90ba7e0E, symObjAddr: 0xC74, symBinAddr: 0x9E14, symSize: 0x638 }
  - { offset: 0x27162, size: 0x8, addend: 0x0, symName: __ZN3std9panicking12catch_unwind7do_call17h2e8f25eb4ffd0a32E, symObjAddr: 0x0, symBinAddr: 0xA518, symSize: 0x94 }
  - { offset: 0x290F6, size: 0x8, addend: 0x0, symName: __ZN3std9panicking12catch_unwind7do_call17h2e8f25eb4ffd0a32E, symObjAddr: 0x0, symBinAddr: 0xA518, symSize: 0x94 }
  - { offset: 0x291F1, size: 0x8, addend: 0x0, symName: __ZN3std9panicking12catch_unwind7do_call17h524a38e872413401E, symObjAddr: 0x94, symBinAddr: 0xA5AC, symSize: 0x94 }
  - { offset: 0x292EC, size: 0x8, addend: 0x0, symName: __ZN3std9panicking12catch_unwind7do_call17h55a86c7f52b6932fE, symObjAddr: 0x128, symBinAddr: 0xA640, symSize: 0x88 }
  - { offset: 0x293E7, size: 0x8, addend: 0x0, symName: __ZN3std9panicking12catch_unwind8do_catch17h660e1bbf66bc2a5dE, symObjAddr: 0x1B0, symBinAddr: 0xA6C8, symSize: 0x70 }
  - { offset: 0x2947C, size: 0x8, addend: 0x0, symName: __ZN3std9panicking12catch_unwind8do_catch17hc1d128becd537f9eE, symObjAddr: 0x220, symBinAddr: 0xA738, symSize: 0x70 }
  - { offset: 0x29511, size: 0x8, addend: 0x0, symName: __ZN3std9panicking12catch_unwind8do_catch17hdc5609badeab60a9E, symObjAddr: 0x290, symBinAddr: 0xA7A8, symSize: 0x70 }
  - { offset: 0x29947, size: 0x8, addend: 0x0, symName: '__ZN4core3ptr9const_ptr33_$LT$impl$u20$$BP$const$u20$T$GT$7is_null17h952ca629c6f597abE', symObjAddr: 0x0, symBinAddr: 0xA818, symSize: 0x18 }
  - { offset: 0x2A18E, size: 0x8, addend: 0x0, symName: '__ZN4core3ptr9const_ptr33_$LT$impl$u20$$BP$const$u20$T$GT$7is_null17h952ca629c6f597abE', symObjAddr: 0x0, symBinAddr: 0xA818, symSize: 0x18 }
  - { offset: 0x2A23C, size: 0x8, addend: 0x0, symName: '__ZN4core5slice29_$LT$impl$u20$$u5b$T$u5d$$GT$15copy_from_slice17h7e06d3fbc4ef8a04E', symObjAddr: 0x18, symBinAddr: 0xA830, symSize: 0x34 }
  - { offset: 0x2A2A5, size: 0x8, addend: 0x0, symName: '__ZN4core5slice29_$LT$impl$u20$$u5b$T$u5d$$GT$18split_at_unchecked17h94dffb657b8eca77E', symObjAddr: 0x4C, symBinAddr: 0xA864, symSize: 0xE8 }
  - { offset: 0x2A3EA, size: 0x8, addend: 0x0, symName: '__ZN4core5slice29_$LT$impl$u20$$u5b$T$u5d$$GT$8split_at17h7c5f710ef1650ef2E', symObjAddr: 0x134, symBinAddr: 0xA94C, symSize: 0xAC }
  - { offset: 0x2B6EA, size: 0x8, addend: 0x0, symName: '__ZN4core6option15Option$LT$T$GT$3map17h015f042e66828927E', symObjAddr: 0x1E0, symBinAddr: 0xA9F8, symSize: 0x50 }
  - { offset: 0x2B762, size: 0x8, addend: 0x0, symName: '__ZN4core6option15Option$LT$T$GT$7is_some17hb621b5265e68a61fE', symObjAddr: 0x230, symBinAddr: 0xAA48, symSize: 0x28 }
  - { offset: 0x2B79B, size: 0x8, addend: 0x0, symName: '__ZN4core6option15Option$LT$T$GT$7replace17hf832f4f93fb15121E', symObjAddr: 0x258, symBinAddr: 0xAA70, symSize: 0x28 }
  - { offset: 0x2B801, size: 0x8, addend: 0x0, symName: '__ZN4core6option15Option$LT$T$GT$9unwrap_or17h9921b4e7dd1d9283E', symObjAddr: 0x280, symBinAddr: 0xAA98, symSize: 0x48 }
  - { offset: 0x2B89F, size: 0x8, addend: 0x0, symName: __ZN9rust_core8triangle6kclist6kclist9kclist_py9_PYO3_DEF17h607a3fc44709dafcE, symObjAddr: 0x20, symBinAddr: 0xD04D8, symSize: 0x0 }
  - { offset: 0x2CE2E, size: 0x8, addend: 0x0, symName: __ZN4core3cmp6max_by17hfdd6575354780cc9E, symObjAddr: 0x0, symBinAddr: 0xAAE0, symSize: 0xB4 }
  - { offset: 0x2CE79, size: 0x8, addend: 0x0, symName: __ZN4core3cmp6max_by17hfdd6575354780cc9E, symObjAddr: 0x0, symBinAddr: 0xAAE0, symSize: 0xB4 }
  - { offset: 0x2CF0A, size: 0x8, addend: 0x0, symName: '__ZN4core3ops8function5impls80_$LT$impl$u20$core..ops..function..FnOnce$LT$A$GT$$u20$for$u20$$RF$mut$u20$F$GT$9call_once17h3ab092efdb8c8f88E', symObjAddr: 0xB4, symBinAddr: 0xAB94, symSize: 0x34 }
  - { offset: 0x2D02D, size: 0x8, addend: 0x0, symName: __ZN9rust_core8triangle7forward7forward15compact_forward9_PYO3_DEF17h70209c49bce6c636E, symObjAddr: 0x38, symBinAddr: 0xD04F8, symSize: 0x0 }
  - { offset: 0x2E5BC, size: 0x8, addend: 0x0, symName: __ZN9rust_core8triangle7forward7forward15__pyo3_pymodule17hae003dd82f57b989E, symObjAddr: 0x0, symBinAddr: 0xABC8, symSize: 0x134 }
  - { offset: 0x2E5EF, size: 0x8, addend: 0x0, symName: __ZN9rust_core8triangle7forward7forward1_11__INVENTORY17hc48abbd5350a7e26E, symObjAddr: 0xFC8, symBinAddr: 0xD0518, symSize: 0x0 }
  - { offset: 0x2E609, size: 0x8, addend: 0x0, symName: __ZN9rust_core8triangle7forward7forward1_11__INVENTORY17he1b1aad91d1eb7c3E, symObjAddr: 0xFE0, symBinAddr: 0xD0530, symSize: 0x0 }
  - { offset: 0x2E616, size: 0x8, addend: 0x0, symName: __ZN9rust_core8triangle7forward7forward1_6__ctor17h310cf0145afe9f20E, symObjAddr: 0x194, symBinAddr: 0xAD5C, symSize: 0x34 }
  - { offset: 0x2E630, size: 0x8, addend: 0x0, symName: __ZN9rust_core8triangle7forward7forward1_6__ctor17h90967849c1371094E, symObjAddr: 0x1C8, symBinAddr: 0xAD90, symSize: 0x34 }
  - { offset: 0x2E658, size: 0x8, addend: 0x0, symName: __ZN9rust_core8triangle7forward7forward9_PYO3_DEF17h1c40350ca240b0d3E, symObjAddr: 0xFF8, symBinAddr: 0xD0548, symSize: 0x0 }
  - { offset: 0x2E665, size: 0x8, addend: 0x0, symName: __ZN9rust_core8triangle7forward7forward15__pyo3_pymodule17hae003dd82f57b989E, symObjAddr: 0x0, symBinAddr: 0xABC8, symSize: 0x134 }
  - { offset: 0x2E6CE, size: 0x8, addend: 0x0, symName: __ZN9rust_core8triangle7forward7forward15compact_forward17h6efab019e6853279E, symObjAddr: 0x134, symBinAddr: 0xACFC, symSize: 0x60 }
  - { offset: 0x2E709, size: 0x8, addend: 0x0, symName: __ZN9rust_core8triangle7forward7forward20__pyfunction_forward17h3862a9cb1bd86669E, symObjAddr: 0x1FC, symBinAddr: 0xADC4, symSize: 0x3D8 }
  - { offset: 0x2E8DC, size: 0x8, addend: 0x0, symName: __ZN9rust_core8triangle7forward7forward28__pyfunction_compact_forward17hcbafc31cdb3dfa26E, symObjAddr: 0x5D4, symBinAddr: 0xB19C, symSize: 0x3D8 }
  - { offset: 0x2EAB9, size: 0x8, addend: 0x0, symName: '__ZN9rust_core8triangle7forward7forward73_$LT$impl$u20$rust_core..triangle..forward..forward..forward..MakeDef$GT$9_PYO3_DEF10trampoline17he0993e9bb7a8412cE', symObjAddr: 0x9AC, symBinAddr: 0xB574, symSize: 0x50 }
  - { offset: 0x2EB11, size: 0x8, addend: 0x0, symName: __ZN9rust_core8triangle7forward7forward7forward17h967a3b645bfafa84E, symObjAddr: 0x9FC, symBinAddr: 0xB5C4, symSize: 0x60 }
  - { offset: 0x2EB56, size: 0x8, addend: 0x0, symName: '__ZN9rust_core8triangle7forward7forward81_$LT$impl$u20$rust_core..triangle..forward..forward..compact_forward..MakeDef$GT$9_PYO3_DEF10trampoline17hace75e0068a73af5E', symObjAddr: 0xA5C, symBinAddr: 0xB624, symSize: 0x50 }
  - { offset: 0x31517, size: 0x8, addend: 0x0, symName: '__ZN4core3str6traits108_$LT$impl$u20$core..slice..index..SliceIndex$LT$str$GT$$u20$for$u20$core..ops..range..Range$LT$usize$GT$$GT$13get_unchecked18precondition_check17hde651ff4ccdd9ab1E', symObjAddr: 0x0, symBinAddr: 0xB674, symSize: 0x80 }
  - { offset: 0x3153D, size: 0x8, addend: 0x0, symName: '__ZN4core3str6traits108_$LT$impl$u20$core..slice..index..SliceIndex$LT$str$GT$$u20$for$u20$core..ops..range..Range$LT$usize$GT$$GT$13get_unchecked18precondition_check17hde651ff4ccdd9ab1E', symObjAddr: 0x0, symBinAddr: 0xB674, symSize: 0x80 }
  - { offset: 0x315F6, size: 0x8, addend: 0x0, symName: '__ZN140_$LT$pyo3..instance..Bound$LT$pyo3..types..module..PyModule$GT$$u20$as$u20$rust_core..util..submodules_initializer..PyModuleSubmoduleExt$GT$15init_submodules17hbf522dd7763dbf6eE', symObjAddr: 0x0, symBinAddr: 0xB6F4, symSize: 0x2E4 }
  - { offset: 0x32E3D, size: 0x8, addend: 0x0, symName: '__ZN140_$LT$pyo3..instance..Bound$LT$pyo3..types..module..PyModule$GT$$u20$as$u20$rust_core..util..submodules_initializer..PyModuleSubmoduleExt$GT$15init_submodules17hbf522dd7763dbf6eE', symObjAddr: 0x0, symBinAddr: 0xB6F4, symSize: 0x2E4 }
  - { offset: 0x32F72, size: 0x8, addend: 0x0, symName: '__ZN4pyo35types8iterator131_$LT$impl$u20$core..iter..traits..iterator..Iterator$u20$for$u20$pyo3..instance..Bound$LT$pyo3..types..iterator..PyIterator$GT$$GT$4next17hec57d50943936ac2E', symObjAddr: 0x2E4, symBinAddr: 0xB9D8, symSize: 0x30 }
  - { offset: 0x33862, size: 0x8, addend: 0x0, symName: '__ZN4pyo38instance36Bound$LT$pyo3..types..any..PyAny$GT$14from_owned_ptr17he2e73d194b5db448E', symObjAddr: 0x314, symBinAddr: 0xBA08, symSize: 0x28 }
  - { offset: 0x338AD, size: 0x8, addend: 0x0, symName: '__ZN4pyo38instance39Borrowed$LT$pyo3..types..any..PyAny$GT$13from_non_null17h9cc10a7c74285a88E', symObjAddr: 0x33C, symBinAddr: 0xBA30, symSize: 0x14 }
  - { offset: 0x338EB, size: 0x8, addend: 0x0, symName: '__ZN4pyo38instance39Borrowed$LT$pyo3..types..any..PyAny$GT$15from_ptr_or_opt17hdd89fa89bd61a459E', symObjAddr: 0x350, symBinAddr: 0xBA44, symSize: 0x2C }
  - { offset: 0x33929, size: 0x8, addend: 0x0, symName: '__ZN4pyo38instance39Borrowed$LT$pyo3..types..any..PyAny$GT$18from_ptr_unchecked17hb0edc507475f9b85E', symObjAddr: 0x37C, symBinAddr: 0xBA70, symSize: 0x30 }
  - { offset: 0x33CA7, size: 0x8, addend: 0x0, symName: '__ZN95_$LT$pyo3..types..list..BoundListIterator$u20$as$u20$core..iter..traits..iterator..Iterator$GT$4next17hd420477d13fa8e3bE', symObjAddr: 0x0, symBinAddr: 0xBAA0, symSize: 0x24 }
  - { offset: 0x34FA3, size: 0x8, addend: 0x0, symName: '__ZN95_$LT$pyo3..types..list..BoundListIterator$u20$as$u20$core..iter..traits..iterator..Iterator$GT$4next17hd420477d13fa8e3bE', symObjAddr: 0x0, symBinAddr: 0xBAA0, symSize: 0x24 }
  - { offset: 0x34FD1, size: 0x8, addend: 0x0, symName: '__ZN95_$LT$pyo3..types..list..BoundListIterator$u20$as$u20$core..iter..traits..iterator..Iterator$GT$9size_hint17h1951f3a92b436310E', symObjAddr: 0x24, symBinAddr: 0xBAC4, symSize: 0x40 }
  - { offset: 0x356B4, size: 0x8, addend: 0x0, symName: __ZN4pyo35impl_10trampoline10trampoline17h038b92d0641d8853E, symObjAddr: 0x0, symBinAddr: 0xBB04, symSize: 0x14C }
  - { offset: 0x36B7D, size: 0x8, addend: 0x0, symName: __ZN4pyo35impl_10trampoline10trampoline17h038b92d0641d8853E, symObjAddr: 0x0, symBinAddr: 0xBB04, symSize: 0x14C }
  - { offset: 0x36C1F, size: 0x8, addend: 0x0, symName: __ZN4pyo35impl_10trampoline10trampoline17h9274831b0555ee5eE, symObjAddr: 0x14C, symBinAddr: 0xBC50, symSize: 0x160 }
  - { offset: 0x36CC3, size: 0x8, addend: 0x0, symName: __ZN4pyo35impl_10trampoline10trampoline17he1607d6493a5d7d4E, symObjAddr: 0x2AC, symBinAddr: 0xBDB0, symSize: 0x158 }
  - { offset: 0x36D6B, size: 0x8, addend: 0x0, symName: '__ZN4pyo35impl_10trampoline10trampoline28_$u7b$$u7b$closure$u7d$$u7d$17h604a6bde8d98fd2eE', symObjAddr: 0x404, symBinAddr: 0xBF08, symSize: 0x2C }
  - { offset: 0x36DB9, size: 0x8, addend: 0x0, symName: '__ZN4pyo35impl_10trampoline10trampoline28_$u7b$$u7b$closure$u7d$$u7d$17h7beda09daecb85afE', symObjAddr: 0x430, symBinAddr: 0xBF34, symSize: 0x40 }
  - { offset: 0x36E08, size: 0x8, addend: 0x0, symName: '__ZN4pyo35impl_10trampoline10trampoline28_$u7b$$u7b$closure$u7d$$u7d$17hf548e645bb898570E', symObjAddr: 0x470, symBinAddr: 0xBF74, symSize: 0x24 }
  - { offset: 0x36E5C, size: 0x8, addend: 0x0, symName: '__ZN4pyo35impl_10trampoline11module_init28_$u7b$$u7b$closure$u7d$$u7d$17h4de67b0a6f297660E', symObjAddr: 0x494, symBinAddr: 0xBF98, symSize: 0x40 }
  - { offset: 0x36EA8, size: 0x8, addend: 0x0, symName: '__ZN4pyo35impl_10trampoline11module_init28_$u7b$$u7b$closure$u7d$$u7d$28_$u7b$$u7b$closure$u7d$$u7d$17hd4914c785f1b4fddE', symObjAddr: 0x4D4, symBinAddr: 0xBFD8, symSize: 0x24 }
  - { offset: 0x36EFF, size: 0x8, addend: 0x0, symName: '__ZN4pyo35impl_10trampoline22fastcall_with_keywords28_$u7b$$u7b$closure$u7d$$u7d$17he4994a36fd320cfeE', symObjAddr: 0x4F8, symBinAddr: 0xBFFC, symSize: 0x48 }
  - { offset: 0x36FCB, size: 0x8, addend: 0x0, symName: '__ZN4pyo35impl_10trampoline6noargs28_$u7b$$u7b$closure$u7d$$u7d$17he9c30954a1f944beE', symObjAddr: 0x540, symBinAddr: 0xC044, symSize: 0x34 }
  - { offset: 0x379D2, size: 0x8, addend: 0x0, symName: '__ZN4core3ptr7mut_ptr31_$LT$impl$u20$$BP$mut$u20$T$GT$6offset18precondition_check17h301dda21c6b0aa8cE', symObjAddr: 0x0, symBinAddr: 0xC078, symSize: 0xC4 }
  - { offset: 0x37A88, size: 0x8, addend: 0x0, symName: '__ZN4core3ptr7mut_ptr31_$LT$impl$u20$$BP$mut$u20$T$GT$6offset18precondition_check17h301dda21c6b0aa8cE', symObjAddr: 0x0, symBinAddr: 0xC078, symSize: 0xC4 }
  - { offset: 0x37E7B, size: 0x8, addend: 0x0, symName: '__ZN4pyo35impl_4wrap30IntoPyObjectConverter$LT$T$GT$4wrap17h2197d5731d880327E', symObjAddr: 0x0, symBinAddr: 0xC13C, symSize: 0x1C }
  - { offset: 0x3A18D, size: 0x8, addend: 0x0, symName: '__ZN4pyo35impl_4wrap62IntoPyObjectConverter$LT$core..result..Result$LT$T$C$E$GT$$GT$12map_into_ptr28_$u7b$$u7b$closure$u7d$$u7d$17h4caeb36972d4ce83E', symObjAddr: 0x270, symBinAddr: 0xC3AC, symSize: 0x34 }
  - { offset: 0x3A1E5, size: 0x8, addend: 0x0, symName: '__ZN4pyo35impl_4wrap62IntoPyObjectConverter$LT$core..result..Result$LT$T$C$E$GT$$GT$12map_into_ptr28_$u7b$$u7b$closure$u7d$$u7d$17h6f544a01d3e5a7c5E', symObjAddr: 0x2A4, symBinAddr: 0xC3E0, symSize: 0x34 }
  - { offset: 0x3A23D, size: 0x8, addend: 0x0, symName: '__ZN4pyo35impl_4wrap62IntoPyObjectConverter$LT$core..result..Result$LT$T$C$E$GT$$GT$12map_into_ptr28_$u7b$$u7b$closure$u7d$$u7d$17h9158d74b7dc74ba4E', symObjAddr: 0x2D8, symBinAddr: 0xC414, symSize: 0x40 }
  - { offset: 0x3A295, size: 0x8, addend: 0x0, symName: '__ZN4pyo35impl_4wrap62IntoPyObjectConverter$LT$core..result..Result$LT$T$C$E$GT$$GT$12map_into_ptr28_$u7b$$u7b$closure$u7d$$u7d$17hb17f3d562b2186d0E', symObjAddr: 0x318, symBinAddr: 0xC454, symSize: 0x2C }
  - { offset: 0x3A2EC, size: 0x8, addend: 0x0, symName: '__ZN4pyo35impl_4wrap62IntoPyObjectConverter$LT$core..result..Result$LT$T$C$E$GT$$GT$12map_into_ptr28_$u7b$$u7b$closure$u7d$$u7d$17hd9dff3cef3916cfdE', symObjAddr: 0x344, symBinAddr: 0xC480, symSize: 0x34 }
  - { offset: 0x3A3AF, size: 0x8, addend: 0x0, symName: '__ZN4pyo35impl_4wrap82EmptyTupleConverter$LT$core..result..Result$LT$$LP$$RP$$C$pyo3..err..PyErr$GT$$GT$12map_into_ptr28_$u7b$$u7b$closure$u7d$$u7d$17h632c5a82dcdd0ecaE', symObjAddr: 0x3E0, symBinAddr: 0xC51C, symSize: 0x28 }
  - { offset: 0x3A405, size: 0x8, addend: 0x0, symName: __ZN4pyo35impl_4wrap9converter17h003eba759c925065E, symObjAddr: 0x408, symBinAddr: 0xC544, symSize: 0x10 }
  - { offset: 0x3A432, size: 0x8, addend: 0x0, symName: __ZN4pyo35impl_4wrap9converter17h0b239c7bb49d205cE, symObjAddr: 0x418, symBinAddr: 0xC554, symSize: 0x10 }
  - { offset: 0x3A45F, size: 0x8, addend: 0x0, symName: __ZN4pyo35impl_4wrap9converter17h126c98872e2247d2E, symObjAddr: 0x428, symBinAddr: 0xC564, symSize: 0x10 }
  - { offset: 0x3A48C, size: 0x8, addend: 0x0, symName: __ZN4pyo35impl_4wrap9converter17h1df0cb4a6a770c2cE, symObjAddr: 0x438, symBinAddr: 0xC574, symSize: 0x10 }
  - { offset: 0x3A4B9, size: 0x8, addend: 0x0, symName: __ZN4pyo35impl_4wrap9converter17h4e83fd8c55200f80E, symObjAddr: 0x448, symBinAddr: 0xC584, symSize: 0x10 }
  - { offset: 0x3A4E6, size: 0x8, addend: 0x0, symName: __ZN4pyo35impl_4wrap9converter17h6eb88b80775478e9E, symObjAddr: 0x458, symBinAddr: 0xC594, symSize: 0x10 }
  - { offset: 0x3A513, size: 0x8, addend: 0x0, symName: __ZN4pyo35impl_4wrap9converter17h7e0e9f6f1a6c5f90E, symObjAddr: 0x468, symBinAddr: 0xC5A4, symSize: 0x10 }
  - { offset: 0x3A540, size: 0x8, addend: 0x0, symName: __ZN4pyo35impl_4wrap9converter17h887a686a66c145e1E, symObjAddr: 0x478, symBinAddr: 0xC5B4, symSize: 0x10 }
  - { offset: 0x3A56D, size: 0x8, addend: 0x0, symName: __ZN4pyo35impl_4wrap9converter17h8d84fb41d2a9a6f9E, symObjAddr: 0x488, symBinAddr: 0xC5C4, symSize: 0x10 }
  - { offset: 0x3A59A, size: 0x8, addend: 0x0, symName: __ZN4pyo35impl_4wrap9converter17hbe49b5cefde30004E, symObjAddr: 0x498, symBinAddr: 0xC5D4, symSize: 0x10 }
  - { offset: 0x3A5C7, size: 0x8, addend: 0x0, symName: __ZN4pyo35impl_4wrap9converter17hc99b20991b593f40E, symObjAddr: 0x4A8, symBinAddr: 0xC5E4, symSize: 0x10 }
  - { offset: 0x3A5F4, size: 0x8, addend: 0x0, symName: __ZN4pyo35impl_4wrap9converter17hfedda1d47625e6fbE, symObjAddr: 0x4B8, symBinAddr: 0xC5F4, symSize: 0x10 }
  - { offset: 0x3A626, size: 0x8, addend: 0x0, symName: '__ZN81_$LT$pyo3..impl_..wrap..Converter$LT$T$GT$$u20$as$u20$core..ops..deref..Deref$GT$5deref17h28d839789c3ef838E', symObjAddr: 0x4C8, symBinAddr: 0xC604, symSize: 0x14 }
  - { offset: 0x3A65B, size: 0x8, addend: 0x0, symName: '__ZN81_$LT$pyo3..impl_..wrap..Converter$LT$T$GT$$u20$as$u20$core..ops..deref..Deref$GT$5deref17h2a759a6ae4a6a72dE', symObjAddr: 0x4DC, symBinAddr: 0xC618, symSize: 0x14 }
  - { offset: 0x3A690, size: 0x8, addend: 0x0, symName: '__ZN81_$LT$pyo3..impl_..wrap..Converter$LT$T$GT$$u20$as$u20$core..ops..deref..Deref$GT$5deref17h5d84ed6cfb8cabb5E', symObjAddr: 0x4F0, symBinAddr: 0xC62C, symSize: 0x14 }
  - { offset: 0x3A6C5, size: 0x8, addend: 0x0, symName: '__ZN81_$LT$pyo3..impl_..wrap..Converter$LT$T$GT$$u20$as$u20$core..ops..deref..Deref$GT$5deref17h64605bbef18d4de9E', symObjAddr: 0x504, symBinAddr: 0xC640, symSize: 0x14 }
  - { offset: 0x3A6FA, size: 0x8, addend: 0x0, symName: '__ZN81_$LT$pyo3..impl_..wrap..Converter$LT$T$GT$$u20$as$u20$core..ops..deref..Deref$GT$5deref17h7c8febd8d271dabeE', symObjAddr: 0x518, symBinAddr: 0xC654, symSize: 0x14 }
  - { offset: 0x3A72F, size: 0x8, addend: 0x0, symName: '__ZN81_$LT$pyo3..impl_..wrap..Converter$LT$T$GT$$u20$as$u20$core..ops..deref..Deref$GT$5deref17h89eb1c1026ddd65fE', symObjAddr: 0x52C, symBinAddr: 0xC668, symSize: 0x14 }
  - { offset: 0x3A764, size: 0x8, addend: 0x0, symName: '__ZN81_$LT$pyo3..impl_..wrap..Converter$LT$T$GT$$u20$as$u20$core..ops..deref..Deref$GT$5deref17h98d37698353b4a9cE', symObjAddr: 0x540, symBinAddr: 0xC67C, symSize: 0x14 }
  - { offset: 0x3A799, size: 0x8, addend: 0x0, symName: '__ZN81_$LT$pyo3..impl_..wrap..Converter$LT$T$GT$$u20$as$u20$core..ops..deref..Deref$GT$5deref17hbdf846fdfb7013e7E', symObjAddr: 0x554, symBinAddr: 0xC690, symSize: 0x14 }
  - { offset: 0x3A7CE, size: 0x8, addend: 0x0, symName: '__ZN81_$LT$pyo3..impl_..wrap..Converter$LT$T$GT$$u20$as$u20$core..ops..deref..Deref$GT$5deref17hbf7d1ce76f69ee9cE', symObjAddr: 0x568, symBinAddr: 0xC6A4, symSize: 0x14 }
  - { offset: 0x3A803, size: 0x8, addend: 0x0, symName: '__ZN81_$LT$pyo3..impl_..wrap..Converter$LT$T$GT$$u20$as$u20$core..ops..deref..Deref$GT$5deref17hd1c1bdfa5e779b02E', symObjAddr: 0x57C, symBinAddr: 0xC6B8, symSize: 0x14 }
  - { offset: 0x3A838, size: 0x8, addend: 0x0, symName: '__ZN81_$LT$pyo3..impl_..wrap..Converter$LT$T$GT$$u20$as$u20$core..ops..deref..Deref$GT$5deref17hf287a2ee1e7c4f01E', symObjAddr: 0x590, symBinAddr: 0xC6CC, symSize: 0x14 }
  - { offset: 0x3A86D, size: 0x8, addend: 0x0, symName: '__ZN81_$LT$pyo3..impl_..wrap..Converter$LT$T$GT$$u20$as$u20$core..ops..deref..Deref$GT$5deref17hf90bc9d44a0b0235E', symObjAddr: 0x5A4, symBinAddr: 0xC6E0, symSize: 0x14 }
  - { offset: 0x3A8A8, size: 0x8, addend: 0x0, symName: '__ZN91_$LT$pyo3..impl_..wrap..EmptyTupleConverter$LT$T$GT$$u20$as$u20$core..ops..deref..Deref$GT$5deref17h0c0f072cf027ef6aE', symObjAddr: 0x5B8, symBinAddr: 0xC6F4, symSize: 0x14 }
  - { offset: 0x3A8DD, size: 0x8, addend: 0x0, symName: '__ZN91_$LT$pyo3..impl_..wrap..EmptyTupleConverter$LT$T$GT$$u20$as$u20$core..ops..deref..Deref$GT$5deref17h0f3d12535806acbaE', symObjAddr: 0x5CC, symBinAddr: 0xC708, symSize: 0x14 }
  - { offset: 0x3A912, size: 0x8, addend: 0x0, symName: '__ZN91_$LT$pyo3..impl_..wrap..EmptyTupleConverter$LT$T$GT$$u20$as$u20$core..ops..deref..Deref$GT$5deref17h1013d5c60e41b534E', symObjAddr: 0x5E0, symBinAddr: 0xC71C, symSize: 0x14 }
  - { offset: 0x3A947, size: 0x8, addend: 0x0, symName: '__ZN91_$LT$pyo3..impl_..wrap..EmptyTupleConverter$LT$T$GT$$u20$as$u20$core..ops..deref..Deref$GT$5deref17h1532b802a76a34c4E', symObjAddr: 0x5F4, symBinAddr: 0xC730, symSize: 0x14 }
  - { offset: 0x3A97C, size: 0x8, addend: 0x0, symName: '__ZN91_$LT$pyo3..impl_..wrap..EmptyTupleConverter$LT$T$GT$$u20$as$u20$core..ops..deref..Deref$GT$5deref17h31508a3ed7f875ddE', symObjAddr: 0x608, symBinAddr: 0xC744, symSize: 0x14 }
  - { offset: 0x3A9B1, size: 0x8, addend: 0x0, symName: '__ZN91_$LT$pyo3..impl_..wrap..EmptyTupleConverter$LT$T$GT$$u20$as$u20$core..ops..deref..Deref$GT$5deref17h37b34524c42a2fcbE', symObjAddr: 0x61C, symBinAddr: 0xC758, symSize: 0x14 }
  - { offset: 0x3A9E6, size: 0x8, addend: 0x0, symName: '__ZN91_$LT$pyo3..impl_..wrap..EmptyTupleConverter$LT$T$GT$$u20$as$u20$core..ops..deref..Deref$GT$5deref17h8bce17eb9b2a0325E', symObjAddr: 0x630, symBinAddr: 0xC76C, symSize: 0x14 }
  - { offset: 0x3AA1B, size: 0x8, addend: 0x0, symName: '__ZN91_$LT$pyo3..impl_..wrap..EmptyTupleConverter$LT$T$GT$$u20$as$u20$core..ops..deref..Deref$GT$5deref17h9225ae61230c5bedE', symObjAddr: 0x644, symBinAddr: 0xC780, symSize: 0x14 }
  - { offset: 0x3AA50, size: 0x8, addend: 0x0, symName: '__ZN91_$LT$pyo3..impl_..wrap..EmptyTupleConverter$LT$T$GT$$u20$as$u20$core..ops..deref..Deref$GT$5deref17h992f31c87290b21cE', symObjAddr: 0x658, symBinAddr: 0xC794, symSize: 0x14 }
  - { offset: 0x3AA85, size: 0x8, addend: 0x0, symName: '__ZN91_$LT$pyo3..impl_..wrap..EmptyTupleConverter$LT$T$GT$$u20$as$u20$core..ops..deref..Deref$GT$5deref17hb239a6cc38dfacf8E', symObjAddr: 0x66C, symBinAddr: 0xC7A8, symSize: 0x14 }
  - { offset: 0x3AABA, size: 0x8, addend: 0x0, symName: '__ZN91_$LT$pyo3..impl_..wrap..EmptyTupleConverter$LT$T$GT$$u20$as$u20$core..ops..deref..Deref$GT$5deref17hc8b33bb8520a2dbbE', symObjAddr: 0x680, symBinAddr: 0xC7BC, symSize: 0x14 }
  - { offset: 0x3B063, size: 0x8, addend: 0x0, symName: '__ZN4pyo35impl_4wrap30IntoPyObjectConverter$LT$T$GT$4wrap17h2197d5731d880327E', symObjAddr: 0x0, symBinAddr: 0xC13C, symSize: 0x1C }
  - { offset: 0x3B267, size: 0x8, addend: 0x0, symName: '__ZN4pyo35impl_4wrap30IntoPyObjectConverter$LT$T$GT$4wrap17h48d2a0ad01fd5d30E', symObjAddr: 0x1C, symBinAddr: 0xC158, symSize: 0x34 }
  - { offset: 0x3B2AE, size: 0x8, addend: 0x0, symName: '__ZN4pyo35impl_4wrap30IntoPyObjectConverter$LT$T$GT$4wrap17h5fc52e6367cb4ec2E', symObjAddr: 0x50, symBinAddr: 0xC18C, symSize: 0x24 }
  - { offset: 0x3B2FB, size: 0x8, addend: 0x0, symName: '__ZN4pyo35impl_4wrap30IntoPyObjectConverter$LT$T$GT$4wrap17hcc49ca98e5393b63E', symObjAddr: 0x74, symBinAddr: 0xC1B0, symSize: 0x10 }
  - { offset: 0x3B341, size: 0x8, addend: 0x0, symName: '__ZN4pyo35impl_4wrap30IntoPyObjectConverter$LT$T$GT$4wrap17hd6e9e98b71b5f70bE', symObjAddr: 0x84, symBinAddr: 0xC1C0, symSize: 0x24 }
  - { offset: 0x3B387, size: 0x8, addend: 0x0, symName: '__ZN4pyo35impl_4wrap30IntoPyObjectConverter$LT$T$GT$4wrap17hfe94d96abb51f6f0E', symObjAddr: 0xA8, symBinAddr: 0xC1E4, symSize: 0x24 }
  - { offset: 0x3BA37, size: 0x8, addend: 0x0, symName: '__ZN4pyo35impl_4wrap62IntoPyObjectConverter$LT$core..result..Result$LT$T$C$E$GT$$GT$12map_into_ptr17h066cc7c8d0cdb51cE', symObjAddr: 0xCC, symBinAddr: 0xC208, symSize: 0x54 }
  - { offset: 0x3BAA2, size: 0x8, addend: 0x0, symName: '__ZN4pyo35impl_4wrap62IntoPyObjectConverter$LT$core..result..Result$LT$T$C$E$GT$$GT$12map_into_ptr17h0907ca89aea32857E', symObjAddr: 0x120, symBinAddr: 0xC25C, symSize: 0x54 }
  - { offset: 0x3BB0D, size: 0x8, addend: 0x0, symName: '__ZN4pyo35impl_4wrap62IntoPyObjectConverter$LT$core..result..Result$LT$T$C$E$GT$$GT$12map_into_ptr17h3ba92f973c3dd877E', symObjAddr: 0x174, symBinAddr: 0xC2B0, symSize: 0x54 }
  - { offset: 0x3BB78, size: 0x8, addend: 0x0, symName: '__ZN4pyo35impl_4wrap62IntoPyObjectConverter$LT$core..result..Result$LT$T$C$E$GT$$GT$12map_into_ptr17h6233fe3660a735a6E', symObjAddr: 0x1C8, symBinAddr: 0xC304, symSize: 0x54 }
  - { offset: 0x3BBE3, size: 0x8, addend: 0x0, symName: '__ZN4pyo35impl_4wrap62IntoPyObjectConverter$LT$core..result..Result$LT$T$C$E$GT$$GT$12map_into_ptr17hbe16050f07583589E', symObjAddr: 0x21C, symBinAddr: 0xC358, symSize: 0x54 }
  - { offset: 0x3BC41, size: 0x8, addend: 0x0, symName: '__ZN4pyo35impl_4wrap62IntoPyObjectConverter$LT$core..result..Result$LT$T$C$E$GT$$GT$4wrap17h01171d1e3bfb986cE', symObjAddr: 0x378, symBinAddr: 0xC4B4, symSize: 0x34 }
  - { offset: 0x3BC84, size: 0x8, addend: 0x0, symName: '__ZN4pyo35impl_4wrap62IntoPyObjectConverter$LT$core..result..Result$LT$T$C$E$GT$$GT$4wrap17h12ae2a70d62e53caE', symObjAddr: 0x3AC, symBinAddr: 0xC4E8, symSize: 0x34 }
  - { offset: 0x3BEC6, size: 0x8, addend: 0x0, symName: '__ZN43_$LT$T$u20$as$u20$inventory..ErasedNode$GT$6submit17ha662f9609e06e344E', symObjAddr: 0x0, symBinAddr: 0xC7D0, symSize: 0x30 }
  - { offset: 0x3C2B6, size: 0x8, addend: 0x0, symName: '__ZN43_$LT$T$u20$as$u20$inventory..ErasedNode$GT$6submit17ha662f9609e06e344E', symObjAddr: 0x0, symBinAddr: 0xC7D0, symSize: 0x30 }
  - { offset: 0x3C2F5, size: 0x8, addend: 0x0, symName: '__ZN43_$LT$T$u20$as$u20$inventory..ErasedNode$GT$6submit17he01ae386a557acd1E', symObjAddr: 0x30, symBinAddr: 0xC800, symSize: 0x30 }
  - { offset: 0x3CB4C, size: 0x8, addend: 0x0, symName: __ZN5alloc3fmt6format17h002d6d191f6b5d57E, symObjAddr: 0x0, symBinAddr: 0xC830, symSize: 0xD8 }
  - { offset: 0x3D064, size: 0x8, addend: 0x0, symName: __ZN5alloc3fmt6format17h002d6d191f6b5d57E, symObjAddr: 0x0, symBinAddr: 0xC830, symSize: 0xD8 }
  - { offset: 0x3D214, size: 0x8, addend: 0x0, symName: __ZN4core9core_arch10arm_shared4neon9generated18vreinterpret_s8_u817h443533a67797063fE, symObjAddr: 0x0, symBinAddr: 0xC908, symSize: 0xC }
  - { offset: 0x3D23A, size: 0x8, addend: 0x0, symName: __ZN4core9core_arch10arm_shared4neon9generated18vreinterpret_s8_u817h443533a67797063fE, symObjAddr: 0x0, symBinAddr: 0xC908, symSize: 0xC }
  - { offset: 0x3D268, size: 0x8, addend: 0x0, symName: __ZN4core9core_arch10arm_shared4neon9generated19vreinterpret_u64_u817h14342b17035970b2E, symObjAddr: 0xC, symBinAddr: 0xC914, symSize: 0xC }
  - { offset: 0x3D296, size: 0x8, addend: 0x0, symName: __ZN4core9core_arch10arm_shared4neon9generated7vceq_u817h93eb7e8ee4c568e9E, symObjAddr: 0x18, symBinAddr: 0xC920, symSize: 0x14 }
  - { offset: 0x3D2D3, size: 0x8, addend: 0x0, symName: __ZN4core9core_arch10arm_shared4neon9generated7vorr_u817h93d1ae1ff61ea0dbE, symObjAddr: 0x2C, symBinAddr: 0xC934, symSize: 0x14 }
  - { offset: 0x3D310, size: 0x8, addend: 0x0, symName: __ZN4core9core_arch10arm_shared4neon9generated9vdup_n_u817h62e4c73337f4ac8dE, symObjAddr: 0x40, symBinAddr: 0xC948, symSize: 0x2C }
  - { offset: 0x3D47E, size: 0x8, addend: 0x0, symName: '__ZN69_$LT$std..hash..random..RandomState$u20$as$u20$core..clone..Clone$GT$5clone17h3ccde9a2ba40a6fcE', symObjAddr: 0x0, symBinAddr: 0xC974, symSize: 0x20 }
  - { offset: 0x3D49F, size: 0x8, addend: 0x0, symName: '__ZN69_$LT$std..hash..random..RandomState$u20$as$u20$core..clone..Clone$GT$5clone17h3ccde9a2ba40a6fcE', symObjAddr: 0x0, symBinAddr: 0xC974, symSize: 0x20 }
  - { offset: 0x3D4D1, size: 0x8, addend: 0x0, symName: '__ZN71_$LT$std..hash..random..DefaultHasher$u20$as$u20$core..hash..Hasher$GT$6finish17h0a376eb9c00d236aE', symObjAddr: 0x20, symBinAddr: 0xC994, symSize: 0x20 }
  - { offset: 0x3D51F, size: 0x8, addend: 0x0, symName: '__ZN74_$LT$std..hash..random..RandomState$u20$as$u20$core..hash..BuildHasher$GT$12build_hasher17h9e5ec393437e1c03E', symObjAddr: 0x40, symBinAddr: 0xC9B4, symSize: 0xCC }
  - { offset: 0x3D7FA, size: 0x8, addend: 0x0, symName: __ZN9rust_core8triangle6common6common28common_neighbors_sorted_list9_PYO3_DEF17h61674f3cc56e5dceE, symObjAddr: 0x48, symBinAddr: 0xD05D8, symSize: 0x0 }
  - { offset: 0x3ED89, size: 0x8, addend: 0x0, symName: '__ZN103_$LT$pyo3..instance..Bound$LT$pyo3..types..any..PyAny$GT$$u20$as$u20$pyo3..types..any..PyAnyMethods$GT$7extract17h01a375a0c6be6184E', symObjAddr: 0x0, symBinAddr: 0xCA80, symSize: 0x30 }
  - { offset: 0x3F5BB, size: 0x8, addend: 0x0, symName: '__ZN42_$LT$$RF$T$u20$as$u20$core..fmt..Debug$GT$3fmt17h6d494a49ff3dc007E', symObjAddr: 0x490, symBinAddr: 0xCF10, symSize: 0x30 }
  - { offset: 0x3F6BB, size: 0x8, addend: 0x0, symName: '__ZN4core5array4iter94_$LT$impl$u20$core..iter..traits..collect..IntoIterator$u20$for$u20$$u5b$T$u3b$$u20$N$u5d$$GT$9into_iter17h120496089be7c946E', symObjAddr: 0x4C0, symBinAddr: 0xCF40, symSize: 0x88 }
  - { offset: 0x40633, size: 0x8, addend: 0x0, symName: '__ZN4core5slice29_$LT$impl$u20$$u5b$T$u5d$$GT$4iter17h78bb9aae1d95e77eE', symObjAddr: 0x548, symBinAddr: 0xCFC8, symSize: 0x28 }
  - { offset: 0x40C9F, size: 0x8, addend: 0x0, symName: '__ZN13pyo3_stub_gen9stub_type4pyo397_$LT$impl$u20$pyo3_stub_gen..stub_type..PyStubType$u20$for$u20$pyo3..instance..Bound$LT$T$GT$$GT$10type_input17h5316078ad648c15fE', symObjAddr: 0x47C, symBinAddr: 0xCEFC, symSize: 0x14 }
  - { offset: 0x40E10, size: 0x8, addend: 0x0, symName: '__ZN103_$LT$pyo3..instance..Bound$LT$pyo3..types..any..PyAny$GT$$u20$as$u20$pyo3..types..any..PyAnyMethods$GT$7extract17h01a375a0c6be6184E', symObjAddr: 0x0, symBinAddr: 0xCA80, symSize: 0x30 }
  - { offset: 0x40E47, size: 0x8, addend: 0x0, symName: '__ZN103_$LT$pyo3..instance..Bound$LT$pyo3..types..any..PyAny$GT$$u20$as$u20$pyo3..types..any..PyAnyMethods$GT$7extract17h4f118f0975e0dd76E', symObjAddr: 0x30, symBinAddr: 0xCAB0, symSize: 0x30 }
  - { offset: 0x40E7E, size: 0x8, addend: 0x0, symName: '__ZN103_$LT$pyo3..instance..Bound$LT$pyo3..types..any..PyAny$GT$$u20$as$u20$pyo3..types..any..PyAnyMethods$GT$7extract17hd35455f6eb7fdd78E', symObjAddr: 0x60, symBinAddr: 0xCAE0, symSize: 0x30 }
  - { offset: 0x40EB5, size: 0x8, addend: 0x0, symName: '__ZN103_$LT$pyo3..instance..Bound$LT$pyo3..types..any..PyAny$GT$$u20$as$u20$pyo3..types..any..PyAnyMethods$GT$7extract17hd64079807b492833E', symObjAddr: 0x90, symBinAddr: 0xCB10, symSize: 0x30 }
  - { offset: 0x40EEC, size: 0x8, addend: 0x0, symName: '__ZN103_$LT$pyo3..instance..Bound$LT$pyo3..types..any..PyAny$GT$$u20$as$u20$pyo3..types..any..PyAnyMethods$GT$7getattr17hcb0b956dd7660ca4E', symObjAddr: 0xC0, symBinAddr: 0xCB40, symSize: 0x15C }
  - { offset: 0x40F72, size: 0x8, addend: 0x0, symName: '__ZN103_$LT$pyo3..instance..Bound$LT$pyo3..types..any..PyAny$GT$$u20$as$u20$pyo3..types..any..PyAnyMethods$GT$8set_item17h3cc74382c69c97ddE', symObjAddr: 0x21C, symBinAddr: 0xCC9C, symSize: 0x260 }
  - { offset: 0x41291, size: 0x8, addend: 0x0, symName: '__ZN4pyo38instance14Bound$LT$T$GT$4cast5inner17hab15649c6f6470c4E', symObjAddr: 0x61C, symBinAddr: 0xD09C, symSize: 0x84 }
  - { offset: 0x413F7, size: 0x8, addend: 0x0, symName: '__ZN4pyo38instance17Borrowed$LT$T$GT$4cast5inner17h4abbf74f797dabf0E', symObjAddr: 0x7A8, symBinAddr: 0xD228, symSize: 0x7C }
  - { offset: 0x41435, size: 0x8, addend: 0x0, symName: '__ZN67_$LT$pyo3..instance..Bound$LT$T$GT$$u20$as$u20$core..fmt..Debug$GT$3fmt17hafcd8abd098b8b78E', symObjAddr: 0x850, symBinAddr: 0xD2D0, symSize: 0x54 }
  - { offset: 0x4149F, size: 0x8, addend: 0x0, symName: '__ZN74_$LT$pyo3..instance..Bound$LT$T$GT$$u20$as$u20$core..ops..deref..Deref$GT$5deref17h6b3827df0f5888a6E', symObjAddr: 0x8A4, symBinAddr: 0xD324, symSize: 0x24 }
  - { offset: 0x414DC, size: 0x8, addend: 0x0, symName: '__ZN77_$LT$pyo3..instance..Borrowed$LT$T$GT$$u20$as$u20$core..ops..deref..Deref$GT$5deref17h65bdbd372d461220E', symObjAddr: 0x8C8, symBinAddr: 0xD348, symSize: 0x28 }
  - { offset: 0x41519, size: 0x8, addend: 0x0, symName: '__ZN81_$LT$pyo3..instance..Bound$LT$T$GT$$u20$as$u20$pyo3..conversion..FromPyObject$GT$7extract17h6a6bebe88bd5ab7aE', symObjAddr: 0x918, symBinAddr: 0xD398, symSize: 0x3C }
  - { offset: 0x4175A, size: 0x8, addend: 0x0, symName: '__ZN80_$LT$T$u20$as$u20$pyo3..impl_..extract_argument..PyFunctionArgument$LT$_$GT$$GT$7extract17hea69781c828c50e1E', symObjAddr: 0x8F0, symBinAddr: 0xD370, symSize: 0x28 }
  - { offset: 0x41C82, size: 0x8, addend: 0x0, symName: '__ZN4pyo38instance11Py$LT$T$GT$6as_ptr17hf6827123f158f86bE', symObjAddr: 0x570, symBinAddr: 0xCFF0, symSize: 0x1C }
  - { offset: 0x41CAE, size: 0x8, addend: 0x0, symName: '__ZN4pyo38instance11Py$LT$T$GT$8into_any17h45d7b420c3103a60E', symObjAddr: 0x58C, symBinAddr: 0xD00C, symSize: 0x30 }
  - { offset: 0x41CDA, size: 0x8, addend: 0x0, symName: '__ZN4pyo38instance11Py$LT$T$GT$8into_ptr17h45187fa63dc8975aE', symObjAddr: 0x5BC, symBinAddr: 0xD03C, symSize: 0x30 }
  - { offset: 0x41D2D, size: 0x8, addend: 0x0, symName: '__ZN4pyo38instance14Bound$LT$T$GT$4cast17h69d6e0d81516a192E', symObjAddr: 0x5EC, symBinAddr: 0xD06C, symSize: 0x30 }
  - { offset: 0x41D6E, size: 0x8, addend: 0x0, symName: '__ZN4pyo38instance14Bound$LT$T$GT$6as_ptr17hff554e1831cbee1eE', symObjAddr: 0x6A0, symBinAddr: 0xD120, symSize: 0x2C }
  - { offset: 0x41D9A, size: 0x8, addend: 0x0, symName: '__ZN4pyo38instance14Bound$LT$T$GT$6unbind17h29d88be8cf382ac5E', symObjAddr: 0x6CC, symBinAddr: 0xD14C, symSize: 0x3C }
  - { offset: 0x41DC6, size: 0x8, addend: 0x0, symName: '__ZN4pyo38instance14Bound$LT$T$GT$8into_any17h0b59b1f9c9db4ca9E', symObjAddr: 0x708, symBinAddr: 0xD188, symSize: 0x30 }
  - { offset: 0x41DF2, size: 0x8, addend: 0x0, symName: '__ZN4pyo38instance14Bound$LT$T$GT$8into_ptr17h70d85d8b78d02dadE', symObjAddr: 0x738, symBinAddr: 0xD1B8, symSize: 0x40 }
  - { offset: 0x41E2B, size: 0x8, addend: 0x0, symName: '__ZN4pyo38instance17Borrowed$LT$T$GT$4cast17h71c8e1d89fb913eaE', symObjAddr: 0x778, symBinAddr: 0xD1F8, symSize: 0x30 }
  - { offset: 0x41E60, size: 0x8, addend: 0x0, symName: '__ZN4pyo38instance17Borrowed$LT$T$GT$8to_owned17h20a7aabc4e1f5767E', symObjAddr: 0x824, symBinAddr: 0xD2A4, symSize: 0x2C }
  - { offset: 0x425BD, size: 0x8, addend: 0x0, symName: __ZN9rust_core8triangle8triangle15__pyo3_pymodule17hd67a84d5c8a694adE, symObjAddr: 0x0, symBinAddr: 0xD3D4, symSize: 0x230 }
  - { offset: 0x425E6, size: 0x8, addend: 0x0, symName: __ZN9rust_core8triangle8triangle9_PYO3_DEF17h691d1566e3e9b7efE, symObjAddr: 0x268, symBinAddr: 0xD05F8, symSize: 0x0 }
  - { offset: 0x425F3, size: 0x8, addend: 0x0, symName: __ZN9rust_core8triangle8triangle15__pyo3_pymodule17hd67a84d5c8a694adE, symObjAddr: 0x0, symBinAddr: 0xD3D4, symSize: 0x230 }
  - { offset: 0x44B41, size: 0x8, addend: 0x0, symName: __ZN9rust_core6motifs7motifs314count_motifs_317h65e5d6176cf65786E, symObjAddr: 0x0, symBinAddr: 0xD604, symSize: 0x28 }
  - { offset: 0x44B6F, size: 0x8, addend: 0x0, symName: __ZN9rust_core6motifs7motifs31_11__INVENTORY17hcd65a52d6f7f462eE, symObjAddr: 0x2E0, symBinAddr: 0xD0688, symSize: 0x0 }
  - { offset: 0x44B7C, size: 0x8, addend: 0x0, symName: __ZN9rust_core6motifs7motifs31_6__ctor17hcdce852604134df6E, symObjAddr: 0x28, symBinAddr: 0xD62C, symSize: 0x34 }
  - { offset: 0x44B97, size: 0x8, addend: 0x0, symName: __ZN9rust_core6motifs7motifs314count_motifs_317h65e5d6176cf65786E, symObjAddr: 0x0, symBinAddr: 0xD604, symSize: 0x28 }
  - { offset: 0x44BB0, size: 0x8, addend: 0x0, symName: __ZN9rust_core6motifs7motifs327__pyfunction_count_motifs_317h7d5373a1474791dcE, symObjAddr: 0x5C, symBinAddr: 0xD660, symSize: 0xD8 }
  - { offset: 0x44C5B, size: 0x8, addend: 0x0, symName: '__ZN9rust_core6motifs7motifs369_$LT$impl$u20$rust_core..motifs..motifs3..count_motifs_3..MakeDef$GT$9_PYO3_DEF10trampoline17hf9a1bf2c03bae494E', symObjAddr: 0x134, symBinAddr: 0xD738, symSize: 0x44 }
  - { offset: 0x46A80, size: 0x8, addend: 0x0, symName: '__ZN4pyo311conversions3std6string86_$LT$impl$u20$pyo3..conversion..IntoPyObject$u20$for$u20$$RF$alloc..string..String$GT$13into_pyobject17hc08166742d93150bE', symObjAddr: 0x0, symBinAddr: 0xD77C, symSize: 0x28 }
  - { offset: 0x47D7A, size: 0x8, addend: 0x0, symName: '__ZN4pyo311conversions3std6string86_$LT$impl$u20$pyo3..conversion..IntoPyObject$u20$for$u20$$RF$alloc..string..String$GT$13into_pyobject17hc08166742d93150bE', symObjAddr: 0x0, symBinAddr: 0xD77C, symSize: 0x28 }
  - { offset: 0x480A8, size: 0x8, addend: 0x0, symName: '__ZN65_$LT$alloc..string..String$u20$as$u20$core..ops..deref..Deref$GT$5deref17h9441152f87996285E', symObjAddr: 0x48, symBinAddr: 0xD7C4, symSize: 0x20 }
  - { offset: 0x4827B, size: 0x8, addend: 0x0, symName: __ZN5alloc6string6String6as_str17hfb7609a616309729E, symObjAddr: 0x28, symBinAddr: 0xD7A4, symSize: 0x20 }
  - { offset: 0x48824, size: 0x8, addend: 0x0, symName: __ZN4pyo311conversions3std3vec16extract_sequence17h9c5b58a335aebf8aE, symObjAddr: 0x0, symBinAddr: 0xD7E4, symSize: 0x440 }
  - { offset: 0x49EE0, size: 0x8, addend: 0x0, symName: __ZN4pyo311conversions3std3vec16extract_sequence17h9c5b58a335aebf8aE, symObjAddr: 0x0, symBinAddr: 0xD7E4, symSize: 0x440 }
  - { offset: 0x4AAED, size: 0x8, addend: 0x0, symName: __ZN9rust_core8triangle6kclist6kclist15__pyo3_pymodule17h01ceaa32164dbadfE, symObjAddr: 0x0, symBinAddr: 0xDC24, symSize: 0x134 }
  - { offset: 0x4AB20, size: 0x8, addend: 0x0, symName: __ZN9rust_core8triangle6kclist6kclist1_11__INVENTORY17h19b9f44419c96838E, symObjAddr: 0xC68, symBinAddr: 0xD06A0, symSize: 0x0 }
  - { offset: 0x4AB3A, size: 0x8, addend: 0x0, symName: __ZN9rust_core8triangle6kclist6kclist1_11__INVENTORY17hdfaf14aab028eb70E, symObjAddr: 0xC80, symBinAddr: 0xD06B8, symSize: 0x0 }
  - { offset: 0x4AB47, size: 0x8, addend: 0x0, symName: __ZN9rust_core8triangle6kclist6kclist1_6__ctor17h32fe23358c01eb04E, symObjAddr: 0x3A0, symBinAddr: 0xDFC4, symSize: 0x34 }
  - { offset: 0x4AB61, size: 0x8, addend: 0x0, symName: __ZN9rust_core8triangle6kclist6kclist1_6__ctor17hc74154b3cf3f61a1E, symObjAddr: 0x3D4, symBinAddr: 0xDFF8, symSize: 0x34 }
  - { offset: 0x4AB89, size: 0x8, addend: 0x0, symName: __ZN9rust_core8triangle6kclist6kclist9_PYO3_DEF17hff67382e2da482cdE, symObjAddr: 0xC98, symBinAddr: 0xD06D0, symSize: 0x0 }
  - { offset: 0x4AB96, size: 0x8, addend: 0x0, symName: __ZN9rust_core8triangle6kclist6kclist15__pyo3_pymodule17h01ceaa32164dbadfE, symObjAddr: 0x0, symBinAddr: 0xDC24, symSize: 0x134 }
  - { offset: 0x4ABFF, size: 0x8, addend: 0x0, symName: __ZN9rust_core8triangle6kclist6kclist19__pyfunction_kclist17hee44ccca69d4eb3eE, symObjAddr: 0x134, symBinAddr: 0xDD58, symSize: 0x26C }
  - { offset: 0x4AD80, size: 0x8, addend: 0x0, symName: __ZN9rust_core8triangle6kclist6kclist22__pyfunction_kclist_py17ha73f7ba83630d706E, symObjAddr: 0x408, symBinAddr: 0xE02C, symSize: 0x2E0 }
  - { offset: 0x4AEF9, size: 0x8, addend: 0x0, symName: __ZN9rust_core8triangle6kclist6kclist6kclist17h525e9bb6895b26f5E, symObjAddr: 0x6E8, symBinAddr: 0xE30C, symSize: 0x74 }
  - { offset: 0x4AF30, size: 0x8, addend: 0x0, symName: '__ZN9rust_core8triangle6kclist6kclist70_$LT$impl$u20$rust_core..triangle..kclist..kclist..kclist..MakeDef$GT$9_PYO3_DEF10trampoline17hacf905d312b99d42E', symObjAddr: 0x75C, symBinAddr: 0xE380, symSize: 0x50 }
  - { offset: 0x4AF92, size: 0x8, addend: 0x0, symName: '__ZN9rust_core8triangle6kclist6kclist73_$LT$impl$u20$rust_core..triangle..kclist..kclist..kclist_py..MakeDef$GT$9_PYO3_DEF10trampoline17h8931a12c3e25407bE', symObjAddr: 0x7AC, symBinAddr: 0xE3D0, symSize: 0x50 }
  - { offset: 0x4AFEA, size: 0x8, addend: 0x0, symName: __ZN9rust_core8triangle6kclist6kclist9kclist_py17hb5ce1ee91890ec49E, symObjAddr: 0x7FC, symBinAddr: 0xE420, symSize: 0x24 }
  - { offset: 0x4DA4F, size: 0x8, addend: 0x0, symName: '__ZN52_$LT$char$u20$as$u20$core..str..pattern..Pattern$GT$13into_searcher17h61e9903bc6932244E', symObjAddr: 0x0, symBinAddr: 0xE444, symSize: 0x114 }
  - { offset: 0x4DB0E, size: 0x8, addend: 0x0, symName: '__ZN52_$LT$char$u20$as$u20$core..str..pattern..Pattern$GT$13into_searcher17h61e9903bc6932244E', symObjAddr: 0x0, symBinAddr: 0xE444, symSize: 0x114 }
  - { offset: 0x4DC93, size: 0x8, addend: 0x0, symName: '__ZN81_$LT$core..str..pattern..CharSearcher$u20$as$u20$core..str..pattern..Searcher$GT$10next_match17h1e2f13689cf2ea74E', symObjAddr: 0x114, symBinAddr: 0xE558, symSize: 0x37C }
  - { offset: 0x4E999, size: 0x8, addend: 0x0, symName: __ZN4pyo36marker6Python15assume_attached17hafeb2c18b44290f5E, symObjAddr: 0x0, symBinAddr: 0xE8D4, symSize: 0x4 }
  - { offset: 0x4EAD5, size: 0x8, addend: 0x0, symName: __ZN4pyo36marker6Python15assume_attached17hafeb2c18b44290f5E, symObjAddr: 0x0, symBinAddr: 0xE8D4, symSize: 0x4 }
  - { offset: 0x4EB06, size: 0x8, addend: 0x0, symName: _PyInit_core, symObjAddr: 0x0, symBinAddr: 0xE8D8, symSize: 0x34 }
  - { offset: 0x4EB2A, size: 0x8, addend: 0x0, symName: __ZN9rust_core4core9_PYO3_DEF17hc4fe1376c1a63a04E, symObjAddr: 0x2D8, symBinAddr: 0xD0760, symSize: 0x0 }
  - { offset: 0x4EB37, size: 0x8, addend: 0x0, symName: _PyInit_core, symObjAddr: 0x0, symBinAddr: 0xE8D8, symSize: 0x34 }
  - { offset: 0x4EB54, size: 0x8, addend: 0x0, symName: __ZN9rust_core4core15__pyo3_pymodule17h2b5ccda1580ef656E, symObjAddr: 0x34, symBinAddr: 0xE90C, symSize: 0x1A8 }
  - { offset: 0x4EBDB, size: 0x8, addend: 0x0, symName: __ZN9rust_core4core4init17h6758b491ba81d76aE, symObjAddr: 0x1DC, symBinAddr: 0xEAB4, symSize: 0xA8 }
  - { offset: 0x510CE, size: 0x8, addend: 0x0, symName: __ZN9rust_core8triangle6common6common13sort_adj_list17h8b649637a12bf7fcE, symObjAddr: 0x0, symBinAddr: 0xEB5C, symSize: 0x98 }
  - { offset: 0x51101, size: 0x8, addend: 0x0, symName: __ZN9rust_core8triangle6common6common1_11__INVENTORY17h0926c3c667b509a8E, symObjAddr: 0x2870, symBinAddr: 0xD07F0, symSize: 0x0 }
  - { offset: 0x5111B, size: 0x8, addend: 0x0, symName: __ZN9rust_core8triangle6common6common1_11__INVENTORY17h74038b0527799213E, symObjAddr: 0x2888, symBinAddr: 0xD0808, symSize: 0x0 }
  - { offset: 0x51135, size: 0x8, addend: 0x0, symName: __ZN9rust_core8triangle6common6common1_11__INVENTORY17hd5a040c3ca8eecbcE, symObjAddr: 0x28A0, symBinAddr: 0xD0820, symSize: 0x0 }
  - { offset: 0x5114F, size: 0x8, addend: 0x0, symName: __ZN9rust_core8triangle6common6common1_11__INVENTORY17hea9b2576fff63338E, symObjAddr: 0x28B8, symBinAddr: 0xD0838, symSize: 0x0 }
  - { offset: 0x51169, size: 0x8, addend: 0x0, symName: __ZN9rust_core8triangle6common6common1_11__INVENTORY17heb5cab29599fd787E, symObjAddr: 0x28D0, symBinAddr: 0xD0850, symSize: 0x0 }
  - { offset: 0x51183, size: 0x8, addend: 0x0, symName: __ZN9rust_core8triangle6common6common1_11__INVENTORY17hfd2d07f805c5dc6eE, symObjAddr: 0x28E8, symBinAddr: 0xD0868, symSize: 0x0 }
  - { offset: 0x51190, size: 0x8, addend: 0x0, symName: __ZN9rust_core8triangle6common6common1_6__ctor17h012c18e9f59950b1E, symObjAddr: 0x788, symBinAddr: 0xF2E4, symSize: 0x34 }
  - { offset: 0x511AA, size: 0x8, addend: 0x0, symName: __ZN9rust_core8triangle6common6common1_6__ctor17h0cb4a901979d70dcE, symObjAddr: 0x7BC, symBinAddr: 0xF318, symSize: 0x34 }
  - { offset: 0x511C4, size: 0x8, addend: 0x0, symName: __ZN9rust_core8triangle6common6common1_6__ctor17h3118fef288bf78a6E, symObjAddr: 0x7F0, symBinAddr: 0xF34C, symSize: 0x34 }
  - { offset: 0x511DE, size: 0x8, addend: 0x0, symName: __ZN9rust_core8triangle6common6common1_6__ctor17h40dc57483efe9ba9E, symObjAddr: 0x824, symBinAddr: 0xF380, symSize: 0x34 }
  - { offset: 0x511F8, size: 0x8, addend: 0x0, symName: __ZN9rust_core8triangle6common6common1_6__ctor17hadddf309289dfa31E, symObjAddr: 0x858, symBinAddr: 0xF3B4, symSize: 0x34 }
  - { offset: 0x51212, size: 0x8, addend: 0x0, symName: __ZN9rust_core8triangle6common6common1_6__ctor17he2d405327d821422E, symObjAddr: 0x88C, symBinAddr: 0xF3E8, symSize: 0x34 }
  - { offset: 0x5123A, size: 0x8, addend: 0x0, symName: __ZN9rust_core8triangle6common6common9_PYO3_DEF17h534e192764e2ee05E, symObjAddr: 0x2900, symBinAddr: 0xD0880, symSize: 0x0 }
  - { offset: 0x51247, size: 0x8, addend: 0x0, symName: __ZN9rust_core8triangle6common6common13sort_adj_list17h8b649637a12bf7fcE, symObjAddr: 0x0, symBinAddr: 0xEB5C, symSize: 0x98 }
  - { offset: 0x51289, size: 0x8, addend: 0x0, symName: __ZN9rust_core8triangle6common6common15__pyo3_pymodule17hc26eda5de62ddb81E, symObjAddr: 0x98, symBinAddr: 0xEBF4, symSize: 0x328 }
  - { offset: 0x5136A, size: 0x8, addend: 0x0, symName: __ZN9rust_core8triangle6common6common15degree_ordering17h56031c3d107748ddE, symObjAddr: 0x3C0, symBinAddr: 0xEF1C, symSize: 0x54 }
  - { offset: 0x51397, size: 0x8, addend: 0x0, symName: __ZN9rust_core8triangle6common6common16__pyfunction_bfs17h3d594878c8813bcbE, symObjAddr: 0x414, symBinAddr: 0xEF70, symSize: 0x300 }
  - { offset: 0x51510, size: 0x8, addend: 0x0, symName: __ZN9rust_core8triangle6common6common19degeneracy_ordering17h35879e5bfb1fa297E, symObjAddr: 0x714, symBinAddr: 0xF270, symSize: 0x74 }
  - { offset: 0x5153D, size: 0x8, addend: 0x0, symName: __ZN9rust_core8triangle6common6common22degeneracy_ordering_py17h4c6764f082f10bf8E, symObjAddr: 0x8C0, symBinAddr: 0xF41C, symSize: 0x24 }
  - { offset: 0x51569, size: 0x8, addend: 0x0, symName: __ZN9rust_core8triangle6common6common26__pyfunction_sort_adj_list17hd3c6a22a0a877bd2E, symObjAddr: 0x8E4, symBinAddr: 0xF440, symSize: 0x300 }
  - { offset: 0x516E2, size: 0x8, addend: 0x0, symName: __ZN9rust_core8triangle6common6common28__pyfunction_degree_ordering17h638cf999b0386e71E, symObjAddr: 0xBE4, symBinAddr: 0xF740, symSize: 0x30C }
  - { offset: 0x5185B, size: 0x8, addend: 0x0, symName: __ZN9rust_core8triangle6common6common28common_neighbors_sorted_list17h97ba9035b5a92edaE, symObjAddr: 0xEF0, symBinAddr: 0xFA4C, symSize: 0xBC }
  - { offset: 0x51897, size: 0x8, addend: 0x0, symName: __ZN9rust_core8triangle6common6common32__pyfunction_degeneracy_ordering17ha8ad03c2afc99f94E, symObjAddr: 0xFAC, symBinAddr: 0xFB08, symSize: 0x30C }
  - { offset: 0x51A10, size: 0x8, addend: 0x0, symName: __ZN9rust_core8triangle6common6common35__pyfunction_degeneracy_ordering_py17h0bc172956465de88E, symObjAddr: 0x12B8, symBinAddr: 0xFE14, symSize: 0x2E0 }
  - { offset: 0x51B89, size: 0x8, addend: 0x0, symName: __ZN9rust_core8triangle6common6common3bfs17h669c18b1bc5cfaa9E, symObjAddr: 0x1598, symBinAddr: 0x100F4, symSize: 0x54 }
  - { offset: 0x51BB6, size: 0x8, addend: 0x0, symName: __ZN9rust_core8triangle6common6common41__pyfunction_common_neighbors_sorted_list17h4974baa47fe1023bE, symObjAddr: 0x15EC, symBinAddr: 0x10148, symSize: 0x480 }
  - { offset: 0x51D8B, size: 0x8, addend: 0x0, symName: '__ZN9rust_core8triangle6common6common67_$LT$impl$u20$rust_core..triangle..common..common..bfs..MakeDef$GT$9_PYO3_DEF10trampoline17h09cc50a83de4dc32E', symObjAddr: 0x1A6C, symBinAddr: 0x105C8, symSize: 0x50 }
  - { offset: 0x51DED, size: 0x8, addend: 0x0, symName: '__ZN9rust_core8triangle6common6common77_$LT$impl$u20$rust_core..triangle..common..common..sort_adj_list..MakeDef$GT$9_PYO3_DEF10trampoline17h551df68f0efaf75dE', symObjAddr: 0x1ABC, symBinAddr: 0x10618, symSize: 0x50 }
  - { offset: 0x51E4F, size: 0x8, addend: 0x0, symName: '__ZN9rust_core8triangle6common6common79_$LT$impl$u20$rust_core..triangle..common..common..degree_ordering..MakeDef$GT$9_PYO3_DEF10trampoline17ha55ee2ed2b388453E', symObjAddr: 0x1B0C, symBinAddr: 0x10668, symSize: 0x50 }
  - { offset: 0x51EB1, size: 0x8, addend: 0x0, symName: '__ZN9rust_core8triangle6common6common83_$LT$impl$u20$rust_core..triangle..common..common..degeneracy_ordering..MakeDef$GT$9_PYO3_DEF10trampoline17h35c3bcbd01e91f66E', symObjAddr: 0x1B5C, symBinAddr: 0x106B8, symSize: 0x50 }
  - { offset: 0x51F13, size: 0x8, addend: 0x0, symName: '__ZN9rust_core8triangle6common6common86_$LT$impl$u20$rust_core..triangle..common..common..degeneracy_ordering_py..MakeDef$GT$9_PYO3_DEF10trampoline17h548497859b9660aaE', symObjAddr: 0x1BAC, symBinAddr: 0x10708, symSize: 0x50 }
  - { offset: 0x51F75, size: 0x8, addend: 0x0, symName: '__ZN9rust_core8triangle6common6common92_$LT$impl$u20$rust_core..triangle..common..common..common_neighbors_sorted_list..MakeDef$GT$9_PYO3_DEF10trampoline17h6910a00d4834ca68E', symObjAddr: 0x1BFC, symBinAddr: 0x10758, symSize: 0x50 }
  - { offset: 0x54C81, size: 0x8, addend: 0x0, symName: __ZN4core4iter6traits8iterator8Iterator9enumerate17h7f9b96ac97bbefb6E, symObjAddr: 0x0, symBinAddr: 0x107A8, symSize: 0x38 }
  - { offset: 0x55511, size: 0x8, addend: 0x0, symName: __ZN4core4iter6traits8iterator8Iterator9enumerate17h7f9b96ac97bbefb6E, symObjAddr: 0x0, symBinAddr: 0x107A8, symSize: 0x38 }
  - { offset: 0x555BF, size: 0x8, addend: 0x0, symName: '__ZN99_$LT$core..array..iter..IntoIter$LT$T$C$_$GT$$u20$as$u20$core..iter..traits..iterator..Iterator$GT$4next17h77b4e6d6b6eba683E', symObjAddr: 0x38, symBinAddr: 0x107E0, symSize: 0x2C }
  - { offset: 0x566B8, size: 0x8, addend: 0x0, symName: '__ZN52_$LT$Q$u20$as$u20$hashbrown..Equivalent$LT$K$GT$$GT$10equivalent17h79a0ee4532a99d00E', symObjAddr: 0x0, symBinAddr: 0x1080C, symSize: 0x40 }
  - { offset: 0x5674B, size: 0x8, addend: 0x0, symName: '__ZN52_$LT$Q$u20$as$u20$hashbrown..Equivalent$LT$K$GT$$GT$10equivalent17h79a0ee4532a99d00E', symObjAddr: 0x0, symBinAddr: 0x1080C, symSize: 0x40 }
  - { offset: 0x567CB, size: 0x8, addend: 0x0, symName: __ZN4core3ptr19copy_nonoverlapping18precondition_check17h2e5aede1f7402eaeE, symObjAddr: 0x0, symBinAddr: 0x1084C, symSize: 0x168 }
  - { offset: 0x56936, size: 0x8, addend: 0x0, symName: __ZN4core3ptr19copy_nonoverlapping18precondition_check17h2e5aede1f7402eaeE, symObjAddr: 0x0, symBinAddr: 0x1084C, symSize: 0x168 }
  - { offset: 0x56B5D, size: 0x8, addend: 0x0, symName: __ZN4core3ptr25swap_nonoverlapping_bytes17h7cb886dde556059cE, symObjAddr: 0x168, symBinAddr: 0x109B4, symSize: 0xD8 }
  - { offset: 0x56D06, size: 0x8, addend: 0x0, symName: __ZN4core3ptr25swap_nonoverlapping_bytes25swap_nonoverlapping_short17h1dd39ba990381642E, symObjAddr: 0x240, symBinAddr: 0x10A8C, symSize: 0x11C }
  - { offset: 0x56E98, size: 0x8, addend: 0x0, symName: __ZN4core3ptr4copy18precondition_check17hd38f393cbeb1ad1eE, symObjAddr: 0x35C, symBinAddr: 0x10BA8, symSize: 0x130 }
  - { offset: 0x571AE, size: 0x8, addend: 0x0, symName: '__ZN5alloc7raw_vec19RawVec$LT$T$C$A$GT$8grow_one17h8cee635e71e09bc4E', symObjAddr: 0x0, symBinAddr: 0x10CD8, symSize: 0x88 }
  - { offset: 0x577DB, size: 0x8, addend: 0x0, symName: '__ZN5alloc7raw_vec19RawVec$LT$T$C$A$GT$8grow_one17h8cee635e71e09bc4E', symObjAddr: 0x0, symBinAddr: 0x10CD8, symSize: 0x88 }
  - { offset: 0x578B2, size: 0x8, addend: 0x0, symName: '__ZN5alloc7raw_vec19RawVec$LT$T$C$A$GT$8grow_one17hcf2303f2ab65cfccE', symObjAddr: 0x88, symBinAddr: 0x10D60, symSize: 0x88 }
  - { offset: 0x5793B, size: 0x8, addend: 0x0, symName: '__ZN51_$LT$i32$u20$as$u20$alloc..vec..is_zero..IsZero$GT$7is_zero17h3afeda95089f595fE', symObjAddr: 0x0, symBinAddr: 0x10DE8, symSize: 0x20 }
  - { offset: 0x57972, size: 0x8, addend: 0x0, symName: '__ZN51_$LT$i32$u20$as$u20$alloc..vec..is_zero..IsZero$GT$7is_zero17h3afeda95089f595fE', symObjAddr: 0x0, symBinAddr: 0x10DE8, symSize: 0x20 }
  - { offset: 0x579CE, size: 0x8, addend: 0x0, symName: '__ZN52_$LT$bool$u20$as$u20$alloc..vec..is_zero..IsZero$GT$7is_zero17hb8984b593042fff4E', symObjAddr: 0x20, symBinAddr: 0x10E08, symSize: 0x20 }
  - { offset: 0x57A2A, size: 0x8, addend: 0x0, symName: '__ZN53_$LT$usize$u20$as$u20$alloc..vec..is_zero..IsZero$GT$7is_zero17had2d32780a595a6fE', symObjAddr: 0x40, symBinAddr: 0x10E28, symSize: 0x20 }
  - { offset: 0x57AC8, size: 0x8, addend: 0x0, symName: '__ZN9rust_core4core11__pyo3_init28_$u7b$$u7b$closure$u7d$$u7d$17hdb214deef9f188ceE', symObjAddr: 0x0, symBinAddr: 0x10E48, symSize: 0x30 }
  - { offset: 0x58F11, size: 0x8, addend: 0x0, symName: '__ZN9rust_core4core11__pyo3_init28_$u7b$$u7b$closure$u7d$$u7d$17hdb214deef9f188ceE', symObjAddr: 0x0, symBinAddr: 0x10E48, symSize: 0x30 }
  - { offset: 0x5980A, size: 0x8, addend: 0x0, symName: '__ZN4core4iter6traits8iterator8Iterator5count28_$u7b$$u7b$closure$u7d$$u7d$17ha214b18b82f3953dE', symObjAddr: 0x0, symBinAddr: 0x10E78, symSize: 0x68 }
  - { offset: 0x59859, size: 0x8, addend: 0x0, symName: '__ZN4core4iter6traits8iterator8Iterator5count28_$u7b$$u7b$closure$u7d$$u7d$17ha214b18b82f3953dE', symObjAddr: 0x0, symBinAddr: 0x10E78, symSize: 0x68 }
  - { offset: 0x598B4, size: 0x8, addend: 0x0, symName: '__ZN4core4iter6traits8iterator8Iterator6max_by4fold28_$u7b$$u7b$closure$u7d$$u7d$17hf0132b15ba93df19E', symObjAddr: 0x68, symBinAddr: 0x10EE0, symSize: 0x44 }
  - { offset: 0x59920, size: 0x8, addend: 0x0, symName: '__ZN4core4iter6traits8iterator8Iterator8for_each4call28_$u7b$$u7b$closure$u7d$$u7d$17h29c3bff8bf433593E', symObjAddr: 0xAC, symBinAddr: 0x10F24, symSize: 0x28 }
  - { offset: 0x59978, size: 0x8, addend: 0x0, symName: '__ZN4core4iter6traits8iterator8Iterator8for_each4call28_$u7b$$u7b$closure$u7d$$u7d$17h2f6ec58a64bc36caE', symObjAddr: 0xD4, symBinAddr: 0x10F4C, symSize: 0x28 }
  - { offset: 0x59EED, size: 0x8, addend: 0x0, symName: '__ZN9rust_core8triangle6common13sort_adj_list28_$u7b$$u7b$closure$u7d$$u7d$17h52351c07e9899a98E', symObjAddr: 0x0, symBinAddr: 0x10F74, symSize: 0x30 }
  - { offset: 0x5BD2A, size: 0x8, addend: 0x0, symName: '__ZN9rust_core8triangle6common13sort_adj_list28_$u7b$$u7b$closure$u7d$$u7d$17h52351c07e9899a98E', symObjAddr: 0x0, symBinAddr: 0x10F74, symSize: 0x30 }
  - { offset: 0x5BD6D, size: 0x8, addend: 0x0, symName: '__ZN9rust_core8triangle6common15degree_ordering28_$u7b$$u7b$closure$u7d$$u7d$17h455c02337597548eE', symObjAddr: 0x30, symBinAddr: 0x10FA4, symSize: 0x30 }
  - { offset: 0x5BDB0, size: 0x8, addend: 0x0, symName: '__ZN9rust_core8triangle6common19degeneracy_ordering28_$u7b$$u7b$closure$u7d$$u7d$17hf417d3fa6396751eE', symObjAddr: 0x60, symBinAddr: 0x10FD4, symSize: 0x30 }
  - { offset: 0x5BDF3, size: 0x8, addend: 0x0, symName: '__ZN9rust_core8triangle6common22degeneracy_ordering_py28_$u7b$$u7b$closure$u7d$$u7d$17hf14ed99e52c7f114E', symObjAddr: 0x90, symBinAddr: 0x11004, symSize: 0x114 }
  - { offset: 0x5C048, size: 0x8, addend: 0x0, symName: '__ZN79_$LT$pyo3_stub_gen..type_info..PyFunctionInfo$u20$as$u20$inventory..Collect$GT$8registry17hf462a44deae66fb3E', symObjAddr: 0x0, symBinAddr: 0x11118, symSize: 0xC }
  - { offset: 0x5C064, size: 0x8, addend: 0x0, symName: '__ZN79_$LT$pyo3_stub_gen..type_info..PyFunctionInfo$u20$as$u20$inventory..Collect$GT$8registry17hf462a44deae66fb3E', symObjAddr: 0x0, symBinAddr: 0x11118, symSize: 0xC }
  - { offset: 0x5C088, size: 0x8, addend: 0x0, symName: '__ZN86_$LT$pyo3_stub_gen..type_info..ReexportModuleMembers$u20$as$u20$inventory..Collect$GT$8registry17h054ec9a70cd41c0aE', symObjAddr: 0xC, symBinAddr: 0x11124, symSize: 0xC }
  - { offset: 0x5C260, size: 0x8, addend: 0x0, symName: __ZN9rust_core6motifs6motifs15__pyo3_pymodule17h317fef28ef2dcd2aE, symObjAddr: 0x0, symBinAddr: 0x11130, symSize: 0xB4 }
  - { offset: 0x5C289, size: 0x8, addend: 0x0, symName: __ZN9rust_core6motifs6motifs9_PYO3_DEF17hd31fbe3846529b54E, symObjAddr: 0xE8, symBinAddr: 0xD0910, symSize: 0x0 }
  - { offset: 0x5C296, size: 0x8, addend: 0x0, symName: __ZN9rust_core6motifs6motifs15__pyo3_pymodule17h317fef28ef2dcd2aE, symObjAddr: 0x0, symBinAddr: 0x11130, symSize: 0xB4 }
  - { offset: 0x5E78A, size: 0x8, addend: 0x0, symName: '__ZN4core3str21_$LT$impl$u20$str$GT$10split_once17h0b7e4cc11386a173E', symObjAddr: 0x0, symBinAddr: 0x111E4, symSize: 0x184 }
  - { offset: 0x5E8EB, size: 0x8, addend: 0x0, symName: '__ZN4core3str21_$LT$impl$u20$str$GT$10split_once17h0b7e4cc11386a173E', symObjAddr: 0x0, symBinAddr: 0x111E4, symSize: 0x184 }
  - { offset: 0x5F028, size: 0x8, addend: 0x0, symName: __ZN9hashbrown7control5group4neon5Group10match_full17hbe2b633823e4c18fE, symObjAddr: 0x0, symBinAddr: 0x11368, symSize: 0x68 }
  - { offset: 0x5F140, size: 0x8, addend: 0x0, symName: __ZN9hashbrown7control5group4neon5Group10match_full17hbe2b633823e4c18fE, symObjAddr: 0x0, symBinAddr: 0x11368, symSize: 0x68 }
  - { offset: 0x5F178, size: 0x8, addend: 0x0, symName: __ZN9hashbrown7control5group4neon5Group22match_empty_or_deleted17hf545aba34447ef4dE, symObjAddr: 0x68, symBinAddr: 0x113D0, symSize: 0x68 }
  - { offset: 0x5F1B0, size: 0x8, addend: 0x0, symName: __ZN9hashbrown7control5group4neon5Group44convert_special_to_empty_and_full_to_deleted17h304662da04cee6a3E, symObjAddr: 0xD0, symBinAddr: 0x11438, symSize: 0x88 }
  - { offset: 0x5F1E8, size: 0x8, addend: 0x0, symName: __ZN9hashbrown7control5group4neon5Group9match_tag17h5bd5807ec17cb34aE, symObjAddr: 0x158, symBinAddr: 0x114C0, symSize: 0x7C }
  - { offset: 0x5F254, size: 0x8, addend: 0x0, symName: __ZN4core5slice5index5range17he70385ef4e6ae787E, symObjAddr: 0x0, symBinAddr: 0x1153C, symSize: 0x218 }
  - { offset: 0x5F270, size: 0x8, addend: 0x0, symName: __ZN4core5slice5index5range17he70385ef4e6ae787E, symObjAddr: 0x0, symBinAddr: 0x1153C, symSize: 0x218 }
  - { offset: 0x5F400, size: 0x8, addend: 0x0, symName: '__ZN75_$LT$usize$u20$as$u20$core..slice..index..SliceIndex$LT$$u5b$T$u5d$$GT$$GT$5index17h39674c595e1e113bE', symObjAddr: 0x218, symBinAddr: 0x11754, symSize: 0x64 }
  - { offset: 0x5F446, size: 0x8, addend: 0x0, symName: '__ZN75_$LT$usize$u20$as$u20$core..slice..index..SliceIndex$LT$$u5b$T$u5d$$GT$$GT$5index17h4d53fff79c9dd199E', symObjAddr: 0x27C, symBinAddr: 0x117B8, symSize: 0x5C }
  - { offset: 0x5F48C, size: 0x8, addend: 0x0, symName: '__ZN75_$LT$usize$u20$as$u20$core..slice..index..SliceIndex$LT$$u5b$T$u5d$$GT$$GT$5index17h6da1f92f31100380E', symObjAddr: 0x2D8, symBinAddr: 0x11814, symSize: 0x64 }
  - { offset: 0x5F4D2, size: 0x8, addend: 0x0, symName: '__ZN75_$LT$usize$u20$as$u20$core..slice..index..SliceIndex$LT$$u5b$T$u5d$$GT$$GT$5index17ha41f477b06847362E', symObjAddr: 0x33C, symBinAddr: 0x11878, symSize: 0x5C }
  - { offset: 0x5F518, size: 0x8, addend: 0x0, symName: '__ZN75_$LT$usize$u20$as$u20$core..slice..index..SliceIndex$LT$$u5b$T$u5d$$GT$$GT$9index_mut17h1c9342951b06b197E', symObjAddr: 0x398, symBinAddr: 0x118D4, symSize: 0x5C }
  - { offset: 0x5F55E, size: 0x8, addend: 0x0, symName: '__ZN75_$LT$usize$u20$as$u20$core..slice..index..SliceIndex$LT$$u5b$T$u5d$$GT$$GT$9index_mut17h33d61c94a6526150E', symObjAddr: 0x3F4, symBinAddr: 0x11930, symSize: 0x64 }
  - { offset: 0x5F5A4, size: 0x8, addend: 0x0, symName: '__ZN75_$LT$usize$u20$as$u20$core..slice..index..SliceIndex$LT$$u5b$T$u5d$$GT$$GT$9index_mut17haf79cedbe850c135E', symObjAddr: 0x458, symBinAddr: 0x11994, symSize: 0x5C }
  - { offset: 0x5F5EA, size: 0x8, addend: 0x0, symName: '__ZN75_$LT$usize$u20$as$u20$core..slice..index..SliceIndex$LT$$u5b$T$u5d$$GT$$GT$9index_mut17hb0972fbd48cd0542E', symObjAddr: 0x4B4, symBinAddr: 0x119F0, symSize: 0x64 }
  - { offset: 0x5FB79, size: 0x8, addend: 0x0, symName: '__ZN5alloc3vec16Vec$LT$T$C$A$GT$7set_len18precondition_check17hb5cc012f5f51d7dbE', symObjAddr: 0x0, symBinAddr: 0x11A54, symSize: 0x60 }
  - { offset: 0x5FB9A, size: 0x8, addend: 0x0, symName: '__ZN5alloc3vec16Vec$LT$T$C$A$GT$7set_len18precondition_check17hb5cc012f5f51d7dbE', symObjAddr: 0x0, symBinAddr: 0x11A54, symSize: 0x60 }
  - { offset: 0x5FC44, size: 0x8, addend: 0x0, symName: '__ZN104_$LT$core..iter..adapters..copied..Copied$LT$I$GT$$u20$as$u20$core..iter..traits..iterator..Iterator$GT$4next17hcac34e148c62614eE', symObjAddr: 0x0, symBinAddr: 0x11AB4, symSize: 0x5C }
  - { offset: 0x60EF5, size: 0x8, addend: 0x0, symName: '__ZN104_$LT$core..iter..adapters..copied..Copied$LT$I$GT$$u20$as$u20$core..iter..traits..iterator..Iterator$GT$4next17hcac34e148c62614eE', symObjAddr: 0x0, symBinAddr: 0x11AB4, symSize: 0x5C }
  - { offset: 0x60F9A, size: 0x8, addend: 0x0, symName: '__ZN63_$LT$I$u20$as$u20$core..iter..traits..collect..IntoIterator$GT$9into_iter17haeb0f02b21fde6d2E', symObjAddr: 0x5C, symBinAddr: 0x11B10, symSize: 0x1C }
  - { offset: 0x61638, size: 0x8, addend: 0x0, symName: __ZN9rust_core8triangle4cetc1_6__ctor17h0ac4cd520150ee56E, symObjAddr: 0x0, symBinAddr: 0x11B2C, symSize: 0x34 }
  - { offset: 0x61666, size: 0x8, addend: 0x0, symName: __ZN9rust_core8triangle4cetc1_11__INVENTORY17h0303b4520c9f4138E, symObjAddr: 0xFD8, symBinAddr: 0xD09A0, symSize: 0x0 }
  - { offset: 0x61673, size: 0x8, addend: 0x0, symName: __ZN9rust_core8triangle4cetc1_6__ctor17h0ac4cd520150ee56E, symObjAddr: 0x0, symBinAddr: 0x11B2C, symSize: 0x34 }
  - { offset: 0x6168E, size: 0x8, addend: 0x0, symName: __ZN9rust_core8triangle4cetc4cetc17h407297a1d1c4e9e7E, symObjAddr: 0x34, symBinAddr: 0x11B60, symSize: 0x420 }
  - { offset: 0x617A4, size: 0x8, addend: 0x0, symName: __ZN9rust_core8triangle4cetc6cetc_s17ha1e81cc48df69162E, symObjAddr: 0x454, symBinAddr: 0x11F80, symSize: 0x7A4 }
  - { offset: 0x61F8B, size: 0x8, addend: 0x0, symName: __ZN9rust_core8triangle6common6common3bfs9_PYO3_DEF17ha49fc1355c71f0b6E, symObjAddr: 0x18, symBinAddr: 0xD09B8, symSize: 0x0 }
  - { offset: 0x63541, size: 0x8, addend: 0x0, symName: __ZN9rust_core8triangle6common6common19degeneracy_ordering9_PYO3_DEF17hea4a48af83b7d5daE, symObjAddr: 0x38, symBinAddr: 0xD09D8, symSize: 0x0 }
  - { offset: 0x64AD0, size: 0x8, addend: 0x0, symName: '__ZN83_$LT$hashbrown..map..HashMap$LT$K$C$V$C$S$C$A$GT$$u20$as$u20$core..clone..Clone$GT$5clone17h5aeb11062207712cE', symObjAddr: 0x0, symBinAddr: 0x12724, symSize: 0x84 }
  - { offset: 0x64AEC, size: 0x8, addend: 0x0, symName: '__ZN83_$LT$hashbrown..map..HashMap$LT$K$C$V$C$S$C$A$GT$$u20$as$u20$core..clone..Clone$GT$5clone17h5aeb11062207712cE', symObjAddr: 0x0, symBinAddr: 0x12724, symSize: 0x84 }
  - { offset: 0x64B5A, size: 0x8, addend: 0x0, symName: '__ZN92_$LT$hashbrown..map..Iter$LT$K$C$V$GT$$u20$as$u20$core..iter..traits..iterator..Iterator$GT$4fold28_$u7b$$u7b$closure$u7d$$u7d$17h8ad226b06de1ba54E', symObjAddr: 0x104, symBinAddr: 0x12828, symSize: 0xA8 }
  - { offset: 0x64C83, size: 0x8, addend: 0x0, symName: '__ZN92_$LT$hashbrown..map..Iter$LT$K$C$V$GT$$u20$as$u20$core..iter..traits..iterator..Iterator$GT$4fold17h5e086583f76a3b02E', symObjAddr: 0x84, symBinAddr: 0x127A8, symSize: 0x80 }
  - { offset: 0x64D28, size: 0x8, addend: 0x0, symName: '__ZN92_$LT$hashbrown..map..Iter$LT$K$C$V$GT$$u20$as$u20$core..iter..traits..iterator..Iterator$GT$4next17h0f226ef924ec3f4eE', symObjAddr: 0x1AC, symBinAddr: 0x128D0, symSize: 0xF0 }
  - { offset: 0x64E61, size: 0x8, addend: 0x0, symName: '__ZN92_$LT$hashbrown..map..Keys$LT$K$C$V$GT$$u20$as$u20$core..iter..traits..iterator..Iterator$GT$4fold28_$u7b$$u7b$closure$u7d$$u7d$17habc029b7af7691b8E', symObjAddr: 0x320, symBinAddr: 0x12A44, symSize: 0x40 }
  - { offset: 0x64EEF, size: 0x8, addend: 0x0, symName: '__ZN92_$LT$hashbrown..map..Keys$LT$K$C$V$GT$$u20$as$u20$core..iter..traits..iterator..Iterator$GT$4fold17hf75c5e70fc6a2887E', symObjAddr: 0x29C, symBinAddr: 0x129C0, symSize: 0x84 }
  - { offset: 0x650F7, size: 0x8, addend: 0x0, symName: '__ZN9hashbrown3map11make_hasher28_$u7b$$u7b$closure$u7d$$u7d$17h89b554d4c02ac96aE', symObjAddr: 0x360, symBinAddr: 0x12A84, symSize: 0x3C }
  - { offset: 0x65179, size: 0x8, addend: 0x0, symName: '__ZN9hashbrown3map14equivalent_key28_$u7b$$u7b$closure$u7d$$u7d$17h963f65354e8ac716E', symObjAddr: 0x39C, symBinAddr: 0x12AC0, symSize: 0x30 }
  - { offset: 0x65FC8, size: 0x8, addend: 0x0, symName: '__ZN9hashbrown3map28HashMap$LT$K$C$V$C$S$C$A$GT$12contains_key17h0cec529891c64df9E', symObjAddr: 0x3CC, symBinAddr: 0x12AF0, symSize: 0x10C }
  - { offset: 0x66320, size: 0x8, addend: 0x0, symName: '__ZN9hashbrown3map28HashMap$LT$K$C$V$C$S$C$A$GT$4iter17h2d42f5e7dccc38d6E', symObjAddr: 0x4D8, symBinAddr: 0x12BFC, symSize: 0xA8 }
  - { offset: 0x665E6, size: 0x8, addend: 0x0, symName: '__ZN9hashbrown3map28HashMap$LT$K$C$V$C$S$C$A$GT$6insert17h149d14eefeb693a0E', symObjAddr: 0x580, symBinAddr: 0x12CA4, symSize: 0x17C }
  - { offset: 0x667D9, size: 0x8, addend: 0x0, symName: __ZN4core5slice6memchr6memchr17hca3efab66fb55bd8E, symObjAddr: 0x0, symBinAddr: 0x12E20, symSize: 0x114 }
  - { offset: 0x6682A, size: 0x8, addend: 0x0, symName: __ZN4core5slice6memchr6memchr17hca3efab66fb55bd8E, symObjAddr: 0x0, symBinAddr: 0x12E20, symSize: 0x114 }
  - { offset: 0x66958, size: 0x8, addend: 0x0, symName: __ZN8pyo3_ffi7cpython11tupleobject16PyTuple_SET_ITEM17h2351d5d1569e64c9E, symObjAddr: 0x0, symBinAddr: 0x12F34, symSize: 0x118 }
  - { offset: 0x66F72, size: 0x8, addend: 0x0, symName: __ZN8pyo3_ffi7cpython11tupleobject16PyTuple_SET_ITEM17h2351d5d1569e64c9E, symObjAddr: 0x0, symBinAddr: 0x12F34, symSize: 0x118 }
  - { offset: 0x67F44, size: 0x8, addend: 0x0, symName: '__ZN129_$LT$$u5b$core..mem..maybe_uninit..MaybeUninit$LT$T$GT$$u3b$$u20$N$u5d$$u20$as$u20$core..array..iter..iter_inner..PartialDrop$GT$12partial_drop17hb6bff9470b6660a5E', symObjAddr: 0x0, symBinAddr: 0x1304C, symSize: 0x4C }
  - { offset: 0x68780, size: 0x8, addend: 0x0, symName: '__ZN129_$LT$$u5b$core..mem..maybe_uninit..MaybeUninit$LT$T$GT$$u3b$$u20$N$u5d$$u20$as$u20$core..array..iter..iter_inner..PartialDrop$GT$12partial_drop17hb6bff9470b6660a5E', symObjAddr: 0x0, symBinAddr: 0x1304C, symSize: 0x4C }
  - { offset: 0x6981B, size: 0x8, addend: 0x0, symName: __ZN9hashbrown3raw11TableLayout20calculate_layout_for17h691336f3bad865feE, symObjAddr: 0x0, symBinAddr: 0x13098, symSize: 0x220 }
  - { offset: 0x6AF43, size: 0x8, addend: 0x0, symName: __ZN9hashbrown3raw11TableLayout20calculate_layout_for17h691336f3bad865feE, symObjAddr: 0x0, symBinAddr: 0x13098, symSize: 0x220 }
  - { offset: 0x6B482, size: 0x8, addend: 0x0, symName: __ZN9hashbrown3raw13RawTableInner15rehash_in_place17hf1ad89acfffe9141E, symObjAddr: 0x220, symBinAddr: 0x132B8, symSize: 0x41C }
  - { offset: 0x6BDE3, size: 0x8, addend: 0x0, symName: __ZN9hashbrown3raw13RawTableInner16fix_insert_index17ha93c3bcf9da2dd5cE, symObjAddr: 0x63C, symBinAddr: 0x136D4, symSize: 0x100 }
  - { offset: 0x6C055, size: 0x8, addend: 0x0, symName: __ZN9hashbrown3raw13RawTableInner17find_insert_index17hfb16287f1cd43ba9E, symObjAddr: 0x73C, symBinAddr: 0x137D4, symSize: 0xFC }
  - { offset: 0x6C352, size: 0x8, addend: 0x0, symName: __ZN9hashbrown3raw13RawTableInner23prepare_rehash_in_place17h5c5dfcac975c3f7cE, symObjAddr: 0x838, symBinAddr: 0x138D0, symSize: 0x204 }
  - { offset: 0x6C948, size: 0x8, addend: 0x0, symName: __ZN9hashbrown3raw13RawTableInner26find_insert_index_in_group17h31a2c05512bdf7ccE, symObjAddr: 0xA3C, symBinAddr: 0x13AD4, symSize: 0x120 }
  - { offset: 0x6CC05, size: 0x8, addend: 0x0, symName: __ZN9hashbrown3raw13RawTableInner31find_or_find_insert_index_inner17h13912f7dc458e111E, symObjAddr: 0xB5C, symBinAddr: 0x13BF4, symSize: 0x2A0 }
  - { offset: 0x6CFB1, size: 0x8, addend: 0x0, symName: '__ZN185_$LT$core..ops..control_flow..ControlFlow$LT$B$C$C$GT$$u20$as$u20$core..ops..try_trait..FromResidual$LT$core..ops..control_flow..ControlFlow$LT$B$C$core..convert..Infallible$GT$$GT$$GT$13from_residual17he2df3cfcc95d2d8dE', symObjAddr: 0x0, symBinAddr: 0x13E94, symSize: 0x48 }
  - { offset: 0x6D7C3, size: 0x8, addend: 0x0, symName: '__ZN185_$LT$core..ops..control_flow..ControlFlow$LT$B$C$C$GT$$u20$as$u20$core..ops..try_trait..FromResidual$LT$core..ops..control_flow..ControlFlow$LT$B$C$core..convert..Infallible$GT$$GT$$GT$13from_residual17he2df3cfcc95d2d8dE', symObjAddr: 0x0, symBinAddr: 0x13E94, symSize: 0x48 }
  - { offset: 0x6D808, size: 0x8, addend: 0x0, symName: '__ZN95_$LT$core..ops..control_flow..ControlFlow$LT$B$C$C$GT$$u20$as$u20$core..ops..try_trait..Try$GT$11from_output17h6f51debfd094ce93E', symObjAddr: 0x48, symBinAddr: 0x13EDC, symSize: 0x20 }
  - { offset: 0x6D846, size: 0x8, addend: 0x0, symName: '__ZN95_$LT$core..ops..control_flow..ControlFlow$LT$B$C$C$GT$$u20$as$u20$core..ops..try_trait..Try$GT$6branch17hff89d6a338bcd913E', symObjAddr: 0x68, symBinAddr: 0x13EFC, symSize: 0x98 }
  - { offset: 0x6EDC0, size: 0x8, addend: 0x0, symName: __ZN4pyo35types4none6PyNone3get17h4df90eac2faf5e5fE, symObjAddr: 0x0, symBinAddr: 0x13F94, symSize: 0x24 }
  - { offset: 0x7052D, size: 0x8, addend: 0x0, symName: __ZN4pyo35types4none6PyNone3get17h4df90eac2faf5e5fE, symObjAddr: 0x0, symBinAddr: 0x13F94, symSize: 0x24 }
  - { offset: 0x70578, size: 0x8, addend: 0x0, symName: __ZN4core5slice20copy_from_slice_impl17h81ec641d4f199dffE, symObjAddr: 0x0, symBinAddr: 0x13FB8, symSize: 0xAC }
  - { offset: 0x70DF2, size: 0x8, addend: 0x0, symName: __ZN4core5slice20copy_from_slice_impl17h81ec641d4f199dffE, symObjAddr: 0x0, symBinAddr: 0x13FB8, symSize: 0xAC }
  - { offset: 0x71ECC, size: 0x8, addend: 0x0, symName: '__ZN87_$LT$$BP$mut$u20$pyo3_ffi..object..PyObject$u20$as$u20$pyo3..ffi_ptr_ext..FfiPtrExt$GT$12assume_owned17hbf947c505ef62695E', symObjAddr: 0x0, symBinAddr: 0x14064, symSize: 0x24 }
  - { offset: 0x71F1F, size: 0x8, addend: 0x0, symName: __ZN8pyo3_ffi6object7Py_None17hd24abc824fb32d3aE, symObjAddr: 0x48, symBinAddr: 0x140AC, symSize: 0xC }
  - { offset: 0x730E2, size: 0x8, addend: 0x0, symName: '__ZN87_$LT$$BP$mut$u20$pyo3_ffi..object..PyObject$u20$as$u20$pyo3..ffi_ptr_ext..FfiPtrExt$GT$12assume_owned17hbf947c505ef62695E', symObjAddr: 0x0, symBinAddr: 0x14064, symSize: 0x24 }
  - { offset: 0x73127, size: 0x8, addend: 0x0, symName: '__ZN87_$LT$$BP$mut$u20$pyo3_ffi..object..PyObject$u20$as$u20$pyo3..ffi_ptr_ext..FfiPtrExt$GT$25assume_borrowed_unchecked17h35c0d1e5aa31631cE', symObjAddr: 0x24, symBinAddr: 0x14088, symSize: 0x24 }
  - { offset: 0x73753, size: 0x8, addend: 0x0, symName: __ZN4core9ub_checks23maybe_is_nonoverlapping7runtime17h0df303a7f1bb40a0E, symObjAddr: 0x0, symBinAddr: 0x140B8, symSize: 0xD8 }
  - { offset: 0x738D8, size: 0x8, addend: 0x0, symName: __ZN4core9ub_checks23maybe_is_nonoverlapping7runtime17h0df303a7f1bb40a0E, symObjAddr: 0x0, symBinAddr: 0x140B8, symSize: 0xD8 }
  - { offset: 0x73B12, size: 0x8, addend: 0x0, symName: __ZN9rust_core8triangle4cetc4cetc4cetc9_PYO3_DEF17h0139c8f70898b252E, symObjAddr: 0x18, symBinAddr: 0xD09F8, symSize: 0x0 }
  - { offset: 0x750A1, size: 0x8, addend: 0x0, symName: __ZN4pyo35impl_5panic9PanicTrap3new17h9b241ac2e1809133E, symObjAddr: 0x0, symBinAddr: 0x14190, symSize: 0x18 }
  - { offset: 0x75130, size: 0x8, addend: 0x0, symName: __ZN4pyo35impl_5panic9PanicTrap3new17h9b241ac2e1809133E, symObjAddr: 0x0, symBinAddr: 0x14190, symSize: 0x18 }
  - { offset: 0x75152, size: 0x8, addend: 0x0, symName: __ZN4pyo35impl_5panic9PanicTrap6disarm17heeb1545007ecc98dE, symObjAddr: 0x18, symBinAddr: 0x141A8, symSize: 0x28 }
  - { offset: 0x75192, size: 0x8, addend: 0x0, symName: __ZN9rust_core8triangle6common13sort_adj_list17h850a815ec787cf2bE, symObjAddr: 0x0, symBinAddr: 0x141D0, symSize: 0x838 }
  - { offset: 0x7772C, size: 0x8, addend: 0x0, symName: __ZN9rust_core8triangle6common1_11__INVENTORY17h60aa4703c5fcbcb8E, symObjAddr: 0x3E90, symBinAddr: 0xD0A18, symSize: 0x0 }
  - { offset: 0x77739, size: 0x8, addend: 0x0, symName: __ZN9rust_core8triangle6common1_6__ctor17h625b92d0a55074b2E, symObjAddr: 0x19CC, symBinAddr: 0x15B9C, symSize: 0x34 }
  - { offset: 0x77754, size: 0x8, addend: 0x0, symName: __ZN9rust_core8triangle6common13sort_adj_list17h850a815ec787cf2bE, symObjAddr: 0x0, symBinAddr: 0x141D0, symSize: 0x838 }
  - { offset: 0x77965, size: 0x8, addend: 0x0, symName: __ZN9rust_core8triangle6common15degree_ordering17h7056d62238ff0044E, symObjAddr: 0x838, symBinAddr: 0x14A08, symSize: 0x700 }
  - { offset: 0x77B46, size: 0x8, addend: 0x0, symName: __ZN9rust_core8triangle6common19degeneracy_ordering17h296b76134637c8ebE, symObjAddr: 0xF38, symBinAddr: 0x15108, symSize: 0xA94 }
  - { offset: 0x77DA3, size: 0x8, addend: 0x0, symName: __ZN9rust_core8triangle6common22degeneracy_ordering_py17h05f0f7116ddb7a49E, symObjAddr: 0x1A00, symBinAddr: 0x15BD0, symSize: 0xD9C }
  - { offset: 0x780F5, size: 0x8, addend: 0x0, symName: __ZN9rust_core8triangle6common28common_neighbors_sorted_list17h7fd0bf6e3f7601beE, symObjAddr: 0x279C, symBinAddr: 0x1696C, symSize: 0x328 }
  - { offset: 0x7816B, size: 0x8, addend: 0x0, symName: __ZN9rust_core8triangle6common3bfs17h466acb7c196c540dE, symObjAddr: 0x2AC4, symBinAddr: 0x16C94, symSize: 0x390 }
  - { offset: 0x7874A, size: 0x8, addend: 0x0, symName: __ZN3std5panic12catch_unwind17h5e9240b555aee9c3E, symObjAddr: 0x0, symBinAddr: 0x17024, symSize: 0xE4 }
  - { offset: 0x7A272, size: 0x8, addend: 0x0, symName: __ZN3std5panic12catch_unwind17h5e9240b555aee9c3E, symObjAddr: 0x0, symBinAddr: 0x17024, symSize: 0xE4 }
  - { offset: 0x7A397, size: 0x8, addend: 0x0, symName: __ZN3std5panic12catch_unwind17h7fe88d2e80191b2aE, symObjAddr: 0xE4, symBinAddr: 0x17108, symSize: 0xD4 }
  - { offset: 0x7A4BC, size: 0x8, addend: 0x0, symName: __ZN3std5panic12catch_unwind17ha1d1df9a88f58472E, symObjAddr: 0x1B8, symBinAddr: 0x171DC, symSize: 0x10C }
  - { offset: 0x7B022, size: 0x8, addend: 0x0, symName: __ZN9rust_core8triangle6kclist1_6__ctor17h1ef99b4fc8281edbE, symObjAddr: 0x0, symBinAddr: 0x1733C, symSize: 0x34 }
  - { offset: 0x7B050, size: 0x8, addend: 0x0, symName: __ZN9rust_core8triangle6kclist1_11__INVENTORY17h0324434626a0fef5E, symObjAddr: 0x14B0, symBinAddr: 0xD0A30, symSize: 0x0 }
  - { offset: 0x7B05D, size: 0x8, addend: 0x0, symName: __ZN9rust_core8triangle6kclist1_6__ctor17h1ef99b4fc8281edbE, symObjAddr: 0x0, symBinAddr: 0x1733C, symSize: 0x34 }
  - { offset: 0x7B078, size: 0x8, addend: 0x0, symName: __ZN9rust_core8triangle6kclist6kclist17hdc749c178bda8ddaE, symObjAddr: 0x34, symBinAddr: 0x17370, symSize: 0x654 }
  - { offset: 0x7B245, size: 0x8, addend: 0x0, symName: __ZN9rust_core8triangle6kclist9kclist_py17had2e3d0a0e56a366E, symObjAddr: 0x688, symBinAddr: 0x179C4, symSize: 0x97C }
  - { offset: 0x7D7AB, size: 0x8, addend: 0x0, symName: '__ZN100_$LT$pyo3..types..tuple..BorrowedTupleIterator$u20$as$u20$core..iter..traits..iterator..Iterator$GT$4next17h61c01f0965a3afffE', symObjAddr: 0x0, symBinAddr: 0x18340, symSize: 0x9C }
  - { offset: 0x7E9DF, size: 0x8, addend: 0x0, symName: '__ZN100_$LT$pyo3..types..tuple..BorrowedTupleIterator$u20$as$u20$core..iter..traits..iterator..Iterator$GT$4next17h61c01f0965a3afffE', symObjAddr: 0x0, symBinAddr: 0x18340, symSize: 0x9C }
  - { offset: 0x7F097, size: 0x8, addend: 0x0, symName: __ZN8pyo3_ffi7cpython10listobject15PyList_SET_ITEM17hd5feeab1b59d8504E, symObjAddr: 0x0, symBinAddr: 0x183DC, symSize: 0x110 }
  - { offset: 0x7F6B1, size: 0x8, addend: 0x0, symName: __ZN8pyo3_ffi7cpython10listobject15PyList_SET_ITEM17hd5feeab1b59d8504E, symObjAddr: 0x0, symBinAddr: 0x183DC, symSize: 0x110 }
  - { offset: 0x80683, size: 0x8, addend: 0x0, symName: '__ZN110_$LT$core..iter..adapters..enumerate..Enumerate$LT$I$GT$$u20$as$u20$core..iter..traits..iterator..Iterator$GT$4next17h1c9f94f1737df95bE', symObjAddr: 0x0, symBinAddr: 0x184EC, symSize: 0xE0 }
  - { offset: 0x81C7F, size: 0x8, addend: 0x0, symName: '__ZN110_$LT$core..iter..adapters..enumerate..Enumerate$LT$I$GT$$u20$as$u20$core..iter..traits..iterator..Iterator$GT$4next17h1c9f94f1737df95bE', symObjAddr: 0x0, symBinAddr: 0x184EC, symSize: 0xE0 }
  - { offset: 0x81D65, size: 0x8, addend: 0x0, symName: '__ZN110_$LT$core..iter..adapters..enumerate..Enumerate$LT$I$GT$$u20$as$u20$core..iter..traits..iterator..Iterator$GT$4next17h435a1cd2f70f69c3E', symObjAddr: 0xE0, symBinAddr: 0x185CC, symSize: 0xEC }
  - { offset: 0x81EB1, size: 0x8, addend: 0x0, symName: '__ZN63_$LT$I$u20$as$u20$core..iter..traits..collect..IntoIterator$GT$9into_iter17h1715017da1611f24E', symObjAddr: 0x1CC, symBinAddr: 0x186B8, symSize: 0x30 }
  - { offset: 0x827A3, size: 0x8, addend: 0x0, symName: __ZN4core4hint16assert_unchecked18precondition_check17h9c60ca9a7d0cf75dE, symObjAddr: 0x0, symBinAddr: 0x186E8, symSize: 0x58 }
  - { offset: 0x827BF, size: 0x8, addend: 0x0, symName: __ZN4core4hint16assert_unchecked18precondition_check17h9c60ca9a7d0cf75dE, symObjAddr: 0x0, symBinAddr: 0x186E8, symSize: 0x58 }
  - { offset: 0x82861, size: 0x8, addend: 0x0, symName: '__ZN59_$LT$alloc..alloc..Global$u20$as$u20$core..clone..Clone$GT$5clone17h40d24ae1fca57076E', symObjAddr: 0x0, symBinAddr: 0x18740, symSize: 0x10 }
  - { offset: 0x82BAC, size: 0x8, addend: 0x0, symName: '__ZN59_$LT$alloc..alloc..Global$u20$as$u20$core..clone..Clone$GT$5clone17h40d24ae1fca57076E', symObjAddr: 0x0, symBinAddr: 0x18740, symSize: 0x10 }
  - { offset: 0x82C38, size: 0x8, addend: 0x0, symName: '__ZN63_$LT$alloc..alloc..Global$u20$as$u20$core..alloc..Allocator$GT$10deallocate17h55f89828bcde6daeE', symObjAddr: 0x10, symBinAddr: 0x18750, symSize: 0x58 }
  - { offset: 0x82DC0, size: 0x8, addend: 0x0, symName: __ZN4core5slice3raw14from_raw_parts17h04b04b05f96d3313E, symObjAddr: 0x0, symBinAddr: 0x187A8, symSize: 0x58 }
  - { offset: 0x835EB, size: 0x8, addend: 0x0, symName: __ZN4core5slice3raw14from_raw_parts17h04b04b05f96d3313E, symObjAddr: 0x0, symBinAddr: 0x187A8, symSize: 0x58 }
  - { offset: 0x8362E, size: 0x8, addend: 0x0, symName: __ZN4core5slice3raw14from_raw_parts17h3520821f4a4ec7d6E, symObjAddr: 0x58, symBinAddr: 0x18800, symSize: 0x58 }
  - { offset: 0x84676, size: 0x8, addend: 0x0, symName: __ZN4core5slice3raw14from_raw_parts18precondition_check17h6a52c30f64c006c7E, symObjAddr: 0x0, symBinAddr: 0x18858, symSize: 0x10C }
  - { offset: 0x84815, size: 0x8, addend: 0x0, symName: __ZN4core5slice3raw14from_raw_parts18precondition_check17h6a52c30f64c006c7E, symObjAddr: 0x0, symBinAddr: 0x18858, symSize: 0x10C }
  - { offset: 0x84931, size: 0x8, addend: 0x0, symName: __ZN4core5slice3raw18from_raw_parts_mut18precondition_check17hd6b0d14da14cb31aE, symObjAddr: 0x10C, symBinAddr: 0x18964, symSize: 0x10C }
  - { offset: 0x84AC6, size: 0x8, addend: 0x0, symName: '__ZN56_$LT$usize$u20$as$u20$core..iter..traits..accum..Sum$GT$3sum17hd36ba368211605a3E', symObjAddr: 0x0, symBinAddr: 0x18A70, symSize: 0x30 }
  - { offset: 0x84AEC, size: 0x8, addend: 0x0, symName: '__ZN56_$LT$usize$u20$as$u20$core..iter..traits..accum..Sum$GT$3sum17hd36ba368211605a3E', symObjAddr: 0x0, symBinAddr: 0x18A70, symSize: 0x30 }
  - { offset: 0x84B26, size: 0x8, addend: 0x0, symName: '__ZN56_$LT$usize$u20$as$u20$core..iter..traits..accum..Sum$GT$3sum28_$u7b$$u7b$closure$u7d$$u7d$17h97c17c7b3aa3bdbdE', symObjAddr: 0x30, symBinAddr: 0x18AA0, symSize: 0x48 }
  - { offset: 0x84E11, size: 0x8, addend: 0x0, symName: __ZN4core4hash11BuildHasher8hash_one17he2d045857d2560c6E, symObjAddr: 0x0, symBinAddr: 0x18AE8, symSize: 0x84 }
  - { offset: 0x84E2D, size: 0x8, addend: 0x0, symName: __ZN4core4hash11BuildHasher8hash_one17he2d045857d2560c6E, symObjAddr: 0x0, symBinAddr: 0x18AE8, symSize: 0x84 }
  - { offset: 0x84FFD, size: 0x8, addend: 0x0, symName: '__ZN4core4hash5impls52_$LT$impl$u20$core..hash..Hash$u20$for$u20$$RF$T$GT$4hash17ha1fb2a84c9f7394dE', symObjAddr: 0x0, symBinAddr: 0x18B6C, symSize: 0x30 }
  - { offset: 0x8501E, size: 0x8, addend: 0x0, symName: '__ZN4core4hash5impls52_$LT$impl$u20$core..hash..Hash$u20$for$u20$$RF$T$GT$4hash17ha1fb2a84c9f7394dE', symObjAddr: 0x0, symBinAddr: 0x18B6C, symSize: 0x30 }
  - { offset: 0x8506F, size: 0x8, addend: 0x0, symName: '__ZN4core4hash5impls52_$LT$impl$u20$core..hash..Hash$u20$for$u20$usize$GT$4hash17hf7c14581a3c3ea1bE', symObjAddr: 0x30, symBinAddr: 0x18B9C, symSize: 0x38 }
  - { offset: 0x85209, size: 0x8, addend: 0x0, symName: '__ZN102_$LT$core..iter..adapters..map..Map$LT$I$C$F$GT$$u20$as$u20$core..iter..traits..iterator..Iterator$GT$4fold17h137dad6a01f774ebE', symObjAddr: 0x0, symBinAddr: 0x18BD4, symSize: 0x44 }
  - { offset: 0x85AD5, size: 0x8, addend: 0x0, symName: '__ZN4core4iter8adapters3map8map_fold28_$u7b$$u7b$closure$u7d$$u7d$17h0db21c3895bb9b02E', symObjAddr: 0x8B4, symBinAddr: 0x19488, symSize: 0x7C }
  - { offset: 0x85B5A, size: 0x8, addend: 0x0, symName: '__ZN4core4iter8adapters3map8map_fold28_$u7b$$u7b$closure$u7d$$u7d$17h3cd2f7e59a478974E', symObjAddr: 0x930, symBinAddr: 0x19504, symSize: 0x98 }
  - { offset: 0x85BE1, size: 0x8, addend: 0x0, symName: '__ZN4core4iter8adapters3map8map_fold28_$u7b$$u7b$closure$u7d$$u7d$17hceaffea57d5333b8E', symObjAddr: 0x9C8, symBinAddr: 0x1959C, symSize: 0x7C }
  - { offset: 0x85C6C, size: 0x8, addend: 0x0, symName: '__ZN102_$LT$core..iter..adapters..map..Map$LT$I$C$F$GT$$u20$as$u20$core..iter..traits..iterator..Iterator$GT$4fold17h137dad6a01f774ebE', symObjAddr: 0x0, symBinAddr: 0x18BD4, symSize: 0x44 }
  - { offset: 0x85D04, size: 0x8, addend: 0x0, symName: '__ZN102_$LT$core..iter..adapters..map..Map$LT$I$C$F$GT$$u20$as$u20$core..iter..traits..iterator..Iterator$GT$4fold17h450ef6d7540106beE', symObjAddr: 0x44, symBinAddr: 0x18C18, symSize: 0x44 }
  - { offset: 0x85D9C, size: 0x8, addend: 0x0, symName: '__ZN102_$LT$core..iter..adapters..map..Map$LT$I$C$F$GT$$u20$as$u20$core..iter..traits..iterator..Iterator$GT$4fold17h84222d72679376c2E', symObjAddr: 0x88, symBinAddr: 0x18C5C, symSize: 0x30 }
  - { offset: 0x85E11, size: 0x8, addend: 0x0, symName: '__ZN102_$LT$core..iter..adapters..map..Map$LT$I$C$F$GT$$u20$as$u20$core..iter..traits..iterator..Iterator$GT$4next17h4817777a2603790dE', symObjAddr: 0xB8, symBinAddr: 0x18C8C, symSize: 0x84 }
  - { offset: 0x85EAD, size: 0x8, addend: 0x0, symName: '__ZN102_$LT$core..iter..adapters..map..Map$LT$I$C$F$GT$$u20$as$u20$core..iter..traits..iterator..Iterator$GT$4next17ha50a80c45c6a77caE', symObjAddr: 0x13C, symBinAddr: 0x18D10, symSize: 0xB0 }
  - { offset: 0x85F49, size: 0x8, addend: 0x0, symName: '__ZN102_$LT$core..iter..adapters..map..Map$LT$I$C$F$GT$$u20$as$u20$core..iter..traits..iterator..Iterator$GT$4next17hbd6f6101759b9e3fE', symObjAddr: 0x1EC, symBinAddr: 0x18DC0, symSize: 0x94 }
  - { offset: 0x85FE5, size: 0x8, addend: 0x0, symName: '__ZN102_$LT$core..iter..adapters..map..Map$LT$I$C$F$GT$$u20$as$u20$core..iter..traits..iterator..Iterator$GT$4next17hf3ef76699cf0f351E', symObjAddr: 0x280, symBinAddr: 0x18E54, symSize: 0x9C }
  - { offset: 0x86081, size: 0x8, addend: 0x0, symName: '__ZN102_$LT$core..iter..adapters..map..Map$LT$I$C$F$GT$$u20$as$u20$core..iter..traits..iterator..Iterator$GT$8try_fold17h03a05d9e0d19304fE', symObjAddr: 0x31C, symBinAddr: 0x18EF0, symSize: 0x58 }
  - { offset: 0x86124, size: 0x8, addend: 0x0, symName: '__ZN102_$LT$core..iter..adapters..map..Map$LT$I$C$F$GT$$u20$as$u20$core..iter..traits..iterator..Iterator$GT$8try_fold17h18a376b9e0521001E', symObjAddr: 0x374, symBinAddr: 0x18F48, symSize: 0x58 }
  - { offset: 0x861C7, size: 0x8, addend: 0x0, symName: '__ZN102_$LT$core..iter..adapters..map..Map$LT$I$C$F$GT$$u20$as$u20$core..iter..traits..iterator..Iterator$GT$8try_fold17h9832937cd7980cebE', symObjAddr: 0x3CC, symBinAddr: 0x18FA0, symSize: 0x58 }
  - { offset: 0x8626A, size: 0x8, addend: 0x0, symName: '__ZN102_$LT$core..iter..adapters..map..Map$LT$I$C$F$GT$$u20$as$u20$core..iter..traits..iterator..Iterator$GT$9size_hint17h5a6259567080e237E', symObjAddr: 0x424, symBinAddr: 0x18FF8, symSize: 0x24 }
  - { offset: 0x862B1, size: 0x8, addend: 0x0, symName: '__ZN102_$LT$core..iter..adapters..map..Map$LT$I$C$F$GT$$u20$as$u20$core..iter..traits..iterator..Iterator$GT$9size_hint17h8876e4ac848eecb9E', symObjAddr: 0x448, symBinAddr: 0x1901C, symSize: 0x24 }
  - { offset: 0x862F8, size: 0x8, addend: 0x0, symName: '__ZN102_$LT$core..iter..adapters..map..Map$LT$I$C$F$GT$$u20$as$u20$core..iter..traits..iterator..Iterator$GT$9size_hint17hbb2cf14f266edc04E', symObjAddr: 0x46C, symBinAddr: 0x19040, symSize: 0x24 }
  - { offset: 0x86450, size: 0x8, addend: 0x0, symName: '__ZN4core4iter8adapters3map12map_try_fold28_$u7b$$u7b$closure$u7d$$u7d$17h16d9b527e32e1a76E', symObjAddr: 0x664, symBinAddr: 0x19238, symSize: 0xC0 }
  - { offset: 0x864E2, size: 0x8, addend: 0x0, symName: '__ZN4core4iter8adapters3map12map_try_fold28_$u7b$$u7b$closure$u7d$$u7d$17h4947a2c5f3acff87E', symObjAddr: 0x724, symBinAddr: 0x192F8, symSize: 0xD0 }
  - { offset: 0x86575, size: 0x8, addend: 0x0, symName: '__ZN4core4iter8adapters3map12map_try_fold28_$u7b$$u7b$closure$u7d$$u7d$17he886df42526fb40eE', symObjAddr: 0x7F4, symBinAddr: 0x193C8, symSize: 0xC0 }
  - { offset: 0x866C7, size: 0x8, addend: 0x0, symName: '__ZN113_$LT$core..iter..adapters..map..Map$LT$I$C$F$GT$$u20$as$u20$core..iter..traits..exact_size..ExactSizeIterator$GT$3len17h2a61823999e1d2a8E', symObjAddr: 0x490, symBinAddr: 0x19064, symSize: 0x24 }
  - { offset: 0x8670E, size: 0x8, addend: 0x0, symName: '__ZN113_$LT$core..iter..adapters..map..Map$LT$I$C$F$GT$$u20$as$u20$core..iter..traits..exact_size..ExactSizeIterator$GT$3len17h70c20729d279528eE', symObjAddr: 0x4B4, symBinAddr: 0x19088, symSize: 0x24 }
  - { offset: 0x86755, size: 0x8, addend: 0x0, symName: '__ZN113_$LT$core..iter..adapters..map..Map$LT$I$C$F$GT$$u20$as$u20$core..iter..traits..exact_size..ExactSizeIterator$GT$3len17hce5b6d5de67d92daE', symObjAddr: 0x4D8, symBinAddr: 0x190AC, symSize: 0x24 }
  - { offset: 0x86A95, size: 0x8, addend: 0x0, symName: __ZN4core4iter6traits8iterator8Iterator3sum17hb780531c98139f44E, symObjAddr: 0x4FC, symBinAddr: 0x190D0, symSize: 0x2C }
  - { offset: 0x86AD5, size: 0x8, addend: 0x0, symName: __ZN4core4iter6traits8iterator8Iterator4take17h4a961e19fc84ebacE, symObjAddr: 0x528, symBinAddr: 0x190FC, symSize: 0x18 }
  - { offset: 0x86B1B, size: 0x8, addend: 0x0, symName: __ZN4core4iter6traits8iterator8Iterator4take17h8a69a4d4624f32d1E, symObjAddr: 0x540, symBinAddr: 0x19114, symSize: 0x18 }
  - { offset: 0x86B61, size: 0x8, addend: 0x0, symName: __ZN4core4iter6traits8iterator8Iterator4take17hb4aaa9a7e8c9ac90E, symObjAddr: 0x558, symBinAddr: 0x1912C, symSize: 0x18 }
  - { offset: 0x86BA7, size: 0x8, addend: 0x0, symName: __ZN4core4iter6traits8iterator8Iterator7collect17h4156e0453eb1a4bdE, symObjAddr: 0x570, symBinAddr: 0x19144, symSize: 0x14 }
  - { offset: 0x86BE8, size: 0x8, addend: 0x0, symName: __ZN4core4iter6traits8iterator8Iterator7collect17hd6fc8ddef813e8c0E, symObjAddr: 0x584, symBinAddr: 0x19158, symSize: 0x2C }
  - { offset: 0x86C28, size: 0x8, addend: 0x0, symName: __ZN4core4iter6traits8iterator8Iterator7collect17he5325b9e611ce7dfE, symObjAddr: 0x5B0, symBinAddr: 0x19184, symSize: 0x2C }
  - { offset: 0x86C68, size: 0x8, addend: 0x0, symName: __ZN4core4iter6traits8iterator8Iterator8for_each17h1ca7f9f9cd280ca4E, symObjAddr: 0x5DC, symBinAddr: 0x191B0, symSize: 0x44 }
  - { offset: 0x86CD3, size: 0x8, addend: 0x0, symName: __ZN4core4iter6traits8iterator8Iterator8for_each17hff007e13c2f41d4dE, symObjAddr: 0x620, symBinAddr: 0x191F4, symSize: 0x44 }
  - { offset: 0x86D44, size: 0x8, addend: 0x0, symName: '__ZN72_$LT$$RF$mut$u20$I$u20$as$u20$core..iter..traits..iterator..Iterator$GT$4next17h114e0e8d880f1179E', symObjAddr: 0xA94, symBinAddr: 0x19668, symSize: 0x28 }
  - { offset: 0x86D7B, size: 0x8, addend: 0x0, symName: '__ZN72_$LT$$RF$mut$u20$I$u20$as$u20$core..iter..traits..iterator..Iterator$GT$4next17hd29e53968dc29e89E', symObjAddr: 0xABC, symBinAddr: 0x19690, symSize: 0x28 }
  - { offset: 0x86DB2, size: 0x8, addend: 0x0, symName: '__ZN72_$LT$$RF$mut$u20$I$u20$as$u20$core..iter..traits..iterator..Iterator$GT$4next17hfc25f003dae84664E', symObjAddr: 0xAE4, symBinAddr: 0x196B8, symSize: 0x28 }
  - { offset: 0x86DE9, size: 0x8, addend: 0x0, symName: '__ZN72_$LT$$RF$mut$u20$I$u20$as$u20$core..iter..traits..iterator..Iterator$GT$8try_fold17h0403c80eff10a123E', symObjAddr: 0xB0C, symBinAddr: 0x196E0, symSize: 0x38 }
  - { offset: 0x86E59, size: 0x8, addend: 0x0, symName: '__ZN72_$LT$$RF$mut$u20$I$u20$as$u20$core..iter..traits..iterator..Iterator$GT$8try_fold17h126d5be457665874E', symObjAddr: 0xB44, symBinAddr: 0x19718, symSize: 0x38 }
  - { offset: 0x86EC9, size: 0x8, addend: 0x0, symName: '__ZN72_$LT$$RF$mut$u20$I$u20$as$u20$core..iter..traits..iterator..Iterator$GT$8try_fold17h6d0f00008b8f8c8fE', symObjAddr: 0xB7C, symBinAddr: 0x19750, symSize: 0x38 }
  - { offset: 0x86F39, size: 0x8, addend: 0x0, symName: '__ZN72_$LT$$RF$mut$u20$I$u20$as$u20$core..iter..traits..iterator..Iterator$GT$8try_fold17h8cceec30c1aac133E', symObjAddr: 0xBB4, symBinAddr: 0x19788, symSize: 0x38 }
  - { offset: 0x86FA9, size: 0x8, addend: 0x0, symName: '__ZN72_$LT$$RF$mut$u20$I$u20$as$u20$core..iter..traits..iterator..Iterator$GT$8try_fold17h9b1e2215080464a4E', symObjAddr: 0xBEC, symBinAddr: 0x197C0, symSize: 0x38 }
  - { offset: 0x87019, size: 0x8, addend: 0x0, symName: '__ZN72_$LT$$RF$mut$u20$I$u20$as$u20$core..iter..traits..iterator..Iterator$GT$8try_fold17hde689e5c1d783fd7E', symObjAddr: 0xC24, symBinAddr: 0x197F8, symSize: 0x38 }
  - { offset: 0x8708F, size: 0x8, addend: 0x0, symName: '__ZN79_$LT$$RF$mut$u20$I$u20$as$u20$core..iter..traits..iterator..IteratorRefSpec$GT$13spec_try_fold17h062e4ce1265b0b54E', symObjAddr: 0xC5C, symBinAddr: 0x19830, symSize: 0x3C }
  - { offset: 0x870FF, size: 0x8, addend: 0x0, symName: '__ZN79_$LT$$RF$mut$u20$I$u20$as$u20$core..iter..traits..iterator..IteratorRefSpec$GT$13spec_try_fold17h85282c9a841a3bbfE', symObjAddr: 0xC98, symBinAddr: 0x1986C, symSize: 0x3C }
  - { offset: 0x8716F, size: 0x8, addend: 0x0, symName: '__ZN79_$LT$$RF$mut$u20$I$u20$as$u20$core..iter..traits..iterator..IteratorRefSpec$GT$13spec_try_fold17hc9d16368d55f976eE', symObjAddr: 0xCD4, symBinAddr: 0x198A8, symSize: 0x3C }
  - { offset: 0x871DF, size: 0x8, addend: 0x0, symName: '__ZN79_$LT$$RF$mut$u20$I$u20$as$u20$core..iter..traits..iterator..IteratorRefSpec$GT$13spec_try_fold17hdb433ac29fb78c45E', symObjAddr: 0xD10, symBinAddr: 0x198E4, symSize: 0x3C }
  - { offset: 0x8724F, size: 0x8, addend: 0x0, symName: '__ZN79_$LT$$RF$mut$u20$I$u20$as$u20$core..iter..traits..iterator..IteratorRefSpec$GT$13spec_try_fold17he7ed71104cb8a236E', symObjAddr: 0xD4C, symBinAddr: 0x19920, symSize: 0x3C }
  - { offset: 0x872BF, size: 0x8, addend: 0x0, symName: '__ZN79_$LT$$RF$mut$u20$I$u20$as$u20$core..iter..traits..iterator..IteratorRefSpec$GT$13spec_try_fold17hed691fe45968961bE', symObjAddr: 0xD88, symBinAddr: 0x1995C, symSize: 0x3C }
  - { offset: 0x8733B, size: 0x8, addend: 0x0, symName: '__ZN63_$LT$I$u20$as$u20$core..iter..traits..collect..IntoIterator$GT$9into_iter17h151e9c987814aadbE', symObjAddr: 0xA44, symBinAddr: 0x19618, symSize: 0x18 }
  - { offset: 0x87372, size: 0x8, addend: 0x0, symName: '__ZN63_$LT$I$u20$as$u20$core..iter..traits..collect..IntoIterator$GT$9into_iter17h794463832d18bbcdE', symObjAddr: 0xA5C, symBinAddr: 0x19630, symSize: 0x1C }
  - { offset: 0x873A9, size: 0x8, addend: 0x0, symName: '__ZN63_$LT$I$u20$as$u20$core..iter..traits..collect..IntoIterator$GT$9into_iter17h94cb033c8c88728cE', symObjAddr: 0xA78, symBinAddr: 0x1964C, symSize: 0x1C }
  - { offset: 0x873EC, size: 0x8, addend: 0x0, symName: '__ZN83_$LT$$RF$mut$u20$I$u20$as$u20$core..iter..traits..exact_size..ExactSizeIterator$GT$3len17h5388f0bc1e10da4fE', symObjAddr: 0xDC4, symBinAddr: 0x19998, symSize: 0x28 }
  - { offset: 0x87421, size: 0x8, addend: 0x0, symName: '__ZN83_$LT$$RF$mut$u20$I$u20$as$u20$core..iter..traits..exact_size..ExactSizeIterator$GT$3len17h7c20371616c6e08dE', symObjAddr: 0xDEC, symBinAddr: 0x199C0, symSize: 0x28 }
  - { offset: 0x87456, size: 0x8, addend: 0x0, symName: '__ZN83_$LT$$RF$mut$u20$I$u20$as$u20$core..iter..traits..exact_size..ExactSizeIterator$GT$3len17hd98d63992af61c6aE', symObjAddr: 0xE14, symBinAddr: 0x199E8, symSize: 0x28 }
  - { offset: 0x8978C, size: 0x8, addend: 0x0, symName: '__ZN5alloc11collections9vec_deque17VecDeque$LT$T$GT$3new17hfee6f7ab5a7bd975E', symObjAddr: 0x0, symBinAddr: 0x19A10, symSize: 0x1C }
  - { offset: 0x8A19E, size: 0x8, addend: 0x0, symName: '__ZN5alloc11collections9vec_deque17VecDeque$LT$T$GT$3new17hfee6f7ab5a7bd975E', symObjAddr: 0x0, symBinAddr: 0x19A10, symSize: 0x1C }
  - { offset: 0x8A2EE, size: 0x8, addend: 0x0, symName: '__ZN5alloc11collections9vec_deque21VecDeque$LT$T$C$A$GT$12slice_ranges17h5b18341a6ecf44d5E', symObjAddr: 0x1C, symBinAddr: 0x19A2C, symSize: 0x1B0 }
  - { offset: 0x8A785, size: 0x8, addend: 0x0, symName: '__ZN5alloc11collections9vec_deque21VecDeque$LT$T$C$A$GT$13push_back_mut17hb7754d1be9612920E', symObjAddr: 0x1CC, symBinAddr: 0x19BDC, symSize: 0x134 }
  - { offset: 0x8AD14, size: 0x8, addend: 0x0, symName: '__ZN5alloc11collections9vec_deque21VecDeque$LT$T$C$A$GT$24handle_capacity_increase17h3f3f747d67319f05E', symObjAddr: 0x300, symBinAddr: 0x19D10, symSize: 0x228 }
  - { offset: 0x8B4F1, size: 0x8, addend: 0x0, symName: '__ZN5alloc11collections9vec_deque21VecDeque$LT$T$C$A$GT$4grow17h97f75acf0595cd7cE', symObjAddr: 0x528, symBinAddr: 0x19F38, symSize: 0x60 }
  - { offset: 0x8B814, size: 0x8, addend: 0x0, symName: '__ZN5alloc11collections9vec_deque21VecDeque$LT$T$C$A$GT$9pop_front17h991ce9c865992819E', symObjAddr: 0x588, symBinAddr: 0x19F98, symSize: 0x15C }
  - { offset: 0x8BA87, size: 0x8, addend: 0x0, symName: '__ZN5alloc11collections9vec_deque21VecDeque$LT$T$C$A$GT$9push_back17h4e2c16de9cc08aedE', symObjAddr: 0x6E4, symBinAddr: 0x1A0F4, symSize: 0x28 }
  - { offset: 0x8BAE9, size: 0x8, addend: 0x0, symName: '__ZN159_$LT$pyo3..conversion..FromPyObject..sequence_extractor..NeverASequence$LT$T$GT$$u20$as$u20$pyo3..conversion..from_py_object_sequence..FromPyObjectSequence$GT$6to_vec17h94aaa7f4691dc62bE', symObjAddr: 0x0, symBinAddr: 0x1A11C, symSize: 0x2C }
  - { offset: 0x8D241, size: 0x8, addend: 0x0, symName: '__ZN159_$LT$pyo3..conversion..FromPyObject..sequence_extractor..NeverASequence$LT$T$GT$$u20$as$u20$pyo3..conversion..from_py_object_sequence..FromPyObjectSequence$GT$6to_vec17h94aaa7f4691dc62bE', symObjAddr: 0x0, symBinAddr: 0x1A11C, symSize: 0x2C }
  - { offset: 0x8D29E, size: 0x8, addend: 0x0, symName: __ZN4pyo310conversion12IntoPyObject28owned_sequence_into_pyobject17h029fd82a344ad104E, symObjAddr: 0x2C, symBinAddr: 0x1A148, symSize: 0xDC }
  - { offset: 0x8D335, size: 0x8, addend: 0x0, symName: __ZN4pyo310conversion12IntoPyObject28owned_sequence_into_pyobject17h4568480e8c4b4a7fE, symObjAddr: 0x108, symBinAddr: 0x1A224, symSize: 0xDC }
  - { offset: 0x8D3D1, size: 0x8, addend: 0x0, symName: '__ZN4pyo310conversion12IntoPyObject28owned_sequence_into_pyobject28_$u7b$$u7b$closure$u7d$$u7d$17h268298539c82a2edE', symObjAddr: 0x1E4, symBinAddr: 0x1A300, symSize: 0x2C }
  - { offset: 0x8D428, size: 0x8, addend: 0x0, symName: '__ZN4pyo310conversion12IntoPyObject28owned_sequence_into_pyobject28_$u7b$$u7b$closure$u7d$$u7d$17haae30d7744db0c47E', symObjAddr: 0x210, symBinAddr: 0x1A32C, symSize: 0x34 }
  - { offset: 0x8D480, size: 0x8, addend: 0x0, symName: '__ZN4pyo310conversion12IntoPyObject28owned_sequence_into_pyobject28_$u7b$$u7b$closure$u7d$$u7d$17he4cc6c3c7c261fc2E', symObjAddr: 0x244, symBinAddr: 0x1A360, symSize: 0x2C }
  - { offset: 0x8D517, size: 0x8, addend: 0x0, symName: __ZN4pyo310conversion15IntoPyObjectExt17into_bound_py_any17h07540c22466ca4f0E, symObjAddr: 0x270, symBinAddr: 0x1A38C, symSize: 0x4C }
  - { offset: 0x8D582, size: 0x8, addend: 0x0, symName: __ZN4pyo310conversion15IntoPyObjectExt17into_bound_py_any17h384b2f5c1162e61dE, symObjAddr: 0x2BC, symBinAddr: 0x1A3D8, symSize: 0x4C }
  - { offset: 0x8E269, size: 0x8, addend: 0x0, symName: __ZN9rust_core8triangle6common6common15degree_ordering9_PYO3_DEF17h0a6d9498b3597388E, symObjAddr: 0x30, symBinAddr: 0xD0A48, symSize: 0x0 }
  - { offset: 0x8F7F8, size: 0x8, addend: 0x0, symName: '__ZN4core5slice29_$LT$impl$u20$$u5b$T$u5d$$GT$18split_at_unchecked18precondition_check17hcafa7b77a809111cE', symObjAddr: 0x0, symBinAddr: 0x1A424, symSize: 0x60 }
  - { offset: 0x8F819, size: 0x8, addend: 0x0, symName: '__ZN4core5slice29_$LT$impl$u20$$u5b$T$u5d$$GT$18split_at_unchecked18precondition_check17hcafa7b77a809111cE', symObjAddr: 0x0, symBinAddr: 0x1A424, symSize: 0x60 }
  - { offset: 0x8F8C3, size: 0x8, addend: 0x0, symName: __ZN9rust_core1_6__ctor17hd3f61d332403c5e1E, symObjAddr: 0x0, symBinAddr: 0x1A484, symSize: 0x34 }
  - { offset: 0x8F8E7, size: 0x8, addend: 0x0, symName: __ZN9rust_core1_11__INVENTORY17h0b9fb605428c5628E, symObjAddr: 0xC0, symBinAddr: 0xD0A68, symSize: 0x0 }
  - { offset: 0x8F8F4, size: 0x8, addend: 0x0, symName: __ZN9rust_core1_6__ctor17hd3f61d332403c5e1E, symObjAddr: 0x0, symBinAddr: 0x1A484, symSize: 0x34 }
  - { offset: 0x8FA50, size: 0x8, addend: 0x0, symName: __ZN4core3fmt9Arguments17from_str_nonconst17h41ba532317dee724E, symObjAddr: 0x0, symBinAddr: 0x1A4B8, symSize: 0x28 }
  - { offset: 0x8FD9C, size: 0x8, addend: 0x0, symName: __ZN4core3fmt9Arguments17from_str_nonconst17h41ba532317dee724E, symObjAddr: 0x0, symBinAddr: 0x1A4B8, symSize: 0x28 }
  - { offset: 0x8FDBF, size: 0x8, addend: 0x0, symName: __ZN4core3fmt9Arguments8from_str17h1de78e52ebe98cbcE, symObjAddr: 0x28, symBinAddr: 0x1A4E0, symSize: 0x20 }
  - { offset: 0x8FE00, size: 0x8, addend: 0x0, symName: '__ZN106_$LT$core..ops..range..Range$LT$usize$GT$$u20$as$u20$core..slice..index..SliceIndex$LT$$u5b$T$u5d$$GT$$GT$9index_mut17heaa3910ad2a1ea24E', symObjAddr: 0x0, symBinAddr: 0x1A500, symSize: 0xBC }
  - { offset: 0x91021, size: 0x8, addend: 0x0, symName: '__ZN106_$LT$core..ops..range..Range$LT$usize$GT$$u20$as$u20$core..slice..index..SliceIndex$LT$$u5b$T$u5d$$GT$$GT$9index_mut17heaa3910ad2a1ea24E', symObjAddr: 0x0, symBinAddr: 0x1A500, symSize: 0xBC }
  - { offset: 0x910D2, size: 0x8, addend: 0x0, symName: '__ZN108_$LT$core..ops..range..RangeTo$LT$usize$GT$$u20$as$u20$core..slice..index..SliceIndex$LT$$u5b$T$u5d$$GT$$GT$9index_mut17ha48f4b41ba5ca377E', symObjAddr: 0xBC, symBinAddr: 0x1A5BC, symSize: 0x54 }
  - { offset: 0x91159, size: 0x8, addend: 0x0, symName: '__ZN110_$LT$core..ops..range..RangeFrom$LT$usize$GT$$u20$as$u20$core..slice..index..SliceIndex$LT$$u5b$T$u5d$$GT$$GT$5index17hd3f666055572ee03E', symObjAddr: 0x110, symBinAddr: 0x1A610, symSize: 0x70 }
  - { offset: 0x912AB, size: 0x8, addend: 0x0, symName: '__ZN86_$LT$core..ops..range..RangeFull$u20$as$u20$core..ops..range..RangeBounds$LT$T$GT$$GT$11start_bound17h71beaf70491d2baaE', symObjAddr: 0x180, symBinAddr: 0x1A680, symSize: 0x18 }
  - { offset: 0x912E2, size: 0x8, addend: 0x0, symName: '__ZN86_$LT$core..ops..range..RangeFull$u20$as$u20$core..ops..range..RangeBounds$LT$T$GT$$GT$9end_bound17hbd690a456f9d3f3eE', symObjAddr: 0x198, symBinAddr: 0x1A698, symSize: 0x18 }
  - { offset: 0x91AA9, size: 0x8, addend: 0x0, symName: __ZN9rust_core8triangle6kclist6kclist6kclist9_PYO3_DEF17h3f703f3fd0d9a20bE, symObjAddr: 0x18, symBinAddr: 0xD0A80, symSize: 0x0 }
  - { offset: 0x93038, size: 0x8, addend: 0x0, symName: '__ZN51_$LT$T$u20$as$u20$core..borrow..Borrow$LT$T$GT$$GT$6borrow17h8c7fb6694bc09a58E', symObjAddr: 0x0, symBinAddr: 0x1A6B0, symSize: 0x14 }
  - { offset: 0x93054, size: 0x8, addend: 0x0, symName: '__ZN51_$LT$T$u20$as$u20$core..borrow..Borrow$LT$T$GT$$GT$6borrow17h8c7fb6694bc09a58E', symObjAddr: 0x0, symBinAddr: 0x1A6B0, symSize: 0x14 }
  - { offset: 0x930BE, size: 0x8, addend: 0x0, symName: '__ZN4pyo35impl_4wrap82EmptyTupleConverter$LT$core..result..Result$LT$$LP$$RP$$C$pyo3..err..PyErr$GT$$GT$12map_into_ptr17he564d096553284ceE', symObjAddr: 0x0, symBinAddr: 0x1A6C4, symSize: 0x44 }
  - { offset: 0x94E84, size: 0x8, addend: 0x0, symName: '__ZN4pyo35impl_4wrap82EmptyTupleConverter$LT$core..result..Result$LT$$LP$$RP$$C$pyo3..err..PyErr$GT$$GT$12map_into_ptr17he564d096553284ceE', symObjAddr: 0x0, symBinAddr: 0x1A6C4, symSize: 0x44 }
  - { offset: 0x94EEC, size: 0x8, addend: 0x0, symName: __ZN4pyo310conversion15IntoPyObjectExt22into_pyobject_or_pyerr17h15ffe68984cad3efE, symObjAddr: 0x0, symBinAddr: 0x1A708, symSize: 0x48 }
  - { offset: 0x963F8, size: 0x8, addend: 0x0, symName: __ZN4pyo310conversion15IntoPyObjectExt22into_pyobject_or_pyerr17h15ffe68984cad3efE, symObjAddr: 0x0, symBinAddr: 0x1A708, symSize: 0x48 }
  - { offset: 0x96E1C, size: 0x8, addend: 0x0, symName: __ZN9rust_core4util22submodules_initializer11_inner_init17h31eec499fb5a64b0E, symObjAddr: 0x0, symBinAddr: 0x1A750, symSize: 0x870 }
  - { offset: 0x986F9, size: 0x8, addend: 0x0, symName: __ZN9rust_core4util22submodules_initializer11_inner_init17h31eec499fb5a64b0E, symObjAddr: 0x0, symBinAddr: 0x1A750, symSize: 0x870 }
  - { offset: 0x994CD, size: 0x8, addend: 0x0, symName: __ZN9rust_core8triangle6common6common22degeneracy_ordering_py9_PYO3_DEF17h55190aa7c2f81d55E, symObjAddr: 0x38, symBinAddr: 0xD0AA0, symSize: 0x0 }
  - { offset: 0x9AA5C, size: 0x8, addend: 0x0, symName: __ZN4pyo38internal5state11AttachGuard6python17h8ecaa6a0b8c74826E, symObjAddr: 0x0, symBinAddr: 0x1AFC0, symSize: 0x20 }
  - { offset: 0x9AB12, size: 0x8, addend: 0x0, symName: __ZN4pyo38internal5state11AttachGuard6python17h8ecaa6a0b8c74826E, symObjAddr: 0x0, symBinAddr: 0x1AFC0, symSize: 0x20 }
  - { offset: 0x9AB79, size: 0x8, addend: 0x0, symName: __ZN9rust_core8triangle4cetc4cetc6cetc_s9_PYO3_DEF17hdbbf7bf0ee2e8313E, symObjAddr: 0x18, symBinAddr: 0xD0AC0, symSize: 0x0 }
  - { offset: 0x9C108, size: 0x8, addend: 0x0, symName: __ZN4pyo35impl_10trampoline11module_init17h07c948d972129b23E, symObjAddr: 0x0, symBinAddr: 0x1AFE0, symSize: 0x28 }
  - { offset: 0x9D5D1, size: 0x8, addend: 0x0, symName: __ZN4pyo35impl_10trampoline11module_init17h07c948d972129b23E, symObjAddr: 0x0, symBinAddr: 0x1AFE0, symSize: 0x28 }
  - { offset: 0x9D5FD, size: 0x8, addend: 0x0, symName: __ZN4pyo35impl_10trampoline22fastcall_with_keywords17hb5948a0e14bcd30dE, symObjAddr: 0x28, symBinAddr: 0x1B008, symSize: 0x5C }
  - { offset: 0x9D661, size: 0x8, addend: 0x0, symName: __ZN4pyo35impl_10trampoline6noargs17h88609302fcc0a5baE, symObjAddr: 0x84, symBinAddr: 0x1B064, symSize: 0x64 }
  - { offset: 0x9DFA8, size: 0x8, addend: 0x0, symName: '__ZN4core3num23_$LT$impl$u20$usize$GT$13unchecked_add18precondition_check17h44aab5747f8e079aE', symObjAddr: 0x0, symBinAddr: 0x1B0C8, symSize: 0x64 }
  - { offset: 0x9DFF3, size: 0x8, addend: 0x0, symName: '__ZN4core3num23_$LT$impl$u20$usize$GT$13unchecked_add18precondition_check17h44aab5747f8e079aE', symObjAddr: 0x0, symBinAddr: 0x1B0C8, symSize: 0x64 }
  - { offset: 0x9E0E8, size: 0x8, addend: 0x0, symName: '__ZN101_$LT$std..collections..hash..set..Iter$LT$K$GT$$u20$as$u20$core..iter..traits..iterator..Iterator$GT$4next17h706ad945c161c204E', symObjAddr: 0x0, symBinAddr: 0x1B12C, symSize: 0x58 }
  - { offset: 0x9E81A, size: 0x8, addend: 0x0, symName: __ZN4core4iter6traits8iterator8Iterator5count17h65db06f6f41ab0f3E, symObjAddr: 0x428, symBinAddr: 0x1B554, symSize: 0x18 }
  - { offset: 0x9E927, size: 0x8, addend: 0x0, symName: '__ZN101_$LT$std..collections..hash..set..Iter$LT$K$GT$$u20$as$u20$core..iter..traits..iterator..Iterator$GT$4next17h706ad945c161c204E', symObjAddr: 0x0, symBinAddr: 0x1B12C, symSize: 0x58 }
  - { offset: 0x9EA31, size: 0x8, addend: 0x0, symName: '__ZN117_$LT$std..collections..hash..set..Intersection$LT$T$C$S$C$A$GT$$u20$as$u20$core..iter..traits..iterator..Iterator$GT$4fold28_$u7b$$u7b$closure$u7d$$u7d$17hb3fdaf49179f7790E', symObjAddr: 0xE0, symBinAddr: 0x1B20C, symSize: 0xCC }
  - { offset: 0x9EB0F, size: 0x8, addend: 0x0, symName: '__ZN117_$LT$std..collections..hash..set..Intersection$LT$T$C$S$C$A$GT$$u20$as$u20$core..iter..traits..iterator..Iterator$GT$4fold17h368a335f42c80267E', symObjAddr: 0x58, symBinAddr: 0x1B184, symSize: 0x88 }
  - { offset: 0x9ED5F, size: 0x8, addend: 0x0, symName: '__ZN119_$LT$$RF$std..collections..hash..set..HashSet$LT$T$C$S$C$A$GT$$u20$as$u20$core..iter..traits..collect..IntoIterator$GT$9into_iter17h23aed7a0743825d4E', symObjAddr: 0x1AC, symBinAddr: 0x1B2D8, symSize: 0x70 }
  - { offset: 0x9EE6F, size: 0x8, addend: 0x0, symName: '__ZN92_$LT$std..collections..hash..set..HashSet$LT$T$C$S$C$A$GT$$u20$as$u20$core..clone..Clone$GT$5clone17h23f164e6f1c69a5dE', symObjAddr: 0x544, symBinAddr: 0x1B670, symSize: 0x58 }
  - { offset: 0x9F058, size: 0x8, addend: 0x0, symName: '__ZN62_$LT$T$u20$as$u20$alloc..vec..spec_from_elem..SpecFromElem$GT$9from_elem17h9b99e926692d4e68E', symObjAddr: 0x440, symBinAddr: 0x1B56C, symSize: 0x104 }
  - { offset: 0x9F2B4, size: 0x8, addend: 0x0, symName: '__ZN3std11collections4hash3set16HashSet$LT$T$GT$3new17hac6dbc15f0ad60f3E', symObjAddr: 0x21C, symBinAddr: 0x1B348, symSize: 0x90 }
  - { offset: 0x9F48D, size: 0x8, addend: 0x0, symName: '__ZN3std11collections4hash3set24HashSet$LT$T$C$S$C$A$GT$12intersection17heac2258a87b5ee56E', symObjAddr: 0x2AC, symBinAddr: 0x1B3D8, symSize: 0x148 }
  - { offset: 0x9F6EC, size: 0x8, addend: 0x0, symName: '__ZN3std11collections4hash3set24HashSet$LT$T$C$S$C$A$GT$6insert17h46a8d80ce635155bE', symObjAddr: 0x3F4, symBinAddr: 0x1B520, symSize: 0x34 }
  - { offset: 0x9F816, size: 0x8, addend: 0x0, symName: '__ZN100_$LT$core..iter..adapters..take..Take$LT$I$GT$$u20$as$u20$core..iter..traits..iterator..Iterator$GT$8try_fold17ha178b5e633859f13E', symObjAddr: 0x0, symBinAddr: 0x1B6C8, symSize: 0x100 }
  - { offset: 0xA0F16, size: 0x8, addend: 0x0, symName: '__ZN100_$LT$core..iter..adapters..take..Take$LT$I$GT$$u20$as$u20$core..iter..traits..iterator..Iterator$GT$8try_fold17ha178b5e633859f13E', symObjAddr: 0x0, symBinAddr: 0x1B6C8, symSize: 0x100 }
  - { offset: 0xA0FCE, size: 0x8, addend: 0x0, symName: '__ZN100_$LT$core..iter..adapters..take..Take$LT$I$GT$$u20$as$u20$core..iter..traits..iterator..Iterator$GT$8try_fold17hdfc66e054ebf0e14E', symObjAddr: 0x100, symBinAddr: 0x1B7C8, symSize: 0x100 }
  - { offset: 0xA1086, size: 0x8, addend: 0x0, symName: '__ZN100_$LT$core..iter..adapters..take..Take$LT$I$GT$$u20$as$u20$core..iter..traits..iterator..Iterator$GT$8try_fold17he8912d72e63b418aE', symObjAddr: 0x200, symBinAddr: 0x1B8C8, symSize: 0x100 }
  - { offset: 0xA1148, size: 0x8, addend: 0x0, symName: '__ZN100_$LT$core..iter..adapters..take..Take$LT$I$GT$$u20$as$u20$core..iter..traits..iterator..Iterator$GT$8try_fold5check28_$u7b$$u7b$closure$u7d$$u7d$17h2c791a1a82542576E', symObjAddr: 0x300, symBinAddr: 0x1B9C8, symSize: 0x138 }
  - { offset: 0xA1228, size: 0x8, addend: 0x0, symName: '__ZN100_$LT$core..iter..adapters..take..Take$LT$I$GT$$u20$as$u20$core..iter..traits..iterator..Iterator$GT$8try_fold5check28_$u7b$$u7b$closure$u7d$$u7d$17h3a8cdae88fdaccefE', symObjAddr: 0x438, symBinAddr: 0x1BB00, symSize: 0x138 }
  - { offset: 0xA1308, size: 0x8, addend: 0x0, symName: '__ZN100_$LT$core..iter..adapters..take..Take$LT$I$GT$$u20$as$u20$core..iter..traits..iterator..Iterator$GT$8try_fold5check28_$u7b$$u7b$closure$u7d$$u7d$17h4a808acd51dc15deE', symObjAddr: 0x570, symBinAddr: 0x1BC38, symSize: 0x138 }
  - { offset: 0xA230B, size: 0x8, addend: 0x0, symName: __ZN4core9core_arch7aarch644neon9generated7vld1_u817h65ad3cefce580f4fE, symObjAddr: 0x0, symBinAddr: 0x1BD70, symSize: 0x34 }
  - { offset: 0xA2331, size: 0x8, addend: 0x0, symName: __ZN4core9core_arch7aarch644neon9generated7vld1_u817h65ad3cefce580f4fE, symObjAddr: 0x0, symBinAddr: 0x1BD70, symSize: 0x34 }
  - { offset: 0xA235F, size: 0x8, addend: 0x0, symName: __ZN4core9core_arch7aarch644neon9generated7vst1_u817ha93c0143bd5cc63dE, symObjAddr: 0x34, symBinAddr: 0x1BDA4, symSize: 0x40 }
  - { offset: 0xA2399, size: 0x8, addend: 0x0, symName: __ZN4core9core_arch7aarch644neon9generated8vcgez_s817h5af7ea220b6ca05eE, symObjAddr: 0x74, symBinAddr: 0x1BDE4, symSize: 0x68 }
  - { offset: 0xA243B, size: 0x8, addend: 0x0, symName: __ZN4core9core_arch7aarch644neon9generated8vcltz_s817h986e00bf8d9490f1E, symObjAddr: 0xDC, symBinAddr: 0x1BE4C, symSize: 0x68 }
  - { offset: 0xA2631, size: 0x8, addend: 0x0, symName: '__ZN4core3cmp5impls50_$LT$impl$u20$core..cmp..Ord$u20$for$u20$usize$GT$3cmp17h06831ef59759986aE', symObjAddr: 0x0, symBinAddr: 0x1BEB4, symSize: 0x38 }
  - { offset: 0xA2670, size: 0x8, addend: 0x0, symName: '__ZN4core3cmp5impls50_$LT$impl$u20$core..cmp..Ord$u20$for$u20$usize$GT$3cmp17h06831ef59759986aE', symObjAddr: 0x0, symBinAddr: 0x1BEB4, symSize: 0x38 }
  - { offset: 0xA26B3, size: 0x8, addend: 0x0, symName: '__ZN4core3cmp5impls56_$LT$impl$u20$core..cmp..PartialEq$u20$for$u20$usize$GT$2eq17hf111e2df6ff17840E', symObjAddr: 0x38, symBinAddr: 0x1BEEC, symSize: 0x2C }
  - { offset: 0xA2734, size: 0x8, addend: 0x0, symName: __ZN4core3fmt2rt8Argument9new_debug17h266687c7b702f931E, symObjAddr: 0x0, symBinAddr: 0x1BF18, symSize: 0x2C }
  - { offset: 0xA4187, size: 0x8, addend: 0x0, symName: __ZN4core3fmt2rt8Argument9new_debug17h266687c7b702f931E, symObjAddr: 0x0, symBinAddr: 0x1BF18, symSize: 0x2C }
  - { offset: 0xA41BF, size: 0x8, addend: 0x0, symName: __ZN4core3fmt2rt8Argument9new_debug17h862259a344567e47E, symObjAddr: 0x2C, symBinAddr: 0x1BF44, symSize: 0x2C }
  - { offset: 0xA4208, size: 0x8, addend: 0x0, symName: __ZN4core4iter6traits8iterator8Iterator3zip17h403c927d08a98152E, symObjAddr: 0x0, symBinAddr: 0x1BF70, symSize: 0xB4 }
  - { offset: 0xA4B14, size: 0x8, addend: 0x0, symName: __ZN4core4iter6traits8iterator8Iterator3zip17h403c927d08a98152E, symObjAddr: 0x0, symBinAddr: 0x1BF70, symSize: 0xB4 }
  - { offset: 0xA57A5, size: 0x8, addend: 0x0, symName: __ZN4pyo35types5tuple16array_into_tuple17hb3e26a034fbccd25E, symObjAddr: 0xB4, symBinAddr: 0x1C024, symSize: 0x200 }
  - { offset: 0xA5F42, size: 0x8, addend: 0x0, symName: '__ZN75_$LT$usize$u20$as$u20$core..slice..index..SliceIndex$LT$$u5b$T$u5d$$GT$$GT$13get_unchecked18precondition_check17hc3fc50b392faf9cbE', symObjAddr: 0x0, symBinAddr: 0x1C224, symSize: 0x60 }
  - { offset: 0xA5F68, size: 0x8, addend: 0x0, symName: '__ZN75_$LT$usize$u20$as$u20$core..slice..index..SliceIndex$LT$$u5b$T$u5d$$GT$$GT$13get_unchecked18precondition_check17hc3fc50b392faf9cbE', symObjAddr: 0x0, symBinAddr: 0x1C224, symSize: 0x60 }
  - { offset: 0xA603A, size: 0x8, addend: 0x0, symName: __ZN9rust_core8triangle6common6common13sort_adj_list9_PYO3_DEF17hea7b2a79ad91a186E, symObjAddr: 0x28, symBinAddr: 0xD0AE0, symSize: 0x0 }
  - { offset: 0xA75C9, size: 0x8, addend: 0x0, symName: '__ZN4core3ptr9const_ptr33_$LT$impl$u20$$BP$const$u20$T$GT$20offset_from_unsigned18precondition_check17h15c2e609989b382aE', symObjAddr: 0x0, symBinAddr: 0x1C284, symSize: 0x60 }
  - { offset: 0xA75EF, size: 0x8, addend: 0x0, symName: '__ZN4core3ptr9const_ptr33_$LT$impl$u20$$BP$const$u20$T$GT$20offset_from_unsigned18precondition_check17h15c2e609989b382aE', symObjAddr: 0x0, symBinAddr: 0x1C284, symSize: 0x60 }
  - { offset: 0xA76D8, size: 0x8, addend: 0x0, symName: '__ZN4core3ptr9const_ptr33_$LT$impl$u20$$BP$const$u20$T$GT$6offset18precondition_check17hc65f417309a9bb3eE', symObjAddr: 0x60, symBinAddr: 0x1C2E4, symSize: 0xC4 }
  - { offset: 0xA7ABF, size: 0x8, addend: 0x0, symName: __ZN9rust_core6motifs1_6__ctor17hb28b141b01c11805E, symObjAddr: 0x0, symBinAddr: 0x1C3A8, symSize: 0x34 }
  - { offset: 0xA7AE8, size: 0x8, addend: 0x0, symName: __ZN9rust_core6motifs1_11__INVENTORY17h0f73d9cb316ef016E, symObjAddr: 0xD0, symBinAddr: 0xD0B00, symSize: 0x0 }
  - { offset: 0xA7AF5, size: 0x8, addend: 0x0, symName: __ZN9rust_core6motifs1_6__ctor17hb28b141b01c11805E, symObjAddr: 0x0, symBinAddr: 0x1C3A8, symSize: 0x34 }
  - { offset: 0xA7C52, size: 0x8, addend: 0x0, symName: __ZN13pyo3_stub_gen9stub_type10PyStubType10type_input17h9015493c0ce11f8dE, symObjAddr: 0x0, symBinAddr: 0x1C3DC, symSize: 0x14 }
  - { offset: 0xA7C8C, size: 0x8, addend: 0x0, symName: __ZN13pyo3_stub_gen9stub_type10PyStubType10type_input17h9015493c0ce11f8dE, symObjAddr: 0x0, symBinAddr: 0x1C3DC, symSize: 0x14 }
  - { offset: 0xA8740, size: 0x8, addend: 0x0, symName: __ZN4core4iter6traits8iterator8Iterator3map17h5f3ad117b3cf052dE, symObjAddr: 0x14, symBinAddr: 0x1C3F0, symSize: 0x20 }
  - { offset: 0xA87B9, size: 0x8, addend: 0x0, symName: '__ZN63_$LT$I$u20$as$u20$core..iter..traits..collect..IntoIterator$GT$9into_iter17he8de033f2b03c315E', symObjAddr: 0xBC8, symBinAddr: 0x1CFA4, symSize: 0x18 }
  - { offset: 0xA986D, size: 0x8, addend: 0x0, symName: __ZN4pyo35types4list17try_new_from_iter17h17ec3e78a9ec80cbE, symObjAddr: 0x34, symBinAddr: 0x1C410, symSize: 0x2C8 }
  - { offset: 0xA998E, size: 0x8, addend: 0x0, symName: __ZN4pyo35types4list17try_new_from_iter17h59fe7ca3f34bf49cE, symObjAddr: 0x2FC, symBinAddr: 0x1C6D8, symSize: 0x2C8 }
  - { offset: 0xA9AAF, size: 0x8, addend: 0x0, symName: __ZN4pyo35types4list17try_new_from_iter17hb3cc1e6d371b8a7bE, symObjAddr: 0x5C4, symBinAddr: 0x1C9A0, symSize: 0x2C8 }
  - { offset: 0xA9BD5, size: 0x8, addend: 0x0, symName: '__ZN4pyo35types4list17try_new_from_iter28_$u7b$$u7b$closure$u7d$$u7d$17h6082409f71505da7E', symObjAddr: 0x88C, symBinAddr: 0x1CC68, symSize: 0x114 }
  - { offset: 0xA9C4A, size: 0x8, addend: 0x0, symName: '__ZN4pyo35types4list17try_new_from_iter28_$u7b$$u7b$closure$u7d$$u7d$17hb7fe0859f16837dcE', symObjAddr: 0x9A0, symBinAddr: 0x1CD7C, symSize: 0x114 }
  - { offset: 0xA9CBF, size: 0x8, addend: 0x0, symName: '__ZN4pyo35types4list17try_new_from_iter28_$u7b$$u7b$closure$u7d$$u7d$17hcd33ff48998e4b46E', symObjAddr: 0xAB4, symBinAddr: 0x1CE90, symSize: 0x114 }
  - { offset: 0xAAC07, size: 0x8, addend: 0x0, symName: '__ZN76_$LT$hashbrown..raw..RawTable$LT$T$C$A$GT$$u20$as$u20$core..clone..Clone$GT$5clone17hcb7cd75c75b79d50E', symObjAddr: 0x0, symBinAddr: 0x1CFBC, symSize: 0x114 }
  - { offset: 0xAAC36, size: 0x8, addend: 0x0, symName: '__ZN9hashbrown3raw21RawTable$LT$T$C$A$GT$14reserve_rehash28_$u7b$$u7b$closure$u7d$$u7d$17hd76239d199edea06E', symObjAddr: 0xF4C, symBinAddr: 0x1D770, symSize: 0xC0 }
  - { offset: 0xAAE1A, size: 0x8, addend: 0x0, symName: '__ZN9hashbrown3raw21RawTable$LT$T$C$A$GT$25find_or_find_insert_index28_$u7b$$u7b$closure$u7d$$u7d$17h28cfc50544e7fa78E', symObjAddr: 0x1394, symBinAddr: 0x1DBB8, symSize: 0xC4 }
  - { offset: 0xAB00D, size: 0x8, addend: 0x0, symName: '__ZN9hashbrown3raw21RawTable$LT$T$C$A$GT$4find28_$u7b$$u7b$closure$u7d$$u7d$17h74d7bc21a52a91c6E', symObjAddr: 0x176C, symBinAddr: 0x1DF90, symSize: 0xC4 }
  - { offset: 0xAB7AD, size: 0x8, addend: 0x0, symName: '__ZN76_$LT$hashbrown..raw..RawTable$LT$T$C$A$GT$$u20$as$u20$core..clone..Clone$GT$5clone17hcb7cd75c75b79d50E', symObjAddr: 0x0, symBinAddr: 0x1CFBC, symSize: 0x114 }
  - { offset: 0xAB882, size: 0x8, addend: 0x0, symName: '__ZN87_$LT$hashbrown..raw..RawTable$LT$T$C$A$GT$$u20$as$u20$hashbrown..raw..RawTableClone$GT$15clone_from_spec17h8d7025df6094125bE', symObjAddr: 0x114, symBinAddr: 0x1D0D0, symSize: 0x124 }
  - { offset: 0xADF69, size: 0x8, addend: 0x0, symName: __ZN9hashbrown3raw13RawTableInner13drop_elements17h0055a1df68649250E, symObjAddr: 0x238, symBinAddr: 0x1D1F4, symSize: 0x30 }
  - { offset: 0xAE1F8, size: 0x8, addend: 0x0, symName: __ZN9hashbrown3raw13RawTableInner16drop_inner_table17hdc9f78c24372182aE, symObjAddr: 0x268, symBinAddr: 0x1D224, symSize: 0xB0 }
  - { offset: 0xAE3D4, size: 0x8, addend: 0x0, symName: '__ZN9hashbrown3raw21RawIterRange$LT$T$GT$3new17hcdec35aa28f67e1bE', symObjAddr: 0x318, symBinAddr: 0x1D2D4, symSize: 0x98 }
  - { offset: 0xAE68F, size: 0x8, addend: 0x0, symName: '__ZN9hashbrown3raw21RawIterRange$LT$T$GT$9fold_impl17h327829b5221a0899E', symObjAddr: 0x3B0, symBinAddr: 0x1D36C, symSize: 0x250 }
  - { offset: 0xAEB27, size: 0x8, addend: 0x0, symName: '__ZN9hashbrown3raw21RawIterRange$LT$T$GT$9next_impl17h4a1c720102ed1536E', symObjAddr: 0x600, symBinAddr: 0x1D5BC, symSize: 0x1B4 }
  - { offset: 0xAF2FF, size: 0x8, addend: 0x0, symName: '__ZN9hashbrown3raw21RawTable$LT$T$C$A$GT$14reserve_rehash17h8f9e41c7e122018dE', symObjAddr: 0x7B4, symBinAddr: 0x8109C, symSize: 0x798 }
  - { offset: 0xAFCFF, size: 0x8, addend: 0x0, symName: '__ZN9hashbrown3raw21RawTable$LT$T$C$A$GT$17new_uninitialized17h86b2353103029875E', symObjAddr: 0x100C, symBinAddr: 0x1D830, symSize: 0x140 }
  - { offset: 0xAFFC1, size: 0x8, addend: 0x0, symName: '__ZN9hashbrown3raw21RawTable$LT$T$C$A$GT$22insert_tagged_at_index17h746d5c7fd5583eeeE', symObjAddr: 0x114C, symBinAddr: 0x1D970, symSize: 0x114 }
  - { offset: 0xB043D, size: 0x8, addend: 0x0, symName: '__ZN9hashbrown3raw21RawTable$LT$T$C$A$GT$25find_or_find_insert_index17hb4a13b986fb75155E', symObjAddr: 0x1260, symBinAddr: 0x1DA84, symSize: 0x134 }
  - { offset: 0xB0A45, size: 0x8, addend: 0x0, symName: '__ZN9hashbrown3raw21RawTable$LT$T$C$A$GT$4find17hc22e46a1e116000eE', symObjAddr: 0x1458, symBinAddr: 0x1DC7C, symSize: 0x314 }
  - { offset: 0xB1068, size: 0x8, addend: 0x0, symName: '__ZN9hashbrown3raw21RawTable$LT$T$C$A$GT$7reserve17h9a6467ada331bca0E', symObjAddr: 0x1830, symBinAddr: 0x1E054, symSize: 0xB0 }
  - { offset: 0xB1140, size: 0x8, addend: 0x0, symName: '__ZN106_$LT$pyo3..impl_..extract_argument..NoVarargs$u20$as$u20$pyo3..impl_..extract_argument..VarargsHandler$GT$23handle_varargs_fastcall17h949c56350400007bE', symObjAddr: 0x0, symBinAddr: 0x1E104, symSize: 0xB4 }
  - { offset: 0xB2A2B, size: 0x8, addend: 0x0, symName: '__ZN106_$LT$pyo3..impl_..extract_argument..NoVarargs$u20$as$u20$pyo3..impl_..extract_argument..VarargsHandler$GT$23handle_varargs_fastcall17h949c56350400007bE', symObjAddr: 0x0, symBinAddr: 0x1E104, symSize: 0xB4 }
  - { offset: 0xB2A9F, size: 0x8, addend: 0x0, symName: '__ZN114_$LT$pyo3..impl_..extract_argument..NoVarkeywords$u20$as$u20$pyo3..impl_..extract_argument..VarkeywordsHandler$GT$17handle_varkeyword17h07a46e9a209c3e50E', symObjAddr: 0xB4, symBinAddr: 0x1E1B8, symSize: 0x6C }
  - { offset: 0xB2BDE, size: 0x8, addend: 0x0, symName: __ZN4pyo35impl_16extract_argument24unwrap_required_argument17h9092c2e60a382623E, symObjAddr: 0x4D4, symBinAddr: 0x1E5D8, symSize: 0x58 }
  - { offset: 0xB2EF0, size: 0x8, addend: 0x0, symName: __ZN4pyo35impl_16extract_argument19FunctionDescription36find_keyword_parameter_in_positional17h537378396582d720E, symObjAddr: 0x120, symBinAddr: 0x1E224, symSize: 0x5C }
  - { offset: 0xB2F22, size: 0x8, addend: 0x0, symName: __ZN4pyo35impl_16extract_argument19FunctionDescription38find_keyword_parameter_in_keyword_only17h6c74b042e49ddc26E, symObjAddr: 0x17C, symBinAddr: 0x1E280, symSize: 0x5C }
  - { offset: 0xB35F2, size: 0x8, addend: 0x0, symName: __ZN4pyo35impl_16extract_argument19FunctionDescription44ensure_no_missing_required_keyword_arguments17h0fac74805864309fE, symObjAddr: 0x1D8, symBinAddr: 0x1E2DC, symSize: 0x160 }
  - { offset: 0xB36BE, size: 0x8, addend: 0x0, symName: __ZN4pyo35impl_16extract_argument19FunctionDescription47ensure_no_missing_required_positional_arguments17he03df448b347a79fE, symObjAddr: 0x338, symBinAddr: 0x1E43C, symSize: 0x19C }
  - { offset: 0xB3846, size: 0x8, addend: 0x0, symName: '__ZN153_$LT$core..result..Result$LT$T$C$F$GT$$u20$as$u20$core..ops..try_trait..FromResidual$LT$core..result..Result$LT$core..convert..Infallible$C$E$GT$$GT$$GT$13from_residual17h4a54a97ca9907cdcE', symObjAddr: 0x0, symBinAddr: 0x1E630, symSize: 0x6C }
  - { offset: 0xB4D25, size: 0x8, addend: 0x0, symName: '__ZN153_$LT$core..result..Result$LT$T$C$F$GT$$u20$as$u20$core..ops..try_trait..FromResidual$LT$core..result..Result$LT$core..convert..Infallible$C$E$GT$$GT$$GT$13from_residual17h4a54a97ca9907cdcE', symObjAddr: 0x0, symBinAddr: 0x1E630, symSize: 0x6C }
  - { offset: 0xB4DAB, size: 0x8, addend: 0x0, symName: '__ZN153_$LT$core..result..Result$LT$T$C$F$GT$$u20$as$u20$core..ops..try_trait..FromResidual$LT$core..result..Result$LT$core..convert..Infallible$C$E$GT$$GT$$GT$13from_residual17h52b92ab1f97eca92E', symObjAddr: 0x6C, symBinAddr: 0x1E69C, symSize: 0x6C }
  - { offset: 0xB4E31, size: 0x8, addend: 0x0, symName: '__ZN153_$LT$core..result..Result$LT$T$C$F$GT$$u20$as$u20$core..ops..try_trait..FromResidual$LT$core..result..Result$LT$core..convert..Infallible$C$E$GT$$GT$$GT$13from_residual17h81035daa71fd4836E', symObjAddr: 0xD8, symBinAddr: 0x1E708, symSize: 0x6C }
  - { offset: 0xB4E98, size: 0x8, addend: 0x0, symName: '__ZN153_$LT$core..result..Result$LT$T$C$F$GT$$u20$as$u20$core..ops..try_trait..FromResidual$LT$core..result..Result$LT$core..convert..Infallible$C$E$GT$$GT$$GT$13from_residual17h8a506bbc3fca6c95E', symObjAddr: 0x144, symBinAddr: 0x1E774, symSize: 0x6C }
  - { offset: 0xB5C92, size: 0x8, addend: 0x0, symName: '__ZN79_$LT$core..result..Result$LT$T$C$E$GT$$u20$as$u20$core..ops..try_trait..Try$GT$11from_output17ha0c081642ece8d28E', symObjAddr: 0xB24, symBinAddr: 0x1F154, symSize: 0x18 }
  - { offset: 0xB5CD2, size: 0x8, addend: 0x0, symName: '__ZN79_$LT$core..result..Result$LT$T$C$E$GT$$u20$as$u20$core..ops..try_trait..Try$GT$6branch17h01eb19226f316730E', symObjAddr: 0xB3C, symBinAddr: 0x1F16C, symSize: 0x90 }
  - { offset: 0xB5D4F, size: 0x8, addend: 0x0, symName: '__ZN79_$LT$core..result..Result$LT$T$C$E$GT$$u20$as$u20$core..ops..try_trait..Try$GT$6branch17h20e5e27b129925f6E', symObjAddr: 0xBCC, symBinAddr: 0x1F1FC, symSize: 0xB4 }
  - { offset: 0xB5DCD, size: 0x8, addend: 0x0, symName: '__ZN79_$LT$core..result..Result$LT$T$C$E$GT$$u20$as$u20$core..ops..try_trait..Try$GT$6branch17h625c26f36785f53fE', symObjAddr: 0xC80, symBinAddr: 0x1F2B0, symSize: 0xC4 }
  - { offset: 0xB5E4B, size: 0x8, addend: 0x0, symName: '__ZN79_$LT$core..result..Result$LT$T$C$E$GT$$u20$as$u20$core..ops..try_trait..Try$GT$6branch17h98cc3e993f77fddeE', symObjAddr: 0xD44, symBinAddr: 0x1F374, symSize: 0xB4 }
  - { offset: 0xB5EC9, size: 0x8, addend: 0x0, symName: '__ZN79_$LT$core..result..Result$LT$T$C$E$GT$$u20$as$u20$core..ops..try_trait..Try$GT$6branch17heae01b7478e6275cE', symObjAddr: 0xDF8, symBinAddr: 0x1F428, symSize: 0x68 }
  - { offset: 0xB6F60, size: 0x8, addend: 0x0, symName: '__ZN4core6result19Result$LT$T$C$E$GT$3map17h483f9ce580406bcbE', symObjAddr: 0x1B0, symBinAddr: 0x1E7E0, symSize: 0x90 }
  - { offset: 0xB703F, size: 0x8, addend: 0x0, symName: '__ZN4core6result19Result$LT$T$C$E$GT$3map17h7439696b623c74b8E', symObjAddr: 0x240, symBinAddr: 0x1E870, symSize: 0x78 }
  - { offset: 0xB70EA, size: 0x8, addend: 0x0, symName: '__ZN4core6result19Result$LT$T$C$E$GT$3map17h816d1133f563a29cE', symObjAddr: 0x2B8, symBinAddr: 0x1E8E8, symSize: 0x90 }
  - { offset: 0xB7195, size: 0x8, addend: 0x0, symName: '__ZN4core6result19Result$LT$T$C$E$GT$3map17h85a6994d758c4c88E', symObjAddr: 0x348, symBinAddr: 0x1E978, symSize: 0x90 }
  - { offset: 0xB7235, size: 0x8, addend: 0x0, symName: '__ZN4core6result19Result$LT$T$C$E$GT$3map17hfa7685ceaabc4e84E', symObjAddr: 0x3D8, symBinAddr: 0x1EA08, symSize: 0x90 }
  - { offset: 0xB7301, size: 0x8, addend: 0x0, symName: '__ZN4core6result19Result$LT$T$C$E$GT$6is_err17h4a697e7ae0bcf6eaE', symObjAddr: 0x468, symBinAddr: 0x1EA98, symSize: 0x20 }
  - { offset: 0xB736C, size: 0x8, addend: 0x0, symName: '__ZN4core6result19Result$LT$T$C$E$GT$7map_err17h25fe220d91bf9b42E', symObjAddr: 0x488, symBinAddr: 0x1EAB8, symSize: 0x20 }
  - { offset: 0xB73E2, size: 0x8, addend: 0x0, symName: '__ZN4core6result19Result$LT$T$C$E$GT$7map_err17h29f4c2d4f5f36664E', symObjAddr: 0x4A8, symBinAddr: 0x1EAD8, symSize: 0x30 }
  - { offset: 0xB7605, size: 0x8, addend: 0x0, symName: '__ZN4core6result19Result$LT$T$C$E$GT$7map_err17h2c22e67f7cc4fcb7E', symObjAddr: 0x4D8, symBinAddr: 0x1EB08, symSize: 0xCC }
  - { offset: 0xB7699, size: 0x8, addend: 0x0, symName: '__ZN4core6result19Result$LT$T$C$E$GT$7map_err17h49c326cc39fcbb56E', symObjAddr: 0x5A4, symBinAddr: 0x1EBD4, symSize: 0x48 }
  - { offset: 0xB7738, size: 0x8, addend: 0x0, symName: '__ZN4core6result19Result$LT$T$C$E$GT$7map_err17h8214fd79822fed22E', symObjAddr: 0x5EC, symBinAddr: 0x1EC1C, symSize: 0xDC }
  - { offset: 0xB77CD, size: 0x8, addend: 0x0, symName: '__ZN4core6result19Result$LT$T$C$E$GT$7map_err17ha1add6983d9a0cc4E', symObjAddr: 0x6C8, symBinAddr: 0x1ECF8, symSize: 0x48 }
  - { offset: 0xB7843, size: 0x8, addend: 0x0, symName: '__ZN4core6result19Result$LT$T$C$E$GT$7map_err17hcaa3caa58b4082efE', symObjAddr: 0x710, symBinAddr: 0x1ED40, symSize: 0x60 }
  - { offset: 0xB78B8, size: 0x8, addend: 0x0, symName: '__ZN4core6result19Result$LT$T$C$E$GT$7map_err17hd558504a067c1502E', symObjAddr: 0x770, symBinAddr: 0x1EDA0, symSize: 0x48 }
  - { offset: 0xB792E, size: 0x8, addend: 0x0, symName: '__ZN4core6result19Result$LT$T$C$E$GT$8and_then17h2a00e68060f22ca9E', symObjAddr: 0x7B8, symBinAddr: 0x1EDE8, symSize: 0xB0 }
  - { offset: 0xB79C1, size: 0x8, addend: 0x0, symName: '__ZN4core6result19Result$LT$T$C$E$GT$8and_then17h3e8820a460b8f376E', symObjAddr: 0x868, symBinAddr: 0x1EE98, symSize: 0xB0 }
  - { offset: 0xB7A54, size: 0x8, addend: 0x0, symName: '__ZN4core6result19Result$LT$T$C$E$GT$8and_then17h87726711bdbe61e8E', symObjAddr: 0x918, symBinAddr: 0x1EF48, symSize: 0xC8 }
  - { offset: 0xB7AE9, size: 0x8, addend: 0x0, symName: '__ZN4core6result19Result$LT$T$C$E$GT$8and_then17h9749b494e027d357E', symObjAddr: 0x9E0, symBinAddr: 0x1F010, symSize: 0x94 }
  - { offset: 0xB7B7C, size: 0x8, addend: 0x0, symName: '__ZN4core6result19Result$LT$T$C$E$GT$8and_then17hd3d72ce7c8776ddeE', symObjAddr: 0xA74, symBinAddr: 0x1F0A4, symSize: 0xB0 }
  - { offset: 0xB7C4B, size: 0x8, addend: 0x0, symName: '__ZN103_$LT$alloc..vec..into_iter..IntoIter$LT$T$C$A$GT$$u20$as$u20$core..iter..traits..iterator..Iterator$GT$4next17h4ccf40e204b41747E', symObjAddr: 0x0, symBinAddr: 0x1F490, symSize: 0x94 }
  - { offset: 0xB9EF2, size: 0x8, addend: 0x0, symName: __ZN4core4iter6traits10exact_size17ExactSizeIterator3len17h1d4b7616a3224110E, symObjAddr: 0x88C, symBinAddr: 0x1FD1C, symSize: 0xB8 }
  - { offset: 0xB9FBE, size: 0x8, addend: 0x0, symName: __ZN4core4iter6traits10exact_size17ExactSizeIterator3len17h4848bcef0c7b3a03E, symObjAddr: 0x944, symBinAddr: 0x1FDD4, symSize: 0xB8 }
  - { offset: 0xBA08A, size: 0x8, addend: 0x0, symName: __ZN4core4iter6traits10exact_size17ExactSizeIterator3len17h5b396de4ce430292E, symObjAddr: 0x9FC, symBinAddr: 0x1FE8C, symSize: 0xB8 }
  - { offset: 0xBA30C, size: 0x8, addend: 0x0, symName: __ZN4core4iter6traits8iterator8Iterator3map17h8011602c83873645E, symObjAddr: 0xAB4, symBinAddr: 0x1FF44, symSize: 0x28 }
  - { offset: 0xBA379, size: 0x8, addend: 0x0, symName: __ZN4core4iter6traits8iterator8Iterator3map17h84f0b0911fb5c36dE, symObjAddr: 0xADC, symBinAddr: 0x1FF6C, symSize: 0x28 }
  - { offset: 0xBA3E6, size: 0x8, addend: 0x0, symName: __ZN4core4iter6traits8iterator8Iterator3map17hc53edd346372e174E, symObjAddr: 0xB04, symBinAddr: 0x1FF94, symSize: 0x28 }
  - { offset: 0xBAA3F, size: 0x8, addend: 0x0, symName: '__ZN103_$LT$alloc..vec..into_iter..IntoIter$LT$T$C$A$GT$$u20$as$u20$core..iter..traits..iterator..Iterator$GT$4next17h4ccf40e204b41747E', symObjAddr: 0x0, symBinAddr: 0x1F490, symSize: 0x94 }
  - { offset: 0xBAB99, size: 0x8, addend: 0x0, symName: '__ZN103_$LT$alloc..vec..into_iter..IntoIter$LT$T$C$A$GT$$u20$as$u20$core..iter..traits..iterator..Iterator$GT$4next17hb118a0838eb40587E', symObjAddr: 0x94, symBinAddr: 0x1F524, symSize: 0x94 }
  - { offset: 0xBACF3, size: 0x8, addend: 0x0, symName: '__ZN103_$LT$alloc..vec..into_iter..IntoIter$LT$T$C$A$GT$$u20$as$u20$core..iter..traits..iterator..Iterator$GT$4next17hf760aaa3e479f98eE', symObjAddr: 0x128, symBinAddr: 0x1F5B8, symSize: 0xAC }
  - { offset: 0xBAE51, size: 0x8, addend: 0x0, symName: '__ZN103_$LT$alloc..vec..into_iter..IntoIter$LT$T$C$A$GT$$u20$as$u20$core..iter..traits..iterator..Iterator$GT$8try_fold17hc720784de94a10fbE', symObjAddr: 0x1D4, symBinAddr: 0x1F664, symSize: 0x17C }
  - { offset: 0xBB031, size: 0x8, addend: 0x0, symName: '__ZN103_$LT$alloc..vec..into_iter..IntoIter$LT$T$C$A$GT$$u20$as$u20$core..iter..traits..iterator..Iterator$GT$8try_fold17hdc5f856416504b77E', symObjAddr: 0x350, symBinAddr: 0x1F7E0, symSize: 0x1A4 }
  - { offset: 0xBB211, size: 0x8, addend: 0x0, symName: '__ZN103_$LT$alloc..vec..into_iter..IntoIter$LT$T$C$A$GT$$u20$as$u20$core..iter..traits..iterator..Iterator$GT$8try_fold17hdd6d649c1177ca2fE', symObjAddr: 0x4F4, symBinAddr: 0x1F984, symSize: 0x17C }
  - { offset: 0xBB3F1, size: 0x8, addend: 0x0, symName: '__ZN103_$LT$alloc..vec..into_iter..IntoIter$LT$T$C$A$GT$$u20$as$u20$core..iter..traits..iterator..Iterator$GT$9size_hint17h0c4e901411104dc0E', symObjAddr: 0x670, symBinAddr: 0x1FB00, symSize: 0xB4 }
  - { offset: 0xBB50A, size: 0x8, addend: 0x0, symName: '__ZN103_$LT$alloc..vec..into_iter..IntoIter$LT$T$C$A$GT$$u20$as$u20$core..iter..traits..iterator..Iterator$GT$9size_hint17h58ce5919e06e3e80E', symObjAddr: 0x724, symBinAddr: 0x1FBB4, symSize: 0xB4 }
  - { offset: 0xBB623, size: 0x8, addend: 0x0, symName: '__ZN103_$LT$alloc..vec..into_iter..IntoIter$LT$T$C$A$GT$$u20$as$u20$core..iter..traits..iterator..Iterator$GT$9size_hint17hc2b2878e1378595bE', symObjAddr: 0x7D8, symBinAddr: 0x1FC68, symSize: 0xB4 }
  - { offset: 0xBBFA8, size: 0x8, addend: 0x0, symName: '__ZN5alloc3vec9into_iter21IntoIter$LT$T$C$A$GT$16as_raw_mut_slice17h4519f964f2279ce7E', symObjAddr: 0xB2C, symBinAddr: 0x1FFBC, symSize: 0xCC }
  - { offset: 0xBC0F8, size: 0x8, addend: 0x0, symName: '__ZN5alloc3vec9into_iter21IntoIter$LT$T$C$A$GT$16as_raw_mut_slice17h9586575510c79b98E', symObjAddr: 0xBF8, symBinAddr: 0x20088, symSize: 0xCC }
  - { offset: 0xBC248, size: 0x8, addend: 0x0, symName: '__ZN5alloc3vec9into_iter21IntoIter$LT$T$C$A$GT$16as_raw_mut_slice17he00a9a0bbe66eb77E', symObjAddr: 0xCC4, symBinAddr: 0x20154, symSize: 0xCC }
  - { offset: 0xBCBA3, size: 0x8, addend: 0x0, symName: '__ZN69_$LT$std..hash..random..RandomState$u20$as$u20$core..clone..Clone$GT$5clone17hd5ddaec8f3083881E', symObjAddr: 0xBFD4, symBinAddr: 0x203E4, symSize: 0x20 }
  - { offset: 0xBCBD5, size: 0x8, addend: 0x0, symName: '__ZN71_$LT$std..hash..random..DefaultHasher$u20$as$u20$core..hash..Hasher$GT$6finish17h2a14a4dd9ac2a948E', symObjAddr: 0xC4A0, symBinAddr: 0x20404, symSize: 0x20 }
  - { offset: 0xBCC1D, size: 0x8, addend: 0x0, symName: '__ZN71_$LT$std..hash..random..DefaultHasher$u20$as$u20$core..hash..Hasher$GT$9write_str17h7f674b4447cf207aE', symObjAddr: 0xC4C0, symBinAddr: 0x20424, symSize: 0x2C }
  - { offset: 0xBCC7D, size: 0x8, addend: 0x0, symName: '__ZN74_$LT$std..hash..random..RandomState$u20$as$u20$core..hash..BuildHasher$GT$12build_hasher17h71a2a5fa31e125c3E', symObjAddr: 0xC508, symBinAddr: 0x20450, symSize: 0xCC }
  - { offset: 0xBCD58, size: 0x8, addend: 0x0, symName: '__ZN4core4iter6traits8iterator8Iterator8for_each4call28_$u7b$$u7b$closure$u7d$$u7d$17h09f8a11dac26bbf0E', symObjAddr: 0x2B04, symBinAddr: 0x20364, symSize: 0x40 }
  - { offset: 0xBCDB1, size: 0x8, addend: 0x0, symName: '__ZN4core4iter6traits8iterator8Iterator8for_each4call28_$u7b$$u7b$closure$u7d$$u7d$17hd8ae70214ef86244E', symObjAddr: 0x30D4, symBinAddr: 0x203A4, symSize: 0x40 }
  - { offset: 0xBCEE3, size: 0x8, addend: 0x0, symName: __ZN4core4hash11BuildHasher8hash_one17h4c858cf2d706e970E, symObjAddr: 0x20BC, symBinAddr: 0x20234, symSize: 0x84 }
  - { offset: 0xBCF48, size: 0x8, addend: 0x0, symName: __ZN4core4hash11BuildHasher8hash_one17habe44320ba48db1bE, symObjAddr: 0x21C8, symBinAddr: 0x202B8, symSize: 0x84 }
  - { offset: 0xBCFB3, size: 0x8, addend: 0x0, symName: __ZN4core4hash6Hasher11write_isize17hc2de351ce375624aE, symObjAddr: 0x22D0, symBinAddr: 0x2033C, symSize: 0x28 }
  - { offset: 0xBD67B, size: 0x8, addend: 0x0, symName: '__ZN79_$LT$pyo3_stub_gen..type_info..PyFunctionInfo$u20$as$u20$inventory..Collect$GT$8registry8REGISTRY17h82a1b974a9bf0d1cE', symObjAddr: 0xF0EC8, symBinAddr: 0xD16E0, symSize: 0x0 }
  - { offset: 0xBD6A2, size: 0x8, addend: 0x0, symName: '__ZN86_$LT$pyo3_stub_gen..type_info..ReexportModuleMembers$u20$as$u20$inventory..Collect$GT$8registry8REGISTRY17hb1d655cabae272ccE', symObjAddr: 0xF0EE0, symBinAddr: 0xD16E8, symSize: 0x0 }
  - { offset: 0xBD6B1, size: 0x8, addend: 0x0, symName: __ZN13pyo3_stub_gen9type_info21no_return_type_output17h78e6e7c356575a2dE, symObjAddr: 0x41C4, symBinAddr: 0x20810, symSize: 0x14 }
  - { offset: 0xBD82E, size: 0x8, addend: 0x0, symName: '__ZN13pyo3_stub_gen9stub_type4pyo392_$LT$impl$u20$pyo3_stub_gen..stub_type..PyStubType$u20$for$u20$pyo3..types..list..PyList$GT$11type_output17h35c1965a500ebb6eE', symObjAddr: 0x3BC0, symBinAddr: 0x2071C, symSize: 0xF4 }
  - { offset: 0xBEA5B, size: 0x8, addend: 0x0, symName: __ZN4core4iter6traits8iterator8Iterator3map17h616a09fc24129e28E, symObjAddr: 0x4D80, symBinAddr: 0x20A08, symSize: 0x30 }
  - { offset: 0xBEAC9, size: 0x8, addend: 0x0, symName: __ZN4core4iter6traits8iterator8Iterator8for_each17h7a0b595cc1530b23E, symObjAddr: 0x58E8, symBinAddr: 0x20A38, symSize: 0x24 }
  - { offset: 0xBED8A, size: 0x8, addend: 0x0, symName: '__ZN109_$LT$std..collections..hash..set..IntoIter$LT$K$C$A$GT$$u20$as$u20$core..iter..traits..iterator..Iterator$GT$4fold17he45f7a52bc936a23E', symObjAddr: 0x243C, symBinAddr: 0x2051C, symSize: 0x4C }
  - { offset: 0xBEDF7, size: 0x8, addend: 0x0, symName: '__ZN109_$LT$std..collections..hash..set..IntoIter$LT$K$C$A$GT$$u20$as$u20$core..iter..traits..iterator..Iterator$GT$9size_hint17h0ec8e8c2798c204fE', symObjAddr: 0x2508, symBinAddr: 0x20568, symSize: 0x2C }
  - { offset: 0xBEE94, size: 0x8, addend: 0x0, symName: '__ZN115_$LT$std..collections..hash..set..HashSet$LT$T$C$S$C$A$GT$$u20$as$u20$core..iter..traits..collect..IntoIterator$GT$9into_iter17h3ed24a8eb117832aE', symObjAddr: 0x29E0, symBinAddr: 0x2060C, symSize: 0x70 }
  - { offset: 0xBEF02, size: 0x8, addend: 0x0, symName: '__ZN118_$LT$std..collections..hash..set..HashSet$LT$T$C$S$C$A$GT$$u20$as$u20$core..iter..traits..collect..Extend$LT$T$GT$$GT$6extend17h040171d99339a2aaE', symObjAddr: 0x2BE4, symBinAddr: 0x2067C, symSize: 0x24 }
  - { offset: 0xBEFD5, size: 0x8, addend: 0x0, symName: '__ZN92_$LT$std..collections..hash..set..HashSet$LT$T$C$S$C$A$GT$$u20$as$u20$core..clone..Clone$GT$5clone17h6725c339c87e19c8E', symObjAddr: 0xD134, symBinAddr: 0x20C58, symSize: 0x58 }
  - { offset: 0xBF27F, size: 0x8, addend: 0x0, symName: '__ZN113_$LT$std..collections..hash..map..IntoIter$LT$K$C$V$C$A$GT$$u20$as$u20$core..iter..traits..iterator..Iterator$GT$4fold17h3a9c510696831240E', symObjAddr: 0x2968, symBinAddr: 0x20594, symSize: 0x4C }
  - { offset: 0xBF323, size: 0x8, addend: 0x0, symName: '__ZN113_$LT$std..collections..hash..map..IntoIter$LT$K$C$V$C$A$GT$$u20$as$u20$core..iter..traits..iterator..Iterator$GT$9size_hint17h3eaa9621d387546dE', symObjAddr: 0x29B4, symBinAddr: 0x205E0, symSize: 0x2C }
  - { offset: 0xBF3B3, size: 0x8, addend: 0x0, symName: '__ZN119_$LT$std..collections..hash..map..HashMap$LT$K$C$V$C$S$C$A$GT$$u20$as$u20$core..iter..traits..collect..IntoIterator$GT$9into_iter17ha6d2e69798d31de9E', symObjAddr: 0x2F38, symBinAddr: 0x206A0, symSize: 0x58 }
  - { offset: 0xBF40C, size: 0x8, addend: 0x0, symName: '__ZN134_$LT$std..collections..hash..map..HashMap$LT$K$C$V$C$S$C$A$GT$$u20$as$u20$core..iter..traits..collect..Extend$LT$$LP$K$C$V$RP$$GT$$GT$6extend17hbbc2c547241e689fE', symObjAddr: 0x38C4, symBinAddr: 0x206F8, symSize: 0x24 }
  - { offset: 0xBF4D3, size: 0x8, addend: 0x0, symName: '__ZN96_$LT$std..collections..hash..map..HashMap$LT$K$C$V$C$S$C$A$GT$$u20$as$u20$core..clone..Clone$GT$5clone17h8cbfcb5b860ad72aE', symObjAddr: 0xE6BC, symBinAddr: 0x20CE4, symSize: 0x44 }
  - { offset: 0xC0980, size: 0x8, addend: 0x0, symName: '__ZN3std11collections4hash3map20HashMap$LT$K$C$V$GT$3new17hf47863e93f4b3718E', symObjAddr: 0x48B8, symBinAddr: 0x20824, symSize: 0x7C }
  - { offset: 0xC0A56, size: 0x8, addend: 0x0, symName: '__ZN3std11collections4hash3map28HashMap$LT$K$C$V$C$S$C$A$GT$6insert17h2824151e5dcaaa77E', symObjAddr: 0x49EC, symBinAddr: 0x208A0, symSize: 0x24 }
  - { offset: 0xC0B3F, size: 0x8, addend: 0x0, symName: '__ZN3std11collections4hash3set16HashSet$LT$T$GT$13with_capacity17h34c9eae735276dfdE', symObjAddr: 0x4A30, symBinAddr: 0x208C4, symSize: 0x84 }
  - { offset: 0xC0C3B, size: 0x8, addend: 0x0, symName: '__ZN3std11collections4hash3set16HashSet$LT$T$GT$3new17h1043d51906b06430E', symObjAddr: 0x4AB4, symBinAddr: 0x20948, symSize: 0x90 }
  - { offset: 0xC0D6C, size: 0x8, addend: 0x0, symName: '__ZN3std11collections4hash3set24HashSet$LT$T$C$S$C$A$GT$6insert17hbfc3b8791d55cbbbE', symObjAddr: 0x4B44, symBinAddr: 0x209D8, symSize: 0x30 }
  - { offset: 0xC0EFF, size: 0x8, addend: 0x0, symName: '__ZN95_$LT$pyo3..types..list..BoundListIterator$u20$as$u20$core..iter..traits..iterator..Iterator$GT$4next28_$u7b$$u7b$closure$u7d$$u7d$17hc35ea75bff1b4924E', symObjAddr: 0xD1B0, symBinAddr: 0x20CB0, symSize: 0x34 }
  - { offset: 0xC0F62, size: 0x8, addend: 0x0, symName: '__ZN4pyo35types4list17BoundListIterator21with_critical_section28_$u7b$$u7b$closure$u7d$$u7d$17h2c32d98d74eaf178E', symObjAddr: 0x6B78, symBinAddr: 0x20C18, symSize: 0x40 }
  - { offset: 0xC15BF, size: 0x8, addend: 0x0, symName: __ZN4pyo35types4list17BoundListIterator14next_unchecked17h21ed511f61f6cc50E, symObjAddr: 0x69BC, symBinAddr: 0x20A5C, symSize: 0x104 }
  - { offset: 0xC164F, size: 0x8, addend: 0x0, symName: __ZN4pyo35types4list17BoundListIterator21with_critical_section17ha67bbe119aa9cbe7E, symObjAddr: 0x6AC0, symBinAddr: 0x20B60, symSize: 0xB8 }
  - { offset: 0xC1757, size: 0x8, addend: 0x0, symName: '__ZN9hashbrown3raw21RawTable$LT$T$C$A$GT$14reserve_rehash28_$u7b$$u7b$closure$u7d$$u7d$17h4b7daa3583c451f5E', symObjAddr: 0xAE78, symBinAddr: 0x230E8, symSize: 0x30 }
  - { offset: 0xC17A7, size: 0x8, addend: 0x0, symName: '__ZN9hashbrown3raw21RawTable$LT$T$C$A$GT$14reserve_rehash28_$u7b$$u7b$closure$u7d$$u7d$17h51d46e865d15fc76E', symObjAddr: 0xAEA8, symBinAddr: 0x23118, symSize: 0xC0 }
  - { offset: 0xC1985, size: 0x8, addend: 0x0, symName: '__ZN9hashbrown3raw21RawTable$LT$T$C$A$GT$14reserve_rehash28_$u7b$$u7b$closure$u7d$$u7d$17h7cc18ed965efe79bE', symObjAddr: 0xAF68, symBinAddr: 0x231D8, symSize: 0x30 }
  - { offset: 0xC19D5, size: 0x8, addend: 0x0, symName: '__ZN9hashbrown3raw21RawTable$LT$T$C$A$GT$14reserve_rehash28_$u7b$$u7b$closure$u7d$$u7d$17hd47876c63e6b1cfaE', symObjAddr: 0xB058, symBinAddr: 0x23208, symSize: 0xC0 }
  - { offset: 0xC1BC7, size: 0x8, addend: 0x0, symName: '__ZN9hashbrown3raw21RawTable$LT$T$C$A$GT$25find_or_find_insert_index28_$u7b$$u7b$closure$u7d$$u7d$17h56d6234ba87a26ccE', symObjAddr: 0xCB3C, symBinAddr: 0x245D8, symSize: 0xC4 }
  - { offset: 0xC1DB4, size: 0x8, addend: 0x0, symName: '__ZN9hashbrown3raw21RawTable$LT$T$C$A$GT$25find_or_find_insert_index28_$u7b$$u7b$closure$u7d$$u7d$17hb5ff5f638fad3c13E', symObjAddr: 0xCC00, symBinAddr: 0x2469C, symSize: 0xC4 }
  - { offset: 0xC2BE2, size: 0x8, addend: 0x0, symName: '__ZN76_$LT$hashbrown..raw..RawTable$LT$T$C$A$GT$$u20$as$u20$core..clone..Clone$GT$5clone17h53e177ba2de878a1E', symObjAddr: 0x3374, symBinAddr: 0x21054, symSize: 0x114 }
  - { offset: 0xC2CB1, size: 0x8, addend: 0x0, symName: '__ZN76_$LT$hashbrown..raw..RawTable$LT$T$C$A$GT$$u20$as$u20$core..clone..Clone$GT$5clone17h6c7bacb45ca08a69E', symObjAddr: 0x3488, symBinAddr: 0x21168, symSize: 0x114 }
  - { offset: 0xC2D86, size: 0x8, addend: 0x0, symName: '__ZN79_$LT$hashbrown..raw..RawTable$LT$T$C$A$GT$$u20$as$u20$core..ops..drop..Drop$GT$4drop17ha536c8e27733973fE', symObjAddr: 0x3C44, symBinAddr: 0x2127C, symSize: 0x3C }
  - { offset: 0xC2DC2, size: 0x8, addend: 0x0, symName: '__ZN79_$LT$hashbrown..raw..RawTable$LT$T$C$A$GT$$u20$as$u20$core..ops..drop..Drop$GT$4drop17hcb428fb6e004d857E', symObjAddr: 0x3C80, symBinAddr: 0x212B8, symSize: 0x3C }
  - { offset: 0xC2E04, size: 0x8, addend: 0x0, symName: '__ZN82_$LT$hashbrown..raw..RawIntoIter$LT$T$C$A$GT$$u20$as$u20$core..ops..drop..Drop$GT$4drop17h23656f39abe2686dE', symObjAddr: 0x3CBC, symBinAddr: 0x212F4, symSize: 0x74 }
  - { offset: 0xC2E7E, size: 0x8, addend: 0x0, symName: '__ZN82_$LT$hashbrown..raw..RawIntoIter$LT$T$C$A$GT$$u20$as$u20$core..ops..drop..Drop$GT$4drop17hab1a982e317c4e8dE', symObjAddr: 0x3D30, symBinAddr: 0x21368, symSize: 0x74 }
  - { offset: 0xC2EFE, size: 0x8, addend: 0x0, symName: '__ZN87_$LT$hashbrown..raw..RawTable$LT$T$C$A$GT$$u20$as$u20$hashbrown..raw..RawTableClone$GT$15clone_from_spec17h658fa057ff6e057fE', symObjAddr: 0x3DA4, symBinAddr: 0x213DC, symSize: 0x2C }
  - { offset: 0xC2F48, size: 0x8, addend: 0x0, symName: '__ZN87_$LT$hashbrown..raw..RawTable$LT$T$C$A$GT$$u20$as$u20$hashbrown..raw..RawTableClone$GT$15clone_from_spec17hcd8030aaae4905ffE', symObjAddr: 0x3DD0, symBinAddr: 0x21408, symSize: 0x2C }
  - { offset: 0xC333F, size: 0x8, addend: 0x0, symName: '__ZN99_$LT$hashbrown..raw..RawIntoIter$LT$T$C$A$GT$$u20$as$u20$core..iter..traits..iterator..Iterator$GT$4next17h2c9a29f79f1014f9E', symObjAddr: 0x4458, symBinAddr: 0x21434, symSize: 0x100 }
  - { offset: 0xC34C0, size: 0x8, addend: 0x0, symName: '__ZN99_$LT$hashbrown..raw..RawIntoIter$LT$T$C$A$GT$$u20$as$u20$core..iter..traits..iterator..Iterator$GT$4next17h7700515883b4011bE', symObjAddr: 0x4558, symBinAddr: 0x21534, symSize: 0x100 }
  - { offset: 0xC3877, size: 0x8, addend: 0x0, symName: '__ZN99_$LT$hashbrown..raw..RawTable$LT$T$C$A$GT$$u20$as$u20$core..iter..traits..collect..IntoIterator$GT$9into_iter17ha96c0da96ca479a9E', symObjAddr: 0x4658, symBinAddr: 0x21634, symSize: 0x128 }
  - { offset: 0xC3A77, size: 0x8, addend: 0x0, symName: '__ZN99_$LT$hashbrown..raw..RawTable$LT$T$C$A$GT$$u20$as$u20$core..iter..traits..collect..IntoIterator$GT$9into_iter17hdc28fa3f62e09243E', symObjAddr: 0x4780, symBinAddr: 0x2175C, symSize: 0x128 }
  - { offset: 0xC3F87, size: 0x8, addend: 0x0, symName: '__ZN9hashbrown3raw21RawTable$LT$T$C$A$GT$15clone_from_impl28_$u7b$$u7b$closure$u7d$$u7d$17h2e9c91b0f604c2dfE', symObjAddr: 0xB838, symBinAddr: 0x23928, symSize: 0x150 }
  - { offset: 0xC42A1, size: 0x8, addend: 0x0, symName: '__ZN9hashbrown3raw21RawTable$LT$T$C$A$GT$15clone_from_impl28_$u7b$$u7b$closure$u7d$$u7d$17hdd3f20932595fe21E', symObjAddr: 0xB988, symBinAddr: 0x23A78, symSize: 0x150 }
  - { offset: 0xC519F, size: 0x8, addend: 0x0, symName: '__ZN59_$LT$alloc..alloc..Global$u20$as$u20$core..clone..Clone$GT$5clone17hd714cb3601687ffeE', symObjAddr: 0x2E00, symBinAddr: 0x20FEC, symSize: 0x10 }
  - { offset: 0xC51CD, size: 0x8, addend: 0x0, symName: '__ZN63_$LT$alloc..alloc..Global$u20$as$u20$core..alloc..Allocator$GT$10deallocate17hd56eb26ae210b9deE', symObjAddr: 0x31D0, symBinAddr: 0x20FFC, symSize: 0x58 }
  - { offset: 0xC872D, size: 0x8, addend: 0x0, symName: '__ZN4core3str21_$LT$impl$u20$str$GT$5rfind17h024e97f5de99f7d8E', symObjAddr: 0x24D0, symBinAddr: 0x20D44, symSize: 0xC8 }
  - { offset: 0xC88D5, size: 0x8, addend: 0x0, symName: __ZN4core4iter6traits8iterator8Iterator4fold17hd1dd2ae617425b0aE, symObjAddr: 0x2818, symBinAddr: 0x20E0C, symSize: 0xF4 }
  - { offset: 0xC8966, size: 0x8, addend: 0x0, symName: __ZN4core4iter6traits8iterator8Iterator4fold17hf513841afb342839E, symObjAddr: 0x290C, symBinAddr: 0x20F00, symSize: 0xEC }
  - { offset: 0xC94DB, size: 0x8, addend: 0x0, symName: __ZN4core3fmt9Arguments3new17he46922b2523ea57fE, symObjAddr: 0x1D04, symBinAddr: 0x20D28, symSize: 0x1C }
  - { offset: 0xC9BF3, size: 0x8, addend: 0x0, symName: __ZN9hashbrown3raw11TableLayout20calculate_layout_for17h5ac06d288c61e668E, symObjAddr: 0x48A8, symBinAddr: 0x21884, symSize: 0x220 }
  - { offset: 0xCA017, size: 0x8, addend: 0x0, symName: __ZN9hashbrown3raw13RawTableInner13drop_elements17h6bbabaee7a140718E, symObjAddr: 0x4F40, symBinAddr: 0x21AA4, symSize: 0x15C }
  - { offset: 0xCA394, size: 0x8, addend: 0x0, symName: __ZN9hashbrown3raw13RawTableInner13drop_elements17h8a268fbab320ebebE, symObjAddr: 0x509C, symBinAddr: 0x21C00, symSize: 0x15C }
  - { offset: 0xCA7D7, size: 0x8, addend: 0x0, symName: __ZN9hashbrown3raw13RawTableInner15rehash_in_place17h59f9dc6273d3207fE, symObjAddr: 0x5650, symBinAddr: 0x21D5C, symSize: 0x41C }
  - { offset: 0xCB0AC, size: 0x8, addend: 0x0, symName: __ZN9hashbrown3raw13RawTableInner16drop_inner_table17h5e9249c173f6aed4E, symObjAddr: 0x6150, symBinAddr: 0x22178, symSize: 0xB0 }
  - { offset: 0xCB331, size: 0x8, addend: 0x0, symName: __ZN9hashbrown3raw13RawTableInner16drop_inner_table17he1965cafa7eec523E, symObjAddr: 0x62B0, symBinAddr: 0x22228, symSize: 0xB0 }
  - { offset: 0xCB5F2, size: 0x8, addend: 0x0, symName: __ZN9hashbrown3raw13RawTableInner16fix_insert_index17h1aa90a6731567f7eE, symObjAddr: 0x63C8, symBinAddr: 0x222D8, symSize: 0x100 }
  - { offset: 0xCB857, size: 0x8, addend: 0x0, symName: __ZN9hashbrown3raw13RawTableInner17find_insert_index17hfe22bfac567f7858E, symObjAddr: 0x673C, symBinAddr: 0x223D8, symSize: 0xFC }
  - { offset: 0xCBB54, size: 0x8, addend: 0x0, symName: __ZN9hashbrown3raw13RawTableInner23prepare_rehash_in_place17ha91089f27f9837ffE, symObjAddr: 0x6F54, symBinAddr: 0x224D4, symSize: 0x204 }
  - { offset: 0xCC14A, size: 0x8, addend: 0x0, symName: __ZN9hashbrown3raw13RawTableInner26find_insert_index_in_group17h556105bac921f2e4E, symObjAddr: 0x74BC, symBinAddr: 0x226D8, symSize: 0x120 }
  - { offset: 0xCC407, size: 0x8, addend: 0x0, symName: __ZN9hashbrown3raw13RawTableInner31find_or_find_insert_index_inner17h81f88db295eb6b65E, symObjAddr: 0x75DC, symBinAddr: 0x227F8, symSize: 0x2A0 }
  - { offset: 0xCC7F6, size: 0x8, addend: 0x0, symName: '__ZN9hashbrown3raw16RawIter$LT$T$GT$13drop_elements17h5d4e3bb3f6fbd268E', symObjAddr: 0x7F34, symBinAddr: 0x22A98, symSize: 0xDC }
  - { offset: 0xCC982, size: 0x8, addend: 0x0, symName: '__ZN9hashbrown3raw16RawIter$LT$T$GT$13drop_elements17hf7c1531bb5176656E', symObjAddr: 0x8010, symBinAddr: 0x22B74, symSize: 0xDC }
  - { offset: 0xCCAE7, size: 0x8, addend: 0x0, symName: '__ZN9hashbrown3raw21RawIterRange$LT$T$GT$3new17h5e7a246189b83fcdE', symObjAddr: 0x82F8, symBinAddr: 0x22C50, symSize: 0x98 }
  - { offset: 0xCCC54, size: 0x8, addend: 0x0, symName: '__ZN9hashbrown3raw21RawIterRange$LT$T$GT$3new17hf8f09c97e3277736E', symObjAddr: 0x8390, symBinAddr: 0x22CE8, symSize: 0x98 }
  - { offset: 0xCCEDB, size: 0x8, addend: 0x0, symName: '__ZN9hashbrown3raw21RawIterRange$LT$T$GT$9next_impl17h34dbdb3b966c5073E', symObjAddr: 0x8428, symBinAddr: 0x22D80, symSize: 0x1B4 }
  - { offset: 0xCD326, size: 0x8, addend: 0x0, symName: '__ZN9hashbrown3raw21RawIterRange$LT$T$GT$9next_impl17h90b4f4e5e45c01e6E', symObjAddr: 0x85DC, symBinAddr: 0x22F34, symSize: 0x1B4 }
  - { offset: 0xCDAA2, size: 0x8, addend: 0x0, symName: '__ZN9hashbrown3raw21RawTable$LT$T$C$A$GT$14reserve_rehash17h396db8672abbe5b3E', symObjAddr: 0x87C8, symBinAddr: 0x81834, symSize: 0x7A4 }
  - { offset: 0xCE366, size: 0x8, addend: 0x0, symName: '__ZN9hashbrown3raw21RawTable$LT$T$C$A$GT$14reserve_rehash17ha8bad8588456a693E', symObjAddr: 0xA6D8, symBinAddr: 0x81FD8, symSize: 0x7A0 }
  - { offset: 0xCF178, size: 0x8, addend: 0x0, symName: '__ZN9hashbrown3raw21RawTable$LT$T$C$A$GT$15clone_from_impl17h3ca7edfc2eae6292E', symObjAddr: 0xB1D8, symBinAddr: 0x232C8, symSize: 0x330 }
  - { offset: 0xCFAA8, size: 0x8, addend: 0x0, symName: '__ZN9hashbrown3raw21RawTable$LT$T$C$A$GT$15clone_from_impl17hd4dd8cb3f45f953bE', symObjAddr: 0xB508, symBinAddr: 0x235F8, symSize: 0x330 }
  - { offset: 0xD0480, size: 0x8, addend: 0x0, symName: '__ZN9hashbrown3raw21RawTable$LT$T$C$A$GT$15into_allocation17h4bc8a0cf0a86dca3E', symObjAddr: 0xBB78, symBinAddr: 0x23BC8, symSize: 0x120 }
  - { offset: 0xD05C5, size: 0x8, addend: 0x0, symName: '__ZN9hashbrown3raw21RawTable$LT$T$C$A$GT$15into_allocation17h56a8b88311ee45cfE', symObjAddr: 0xBC98, symBinAddr: 0x23CE8, symSize: 0x120 }
  - { offset: 0xD070C, size: 0x8, addend: 0x0, symName: '__ZN9hashbrown3raw21RawTable$LT$T$C$A$GT$16with_capacity_in17hf70a44594fcb35faE', symObjAddr: 0xBE24, symBinAddr: 0x23E08, symSize: 0x98 }
  - { offset: 0xD0776, size: 0x8, addend: 0x0, symName: '__ZN9hashbrown3raw21RawTable$LT$T$C$A$GT$17new_uninitialized17h7966fb1f8ff1d677E', symObjAddr: 0xBEBC, symBinAddr: 0x23EA0, symSize: 0x144 }
  - { offset: 0xD086E, size: 0x8, addend: 0x0, symName: '__ZN9hashbrown3raw21RawTable$LT$T$C$A$GT$17new_uninitialized17hde3f68c3db793616E', symObjAddr: 0xC000, symBinAddr: 0x23FE4, symSize: 0x144 }
  - { offset: 0xD0B30, size: 0x8, addend: 0x0, symName: '__ZN9hashbrown3raw21RawTable$LT$T$C$A$GT$22insert_tagged_at_index17h0247fc1ce52402f6E', symObjAddr: 0xC144, symBinAddr: 0x24128, symSize: 0x124 }
  - { offset: 0xD1056, size: 0x8, addend: 0x0, symName: '__ZN9hashbrown3raw21RawTable$LT$T$C$A$GT$22insert_tagged_at_index17h2de7be4fabf44aa1E', symObjAddr: 0xC38C, symBinAddr: 0x2424C, symSize: 0x124 }
  - { offset: 0xD14BC, size: 0x8, addend: 0x0, symName: '__ZN9hashbrown3raw21RawTable$LT$T$C$A$GT$25find_or_find_insert_index17h30bf5d57357d41e7E', symObjAddr: 0xC588, symBinAddr: 0x24370, symSize: 0x134 }
  - { offset: 0xD1776, size: 0x8, addend: 0x0, symName: '__ZN9hashbrown3raw21RawTable$LT$T$C$A$GT$25find_or_find_insert_index17hba73d6692ddd3252E', symObjAddr: 0xC7C0, symBinAddr: 0x244A4, symSize: 0x134 }
  - { offset: 0xD1C19, size: 0x8, addend: 0x0, symName: '__ZN9hashbrown3raw21RawTable$LT$T$C$A$GT$7reserve17h76c04dfe787ee558E', symObjAddr: 0xE4B0, symBinAddr: 0x24760, symSize: 0xB0 }
  - { offset: 0xD1D1D, size: 0x8, addend: 0x0, symName: '__ZN9hashbrown3raw21RawTable$LT$T$C$A$GT$7reserve17he3d84ae9d07d24d2E', symObjAddr: 0xE7D0, symBinAddr: 0x24810, symSize: 0xB0 }
  - { offset: 0xD1DD7, size: 0x8, addend: 0x0, symName: __ZN9hashbrown7control5group4neon5Group10match_full17h2fc9121fd66ef0fbE, symObjAddr: 0xEB18, symBinAddr: 0x248C0, symSize: 0x68 }
  - { offset: 0xD1E0F, size: 0x8, addend: 0x0, symName: __ZN9hashbrown7control5group4neon5Group22match_empty_or_deleted17h418cc2b43aa4777bE, symObjAddr: 0xED70, symBinAddr: 0x24928, symSize: 0x68 }
  - { offset: 0xD1E47, size: 0x8, addend: 0x0, symName: __ZN9hashbrown7control5group4neon5Group44convert_special_to_empty_and_full_to_deleted17h23b334c41158d0ecE, symObjAddr: 0xEE40, symBinAddr: 0x24990, symSize: 0x88 }
  - { offset: 0xD1E7F, size: 0x8, addend: 0x0, symName: __ZN9hashbrown7control5group4neon5Group9match_tag17ha49070cadb1b1487E, symObjAddr: 0xEF90, symBinAddr: 0x24A18, symSize: 0x7C }
  - { offset: 0xD1FA8, size: 0x8, addend: 0x0, symName: '__ZN105_$LT$hashbrown..set..HashSet$LT$T$C$S$C$A$GT$$u20$as$u20$core..iter..traits..collect..Extend$LT$T$GT$$GT$6extend17h35996fd0714e53e3E', symObjAddr: 0x0, symBinAddr: 0x24A94, symSize: 0x50 }
  - { offset: 0xD2737, size: 0x8, addend: 0x0, symName: __ZN4core3ptr25swap_nonoverlapping_bytes17h7ee5c2e0adf98591E, symObjAddr: 0x3A18, symBinAddr: 0x24B18, symSize: 0xD8 }
  - { offset: 0xD28E0, size: 0x8, addend: 0x0, symName: __ZN4core3ptr25swap_nonoverlapping_bytes25swap_nonoverlapping_short17h9704a3b9dee23f05E, symObjAddr: 0x3AF0, symBinAddr: 0x24BF0, symSize: 0x11C }
  - { offset: 0xD2C2E, size: 0x8, addend: 0x0, symName: '__ZN75_$LT$usize$u20$as$u20$core..slice..index..SliceIndex$LT$$u5b$T$u5d$$GT$$GT$13get_unchecked18precondition_check17he2d6f3344a099886E', symObjAddr: 0xD5F0, symBinAddr: 0x24DD4, symSize: 0x60 }
  - { offset: 0xD3892, size: 0x8, addend: 0x0, symName: __ZN4core9core_arch10arm_shared4neon9generated18vreinterpret_s8_u817h5370eb0647cd5b4fE, symObjAddr: 0xB4B4, symBinAddr: 0x24D0C, symSize: 0xC }
  - { offset: 0xD38C0, size: 0x8, addend: 0x0, symName: __ZN4core9core_arch10arm_shared4neon9generated19vreinterpret_u64_u817ha66c100054596f5eE, symObjAddr: 0xB4C0, symBinAddr: 0x24D18, symSize: 0xC }
  - { offset: 0xD38EE, size: 0x8, addend: 0x0, symName: __ZN4core9core_arch10arm_shared4neon9generated7vceq_u817h1b2691155508323fE, symObjAddr: 0xB4CC, symBinAddr: 0x24D24, symSize: 0x14 }
  - { offset: 0xD392B, size: 0x8, addend: 0x0, symName: __ZN4core9core_arch10arm_shared4neon9generated7vorr_u817h1549d4a59280e993E, symObjAddr: 0xB4E0, symBinAddr: 0x24D38, symSize: 0x14 }
  - { offset: 0xD3968, size: 0x8, addend: 0x0, symName: __ZN4core9core_arch10arm_shared4neon9generated9vdup_n_u817h4b90fa8f9686ee67E, symObjAddr: 0xB4F4, symBinAddr: 0x24D4C, symSize: 0x2C }
  - { offset: 0xD3B33, size: 0x8, addend: 0x0, symName: '__ZN71_$LT$core..hash..sip..Hasher$LT$S$GT$$u20$as$u20$core..hash..Hasher$GT$9write_str17h569ae9ff93ab1f91E', symObjAddr: 0xD2C0, symBinAddr: 0x24D78, symSize: 0x5C }
  - { offset: 0xD44CC, size: 0x8, addend: 0x0, symName: '__ZN105_$LT$hashbrown..set..HashSet$LT$T$C$S$C$A$GT$$u20$as$u20$core..iter..traits..collect..Extend$LT$T$GT$$GT$6extend17h35996fd0714e53e3E', symObjAddr: 0x0, symBinAddr: 0x24A94, symSize: 0x50 }
  - { offset: 0xD452F, size: 0x8, addend: 0x0, symName: '__ZN105_$LT$hashbrown..set..HashSet$LT$T$C$S$C$A$GT$$u20$as$u20$core..iter..traits..collect..Extend$LT$T$GT$$GT$6extend28_$u7b$$u7b$closure$u7d$$u7d$17h4474dde9191037ceE', symObjAddr: 0x12C, symBinAddr: 0x24AE4, symSize: 0x34 }
  - { offset: 0xD460A, size: 0x8, addend: 0x0, symName: '__ZN96_$LT$hashbrown..set..IntoIter$LT$K$C$A$GT$$u20$as$u20$core..iter..traits..iterator..Iterator$GT$4fold28_$u7b$$u7b$closure$u7d$$u7d$17hfe20247950d14177E', symObjAddr: 0x10E9C, symBinAddr: 0x24EA8, symSize: 0x64 }
  - { offset: 0xD4695, size: 0x8, addend: 0x0, symName: '__ZN96_$LT$hashbrown..set..IntoIter$LT$K$C$A$GT$$u20$as$u20$core..iter..traits..iterator..Iterator$GT$4fold17h16b1470ec02abe79E', symObjAddr: 0x10D50, symBinAddr: 0x24E34, symSize: 0x74 }
  - { offset: 0xD564E, size: 0x8, addend: 0x0, symName: '__ZN4core4iter8adapters3map8map_fold28_$u7b$$u7b$closure$u7d$$u7d$17h7398d731e28717eeE', symObjAddr: 0x1179C, symBinAddr: 0x25020, symSize: 0xA8 }
  - { offset: 0xD56DA, size: 0x8, addend: 0x0, symName: '__ZN102_$LT$core..iter..adapters..map..Map$LT$I$C$F$GT$$u20$as$u20$core..iter..traits..iterator..Iterator$GT$4fold17h8888d5e48fe884deE', symObjAddr: 0x4CC, symBinAddr: 0x24F0C, symSize: 0x4C }
  - { offset: 0xD574C, size: 0x8, addend: 0x0, symName: '__ZN102_$LT$core..iter..adapters..map..Map$LT$I$C$F$GT$$u20$as$u20$core..iter..traits..iterator..Iterator$GT$9size_hint17hb8587b3ac024ca1cE', symObjAddr: 0x11CC, symBinAddr: 0x24F58, symSize: 0x24 }
  - { offset: 0xD57F7, size: 0x8, addend: 0x0, symName: __ZN4core4iter6traits8iterator8Iterator8for_each17h7a0dc82ec819a91bE, symObjAddr: 0x1076C, symBinAddr: 0x24FFC, symSize: 0x24 }
  - { offset: 0xD584F, size: 0x8, addend: 0x0, symName: '__ZN63_$LT$I$u20$as$u20$core..iter..traits..collect..IntoIterator$GT$9into_iter17h4b5c94906efb3fe2E', symObjAddr: 0x13B34, symBinAddr: 0x25138, symSize: 0x30 }
  - { offset: 0xD63CC, size: 0x8, addend: 0x0, symName: '__ZN4core3str6traits108_$LT$impl$u20$core..slice..index..SliceIndex$LT$str$GT$$u20$for$u20$core..ops..range..Range$LT$usize$GT$$GT$13get_unchecked18precondition_check17h8b9e05fca422aa5dE', symObjAddr: 0xFA8C, symBinAddr: 0x24F7C, symSize: 0x80 }
  - { offset: 0xD7483, size: 0x8, addend: 0x0, symName: '__ZN74_$LT$pyo3..instance..Bound$LT$T$GT$$u20$as$u20$core..ops..deref..Deref$GT$5deref17h241c9fbf8748a044E', symObjAddr: 0x13F28, symBinAddr: 0x25168, symSize: 0x24 }
  - { offset: 0xD8EE5, size: 0x8, addend: 0x0, symName: '__ZN4pyo38instance14Bound$LT$T$GT$14cast_unchecked17h6c1b030acdffede7E', symObjAddr: 0x13834, symBinAddr: 0x250C8, symSize: 0x38 }
  - { offset: 0xD8F61, size: 0x8, addend: 0x0, symName: '__ZN4pyo38instance14Bound$LT$T$GT$6as_any17hddedf581b285dc4fE', symObjAddr: 0x1386C, symBinAddr: 0x25100, symSize: 0x38 }
  - { offset: 0xD93BA, size: 0x8, addend: 0x0, symName: '__ZN70_$LT$pyo3_stub_gen..stub_type..TypeRef$u20$as$u20$core..hash..Hash$GT$4hash17hee6e50f7594f1ce4E', symObjAddr: 0x10B00, symBinAddr: 0x25794, symSize: 0x40 }
  - { offset: 0xD93FF, size: 0x8, addend: 0x0, symName: '__ZN72_$LT$pyo3_stub_gen..stub_type..ImportRef$u20$as$u20$core..hash..Hash$GT$4hash17h95a271d135012b72E', symObjAddr: 0x10B40, symBinAddr: 0x257D4, symSize: 0xA0 }
  - { offset: 0xD949B, size: 0x8, addend: 0x0, symName: '__ZN72_$LT$pyo3_stub_gen..stub_type..ModuleRef$u20$as$u20$core..hash..Hash$GT$4hash17h9a5e006fc8e909b7E', symObjAddr: 0x10BE0, symBinAddr: 0x25874, symSize: 0x90 }
  - { offset: 0xD9512, size: 0x8, addend: 0x0, symName: '__ZN72_$LT$pyo3_stub_gen..stub_type..TypeRef$u20$as$u20$core..clone..Clone$GT$5clone17h10a3f0bc1c0d42bdE', symObjAddr: 0x10C70, symBinAddr: 0x25904, symSize: 0x8C }
  - { offset: 0xD9544, size: 0x8, addend: 0x0, symName: '__ZN74_$LT$pyo3_stub_gen..stub_type..ImportRef$u20$as$u20$core..clone..Clone$GT$5clone17h55fa6a245e9e301dE', symObjAddr: 0x10E7C, symBinAddr: 0x25990, symSize: 0xA8 }
  - { offset: 0xD95B0, size: 0x8, addend: 0x0, symName: '__ZN74_$LT$pyo3_stub_gen..stub_type..ModuleRef$u20$as$u20$core..clone..Clone$GT$5clone17h67e6631fcbdc11d9E', symObjAddr: 0x10F24, symBinAddr: 0x25A38, symSize: 0x80 }
  - { offset: 0xD95FF, size: 0x8, addend: 0x0, symName: '__ZN74_$LT$pyo3_stub_gen..stub_type..TypeRef$u20$as$u20$core..cmp..PartialEq$GT$2eq17h57f3f6ebf9c590c9E', symObjAddr: 0x10FA4, symBinAddr: 0x25AB8, symSize: 0x60 }
  - { offset: 0xD963F, size: 0x8, addend: 0x0, symName: '__ZN75_$LT$pyo3_stub_gen..stub_type..ImportKind$u20$as$u20$core..clone..Clone$GT$5clone17h9979f6c78e3dc943E', symObjAddr: 0x11004, symBinAddr: 0x25B18, symSize: 0x5C }
  - { offset: 0xD9671, size: 0x8, addend: 0x0, symName: '__ZN76_$LT$pyo3_stub_gen..stub_type..ImportRef$u20$as$u20$core..cmp..PartialEq$GT$2eq17h80fb2441872a1d99E', symObjAddr: 0x11060, symBinAddr: 0x25B74, symSize: 0x11C }
  - { offset: 0xD9733, size: 0x8, addend: 0x0, symName: '__ZN76_$LT$pyo3_stub_gen..stub_type..ModuleRef$u20$as$u20$core..cmp..PartialEq$GT$2eq17hbe526bbea4102504E', symObjAddr: 0x1117C, symBinAddr: 0x25C90, symSize: 0xE4 }
  - { offset: 0xD97C9, size: 0x8, addend: 0x0, symName: '__ZN82_$LT$pyo3_stub_gen..stub_type..TypeIdentifierRef$u20$as$u20$core..clone..Clone$GT$5clone17hbd5e9b8cbc22d926E', symObjAddr: 0x12810, symBinAddr: 0x25D74, symSize: 0x84 }
  - { offset: 0xD97FB, size: 0x8, addend: 0x0, symName: '__ZN90_$LT$pyo3_stub_gen..stub_type..ImportRef$u20$as$u20$core..convert..From$LT$$RF$str$GT$$GT$4from17h40c51cc4c2112ddbE', symObjAddr: 0x12984, symBinAddr: 0x25DF8, symSize: 0x54 }
  - { offset: 0xD982D, size: 0x8, addend: 0x0, symName: '__ZN90_$LT$pyo3_stub_gen..stub_type..ModuleRef$u20$as$u20$core..convert..From$LT$$RF$str$GT$$GT$4from17h329eeb42f74c669fE', symObjAddr: 0x129D8, symBinAddr: 0x25E4C, symSize: 0x44 }
  - { offset: 0xD9885, size: 0x8, addend: 0x0, symName: '__ZN4core3cmp5impls69_$LT$impl$u20$core..cmp..PartialEq$LT$$RF$B$GT$$u20$for$u20$$RF$A$GT$2eq17h921c081462822f3fE', symObjAddr: 0x88D8, symBinAddr: 0x25490, symSize: 0x34 }
  - { offset: 0xD98D4, size: 0x8, addend: 0x0, symName: '__ZN4core3cmp5impls69_$LT$impl$u20$core..cmp..PartialEq$LT$$RF$B$GT$$u20$for$u20$$RF$A$GT$2eq17hc0d3585aee2eaf97E', symObjAddr: 0x890C, symBinAddr: 0x254C4, symSize: 0x34 }
  - { offset: 0xD9BBF, size: 0x8, addend: 0x0, symName: __ZN4core5slice3raw14from_raw_parts18precondition_check17hfdc4f8476aa129e7E, symObjAddr: 0x9498, symBinAddr: 0x25528, symSize: 0x10C }
  - { offset: 0xD9CDB, size: 0x8, addend: 0x0, symName: __ZN4core5slice3raw18from_raw_parts_mut18precondition_check17h8200026e35d4fb01E, symObjAddr: 0x95A4, symBinAddr: 0x25634, symSize: 0x10C }
  - { offset: 0xD9FA0, size: 0x8, addend: 0x0, symName: '__ZN4core4hash5impls52_$LT$impl$u20$core..hash..Hash$u20$for$u20$$RF$T$GT$4hash17h62dea35569682750E', symObjAddr: 0x8B04, symBinAddr: 0x254F8, symSize: 0x30 }
  - { offset: 0xDA238, size: 0x8, addend: 0x0, symName: '__ZN51_$LT$T$u20$as$u20$core..borrow..Borrow$LT$T$GT$$GT$6borrow17h60ec879d3381ab74E', symObjAddr: 0xC5A4, symBinAddr: 0x25740, symSize: 0x14 }
  - { offset: 0xDA6AC, size: 0x8, addend: 0x0, symName: '__ZN52_$LT$Q$u20$as$u20$hashbrown..Equivalent$LT$K$GT$$GT$10equivalent17hed389ea1f1bcabb5E', symObjAddr: 0xC5B8, symBinAddr: 0x25754, symSize: 0x40 }
  - { offset: 0xDA7B9, size: 0x8, addend: 0x0, symName: __ZN13pyo3_stub_gen9stub_type8TypeInfo4none17h571e67d738d0257eE, symObjAddr: 0x76B0, symBinAddr: 0x2518C, symSize: 0xF4 }
  - { offset: 0xDA7CC, size: 0x8, addend: 0x0, symName: __ZN13pyo3_stub_gen9stub_type8TypeInfo7builtin17h937f36b1e975646dE, symObjAddr: 0x77A4, symBinAddr: 0x25280, symSize: 0x1A4 }
  - { offset: 0xDA884, size: 0x8, addend: 0x0, symName: __ZN13pyo3_stub_gen9stub_type9ModuleRef3get17h9a78a775e8d245d0E, symObjAddr: 0x7CF0, symBinAddr: 0x25424, symSize: 0x6C }
  - { offset: 0xDB82F, size: 0x8, addend: 0x0, symName: '__ZN105_$LT$core..str..iter..Split$LT$P$GT$$u20$as$u20$core..iter..traits..double_ended..DoubleEndedIterator$GT$9next_back17hf75d92159064662aE', symObjAddr: 0x1538, symBinAddr: 0x25E90, symSize: 0x24 }
  - { offset: 0xDBAF2, size: 0x8, addend: 0x0, symName: '__ZN4core4hash5impls52_$LT$impl$u20$core..hash..Hash$u20$for$u20$$RF$T$GT$4hash17h2f6b73c88f80fd15E', symObjAddr: 0x69FC, symBinAddr: 0x2614C, symSize: 0x30 }
  - { offset: 0xDC793, size: 0x8, addend: 0x0, symName: '__ZN65_$LT$alloc..string..String$u20$as$u20$core..ops..deref..Deref$GT$5deref17h2f0b6f7ff6954bd1E', symObjAddr: 0x9BB0, symBinAddr: 0x2627C, symSize: 0x20 }
  - { offset: 0xDC852, size: 0x8, addend: 0x0, symName: '__ZN45_$LT$T$u20$as$u20$alloc..string..ToString$GT$9to_string17h54c742d97ced5cf6E', symObjAddr: 0x5D64, symBinAddr: 0x25EB4, symSize: 0x28 }
  - { offset: 0xDC8B3, size: 0x8, addend: 0x0, symName: '__ZN51_$LT$str$u20$as$u20$alloc..string..SpecToString$GT$14spec_to_string17hd56ba7195c8e4b1eE', symObjAddr: 0x8124, symBinAddr: 0x2617C, symSize: 0x50 }
  - { offset: 0xDC9DC, size: 0x8, addend: 0x0, symName: '__ZN58_$LT$alloc..string..String$u20$as$u20$core..hash..Hash$GT$4hash17h575b96f84065387cE', symObjAddr: 0x83D4, symBinAddr: 0x2620C, symSize: 0x44 }
  - { offset: 0xDCB08, size: 0x8, addend: 0x0, symName: '__ZN62_$LT$alloc..string..String$u20$as$u20$core..cmp..PartialEq$GT$2eq17h8b5f7449d60ca1f1E', symObjAddr: 0x997C, symBinAddr: 0x26250, symSize: 0x2C }
  - { offset: 0xDCDC8, size: 0x8, addend: 0x0, symName: '__ZN52_$LT$Q$u20$as$u20$hashbrown..Equivalent$LT$K$GT$$GT$10equivalent17h154125f9f7f0f755E', symObjAddr: 0x8174, symBinAddr: 0x261CC, symSize: 0x40 }
  - { offset: 0xDD51B, size: 0x8, addend: 0x0, symName: '__ZN4core3ptr8non_null16NonNull$LT$T$GT$4cast17h1f0a510b4730c239E', symObjAddr: 0x6228, symBinAddr: 0x25EDC, symSize: 0x14 }
  - { offset: 0xDD550, size: 0x8, addend: 0x0, symName: '__ZN4core3ptr8non_null16NonNull$LT$T$GT$4cast17hfa368d55e903997cE', symObjAddr: 0x6344, symBinAddr: 0x25EF0, symSize: 0x14 }
  - { offset: 0xDD59F, size: 0x8, addend: 0x0, symName: '__ZN4core3str4iter22SplitInternal$LT$P$GT$9next_back17h2ee7c04da989f202E', symObjAddr: 0x670C, symBinAddr: 0x25F04, symSize: 0x248 }
  - { offset: 0xE024E, size: 0x8, addend: 0x0, symName: '__ZN52_$LT$char$u20$as$u20$core..str..pattern..Pattern$GT$13into_searcher17h12a0652add518febE', symObjAddr: 0xB924, symBinAddr: 0x2633C, symSize: 0x114 }
  - { offset: 0xE03D3, size: 0x8, addend: 0x0, symName: '__ZN81_$LT$core..str..pattern..CharSearcher$u20$as$u20$core..str..pattern..Searcher$GT$8haystack17hd56be2ef4c11afc1E', symObjAddr: 0xF8A0, symBinAddr: 0x26450, symSize: 0x20 }
  - { offset: 0xE0407, size: 0x8, addend: 0x0, symName: '__ZN88_$LT$core..str..pattern..CharSearcher$u20$as$u20$core..str..pattern..ReverseSearcher$GT$15next_match_back17h84784fb83400ae97E', symObjAddr: 0x13F2C, symBinAddr: 0x26470, symSize: 0x384 }
  - { offset: 0xE11DB, size: 0x8, addend: 0x0, symName: '__ZN13pyo3_stub_gen9stub_type8builtins70_$LT$impl$u20$pyo3_stub_gen..stub_type..PyStubType$u20$for$u20$i32$GT$11type_output17h34708d9b9da61291E', symObjAddr: 0x8008, symBinAddr: 0x2629C, symSize: 0x24 }
  - { offset: 0xE11FE, size: 0x8, addend: 0x0, symName: '__ZN13pyo3_stub_gen9stub_type8builtins71_$LT$impl$u20$pyo3_stub_gen..stub_type..PyStubType$u20$for$u20$bool$GT$11type_output17h328fd7727ec3f19fE', symObjAddr: 0x823C, symBinAddr: 0x262C0, symSize: 0x24 }
  - { offset: 0xE1221, size: 0x8, addend: 0x0, symName: '__ZN13pyo3_stub_gen9stub_type8builtins72_$LT$impl$u20$pyo3_stub_gen..stub_type..PyStubType$u20$for$u20$usize$GT$11type_output17hbc7583983099eaecE', symObjAddr: 0x83B0, symBinAddr: 0x262E4, symSize: 0x24 }
  - { offset: 0xE1C29, size: 0x8, addend: 0x0, symName: '__ZN88_$LT$hashbrown..scopeguard..ScopeGuard$LT$T$C$F$GT$$u20$as$u20$core..ops..drop..Drop$GT$4drop17h7d17df836da2efbcE', symObjAddr: 0x142B0, symBinAddr: 0x267F4, symSize: 0x2C }
  - { offset: 0xE1C63, size: 0x8, addend: 0x0, symName: '__ZN88_$LT$hashbrown..scopeguard..ScopeGuard$LT$T$C$F$GT$$u20$as$u20$core..ops..drop..Drop$GT$4drop17h8c4d1eee09de1d65E', symObjAddr: 0x142DC, symBinAddr: 0x26820, symSize: 0x2C }
  - { offset: 0xE1DE1, size: 0x8, addend: 0x0, symName: __ZN4pyo34sync21with_critical_section17he430e5838ac2f202E, symObjAddr: 0xB8F0, symBinAddr: 0x26308, symSize: 0x34 }
  - { offset: 0xE2D2D, size: 0x8, addend: 0x0, symName: '__ZN50_$LT$T$u20$as$u20$core..convert..Into$LT$U$GT$$GT$4into17h0770c76155b8ccc4E', symObjAddr: 0xB710, symBinAddr: 0x26BA0, symSize: 0x28 }
  - { offset: 0xE2D6D, size: 0x8, addend: 0x0, symName: '__ZN50_$LT$T$u20$as$u20$core..convert..Into$LT$U$GT$$GT$4into17hd2bfa4f5a40985edE', symObjAddr: 0xB738, symBinAddr: 0x26BC8, symSize: 0x28 }
  - { offset: 0xE309B, size: 0x8, addend: 0x0, symName: '__ZN4core4hash5impls52_$LT$impl$u20$core..hash..Hash$u20$for$u20$isize$GT$4hash17he6ca1e80ab64ac55E', symObjAddr: 0xAC94, symBinAddr: 0x26B68, symSize: 0x38 }
  - { offset: 0xE33AE, size: 0x8, addend: 0x0, symName: __ZN13pyo3_stub_gen9stub_type11collections23extract_type_identifier17h84b10c6817dfad0dE, symObjAddr: 0x9B38, symBinAddr: 0x2684C, symSize: 0x114 }
  - { offset: 0xE3404, size: 0x8, addend: 0x0, symName: __ZN13pyo3_stub_gen9stub_type11collections26build_type_refs_from_inner17h840a2ae2fbce5279E, symObjAddr: 0x9C4C, symBinAddr: 0x26960, symSize: 0x208 }
  - { offset: 0xE3997, size: 0x8, addend: 0x0, symName: '__ZN106_$LT$hashbrown..map..HashMap$LT$K$C$V$C$S$C$A$GT$$u20$as$u20$core..iter..traits..collect..IntoIterator$GT$9into_iter17h548d24115d2767b2E', symObjAddr: 0x0, symBinAddr: 0x26BF0, symSize: 0x6C }
  - { offset: 0xE3A34, size: 0x8, addend: 0x0, symName: '__ZN106_$LT$hashbrown..map..HashMap$LT$K$C$V$C$S$C$A$GT$$u20$as$u20$core..iter..traits..collect..IntoIterator$GT$9into_iter17h548d24115d2767b2E', symObjAddr: 0x0, symBinAddr: 0x26BF0, symSize: 0x6C }
  - { offset: 0xE3A87, size: 0x8, addend: 0x0, symName: '__ZN106_$LT$hashbrown..map..HashMap$LT$K$C$V$C$S$C$A$GT$$u20$as$u20$core..iter..traits..collect..IntoIterator$GT$9into_iter17hdd16c63286b60a8fE', symObjAddr: 0x6C, symBinAddr: 0x26C5C, symSize: 0x6C }
  - { offset: 0xE3CD5, size: 0x8, addend: 0x0, symName: '__ZN121_$LT$hashbrown..map..HashMap$LT$K$C$V$C$S$C$A$GT$$u20$as$u20$core..iter..traits..collect..Extend$LT$$LP$K$C$V$RP$$GT$$GT$6extend17h6112630f52f96b9cE', symObjAddr: 0x420, symBinAddr: 0x26CC8, symSize: 0x110 }
  - { offset: 0xE3DE1, size: 0x8, addend: 0x0, symName: '__ZN121_$LT$hashbrown..map..HashMap$LT$K$C$V$C$S$C$A$GT$$u20$as$u20$core..iter..traits..collect..Extend$LT$$LP$K$C$V$RP$$GT$$GT$6extend17hf82e2934ce461613E', symObjAddr: 0x634, symBinAddr: 0x26DD8, symSize: 0x110 }
  - { offset: 0xE3EF2, size: 0x8, addend: 0x0, symName: '__ZN121_$LT$hashbrown..map..HashMap$LT$K$C$V$C$S$C$A$GT$$u20$as$u20$core..iter..traits..collect..Extend$LT$$LP$K$C$V$RP$$GT$$GT$6extend28_$u7b$$u7b$closure$u7d$$u7d$17h1012cb4a604a9dd0E', symObjAddr: 0x744, symBinAddr: 0x26EE8, symSize: 0x44 }
  - { offset: 0xE3F85, size: 0x8, addend: 0x0, symName: '__ZN121_$LT$hashbrown..map..HashMap$LT$K$C$V$C$S$C$A$GT$$u20$as$u20$core..iter..traits..collect..Extend$LT$$LP$K$C$V$RP$$GT$$GT$6extend28_$u7b$$u7b$closure$u7d$$u7d$17h9fd2eaac76939a27E', symObjAddr: 0x80C, symBinAddr: 0x26F2C, symSize: 0x64 }
  - { offset: 0xE426E, size: 0x8, addend: 0x0, symName: '__ZN83_$LT$hashbrown..map..HashMap$LT$K$C$V$C$S$C$A$GT$$u20$as$u20$core..clone..Clone$GT$5clone17h819731071f8233b9E', symObjAddr: 0x11944, symBinAddr: 0x27E20, symSize: 0x84 }
  - { offset: 0xE42BE, size: 0x8, addend: 0x0, symName: '__ZN83_$LT$hashbrown..map..HashMap$LT$K$C$V$C$S$C$A$GT$$u20$as$u20$core..clone..Clone$GT$5clone17hb94113cba2082f47E', symObjAddr: 0x119C8, symBinAddr: 0x27EA4, symSize: 0x84 }
  - { offset: 0xE434D, size: 0x8, addend: 0x0, symName: '__ZN9hashbrown3map11make_hasher28_$u7b$$u7b$closure$u7d$$u7d$17h3d945ab40e3cf03bE', symObjAddr: 0x11F44, symBinAddr: 0x27F28, symSize: 0x3C }
  - { offset: 0xE43C9, size: 0x8, addend: 0x0, symName: '__ZN9hashbrown3map11make_hasher28_$u7b$$u7b$closure$u7d$$u7d$17h9cb00b946a5153bbE', symObjAddr: 0x11FBC, symBinAddr: 0x27F64, symSize: 0x3C }
  - { offset: 0xE44AA, size: 0x8, addend: 0x0, symName: '__ZN9hashbrown3map14equivalent_key28_$u7b$$u7b$closure$u7d$$u7d$17h29b1e51a53a5f6c6E', symObjAddr: 0x11FF8, symBinAddr: 0x27FA0, symSize: 0x30 }
  - { offset: 0xE4501, size: 0x8, addend: 0x0, symName: '__ZN9hashbrown3map14equivalent_key28_$u7b$$u7b$closure$u7d$$u7d$17hd288ff6038046581E', symObjAddr: 0x120D0, symBinAddr: 0x27FD0, symSize: 0x30 }
  - { offset: 0xE6F69, size: 0x8, addend: 0x0, symName: '__ZN4core3ptr100drop_in_place$LT$std..collections..hash..set..HashSet$LT$pyo3_stub_gen..stub_type..ImportRef$GT$$GT$17hf3c40d0a256ca5d5E', symObjAddr: 0x2D38, symBinAddr: 0x272AC, symSize: 0x24 }
  - { offset: 0xE6F98, size: 0x8, addend: 0x0, symName: '__ZN4core3ptr101drop_in_place$LT$std..collections..hash..set..IntoIter$LT$pyo3_stub_gen..stub_type..ImportRef$GT$$GT$17h3cc2e4fc28f00c38E', symObjAddr: 0x2D80, symBinAddr: 0x272D0, symSize: 0x24 }
  - { offset: 0xE6FC7, size: 0x8, addend: 0x0, symName: '__ZN4core3ptr107drop_in_place$LT$hashbrown..raw..RawTable$LT$$LP$pyo3_stub_gen..stub_type..ImportRef$C$$LP$$RP$$RP$$GT$$GT$17hf3409d9a0f0abcceE', symObjAddr: 0x2FA0, symBinAddr: 0x272F4, symSize: 0x24 }
  - { offset: 0xE6FF6, size: 0x8, addend: 0x0, symName: '__ZN4core3ptr110drop_in_place$LT$hashbrown..raw..RawIntoIter$LT$$LP$pyo3_stub_gen..stub_type..ImportRef$C$$LP$$RP$$RP$$GT$$GT$17h7d8fb0886e7c3d76E', symObjAddr: 0x308C, symBinAddr: 0x27318, symSize: 0x24 }
  - { offset: 0xE7025, size: 0x8, addend: 0x0, symName: '__ZN4core3ptr120drop_in_place$LT$hashbrown..map..IntoIter$LT$alloc..string..String$C$pyo3_stub_gen..stub_type..TypeIdentifierRef$GT$$GT$17h1c653f731df2941eE', symObjAddr: 0x340C, symBinAddr: 0x2733C, symSize: 0x24 }
  - { offset: 0xE7054, size: 0x8, addend: 0x0, symName: '__ZN4core3ptr120drop_in_place$LT$hashbrown..set..HashSet$LT$pyo3_stub_gen..stub_type..ImportRef$C$std..hash..random..RandomState$GT$$GT$17h283c9a43a83f2c88E', symObjAddr: 0x3430, symBinAddr: 0x27360, symSize: 0x24 }
  - { offset: 0xE7083, size: 0x8, addend: 0x0, symName: '__ZN4core3ptr128drop_in_place$LT$hashbrown..raw..RawTable$LT$$LP$alloc..string..String$C$pyo3_stub_gen..stub_type..TypeIdentifierRef$RP$$GT$$GT$17h9ebee56125881c06E', symObjAddr: 0x3810, symBinAddr: 0x27384, symSize: 0x24 }
  - { offset: 0xE70B2, size: 0x8, addend: 0x0, symName: '__ZN4core3ptr131drop_in_place$LT$hashbrown..map..HashMap$LT$pyo3_stub_gen..stub_type..ImportRef$C$$LP$$RP$$C$std..hash..random..RandomState$GT$$GT$17h77c11167eb830e40E', symObjAddr: 0x3954, symBinAddr: 0x273A8, symSize: 0x24 }
  - { offset: 0xE70E1, size: 0x8, addend: 0x0, symName: '__ZN4core3ptr131drop_in_place$LT$hashbrown..raw..RawIntoIter$LT$$LP$alloc..string..String$C$pyo3_stub_gen..stub_type..TypeIdentifierRef$RP$$GT$$GT$17hd596058de6e62f2fE', symObjAddr: 0x3978, symBinAddr: 0x273CC, symSize: 0x24 }
  - { offset: 0xE7110, size: 0x8, addend: 0x0, symName: '__ZN4core3ptr132drop_in_place$LT$std..collections..hash..map..HashMap$LT$alloc..string..String$C$pyo3_stub_gen..stub_type..TypeIdentifierRef$GT$$GT$17hded1c7c82f7dcb0dE', symObjAddr: 0x3A08, symBinAddr: 0x273F0, symSize: 0x24 }
  - { offset: 0xE713F, size: 0x8, addend: 0x0, symName: '__ZN4core3ptr133drop_in_place$LT$std..collections..hash..map..IntoIter$LT$alloc..string..String$C$pyo3_stub_gen..stub_type..TypeIdentifierRef$GT$$GT$17h3dc3155668c3c7eaE', symObjAddr: 0x3A2C, symBinAddr: 0x27414, symSize: 0x24 }
  - { offset: 0xE716E, size: 0x8, addend: 0x0, symName: '__ZN4core3ptr152drop_in_place$LT$hashbrown..map..HashMap$LT$alloc..string..String$C$pyo3_stub_gen..stub_type..TypeIdentifierRef$C$std..hash..random..RandomState$GT$$GT$17hc2cf5f3df8837803E', symObjAddr: 0x3F30, symBinAddr: 0x27438, symSize: 0x24 }
  - { offset: 0xE719D, size: 0x8, addend: 0x0, symName: '__ZN4core3ptr311drop_in_place$LT$hashbrown..scopeguard..ScopeGuard$LT$$LP$usize$C$$RF$mut$u20$hashbrown..raw..RawTable$LT$$LP$pyo3_stub_gen..stub_type..ImportRef$C$$LP$$RP$$RP$$GT$$RP$$C$hashbrown..raw..RawTable$LT$$LP$pyo3_stub_gen..stub_type..ImportRef$C$$LP$$RP$$RP$$GT$..clone_from_impl..$u7b$$u7b$closure$u7d$$u7d$$GT$$GT$17h8afa5d317069456fE', symObjAddr: 0x52BC, symBinAddr: 0x2745C, symSize: 0x24 }
  - { offset: 0xE71CC, size: 0x8, addend: 0x0, symName: '__ZN4core3ptr353drop_in_place$LT$hashbrown..scopeguard..ScopeGuard$LT$$LP$usize$C$$RF$mut$u20$hashbrown..raw..RawTable$LT$$LP$alloc..string..String$C$pyo3_stub_gen..stub_type..TypeIdentifierRef$RP$$GT$$RP$$C$hashbrown..raw..RawTable$LT$$LP$alloc..string..String$C$pyo3_stub_gen..stub_type..TypeIdentifierRef$RP$$GT$..clone_from_impl..$u7b$$u7b$closure$u7d$$u7d$$GT$$GT$17hfe58eeb34f707e56E', symObjAddr: 0x54D8, symBinAddr: 0x27480, symSize: 0x24 }
  - { offset: 0xE71FB, size: 0x8, addend: 0x0, symName: '__ZN4core3ptr463drop_in_place$LT$core..iter..adapters..map..Map$LT$std..collections..hash..set..IntoIter$LT$pyo3_stub_gen..stub_type..ImportRef$GT$$C$$LT$hashbrown..set..HashSet$LT$pyo3_stub_gen..stub_type..ImportRef$C$std..hash..random..RandomState$GT$$u20$as$u20$core..iter..traits..collect..Extend$LT$pyo3_stub_gen..stub_type..ImportRef$GT$$GT$..extend$LT$std..collections..hash..set..HashSet$LT$pyo3_stub_gen..stub_type..ImportRef$GT$$GT$..$u7b$$u7b$closure$u7d$$u7d$$GT$$GT$17h3184cd319d6531d2E', symObjAddr: 0x573C, symBinAddr: 0x274A4, symSize: 0x24 }
  - { offset: 0xE722A, size: 0x8, addend: 0x0, symName: '__ZN4core3ptr54drop_in_place$LT$pyo3_stub_gen..stub_type..TypeRef$GT$17hf48437e72151edbeE', symObjAddr: 0x59E4, symBinAddr: 0x274C8, symSize: 0x5C }
  - { offset: 0xE7259, size: 0x8, addend: 0x0, symName: '__ZN4core3ptr55drop_in_place$LT$pyo3_stub_gen..stub_type..TypeInfo$GT$17hb1f726da860d38b9E', symObjAddr: 0x5B98, symBinAddr: 0x27524, symSize: 0xC0 }
  - { offset: 0xE7288, size: 0x8, addend: 0x0, symName: '__ZN4core3ptr56drop_in_place$LT$pyo3_stub_gen..stub_type..ImportRef$GT$17hffa6740c12452fe7E', symObjAddr: 0x5E08, symBinAddr: 0x275E4, symSize: 0x58 }
  - { offset: 0xE72B7, size: 0x8, addend: 0x0, symName: '__ZN4core3ptr56drop_in_place$LT$pyo3_stub_gen..stub_type..ModuleRef$GT$17hb2154368fdec0525E', symObjAddr: 0x5E60, symBinAddr: 0x2763C, symSize: 0x4C }
  - { offset: 0xE72E6, size: 0x8, addend: 0x0, symName: '__ZN4core3ptr57drop_in_place$LT$pyo3..types..list..BoundListIterator$GT$17h856925b2c8592b7dE', symObjAddr: 0x5ED0, symBinAddr: 0x27688, symSize: 0x24 }
  - { offset: 0xE7315, size: 0x8, addend: 0x0, symName: '__ZN4core3ptr64drop_in_place$LT$pyo3_stub_gen..stub_type..TypeIdentifierRef$GT$17hb31a6f81ed71d511E', symObjAddr: 0x6FA0, symBinAddr: 0x276AC, symSize: 0x24 }
  - { offset: 0xE7344, size: 0x8, addend: 0x0, symName: '__ZN4core3ptr75drop_in_place$LT$$LP$pyo3_stub_gen..stub_type..ImportRef$C$$LP$$RP$$RP$$GT$17hc5d413579fc2606dE', symObjAddr: 0x82BC, symBinAddr: 0x276D0, symSize: 0x24 }
  - { offset: 0xE7373, size: 0x8, addend: 0x0, symName: '__ZN4core3ptr84drop_in_place$LT$core..option..Option$LT$pyo3_stub_gen..stub_type..ModuleRef$GT$$GT$17h5cc8abd9213bea6cE', symObjAddr: 0x8B00, symBinAddr: 0x276F4, symSize: 0x48 }
  - { offset: 0xE73A2, size: 0x8, addend: 0x0, symName: '__ZN4core3ptr88drop_in_place$LT$hashbrown..set..IntoIter$LT$pyo3_stub_gen..stub_type..ImportRef$GT$$GT$17hb342f264c0a1d8a3E', symObjAddr: 0x9124, symBinAddr: 0x2773C, symSize: 0x24 }
  - { offset: 0xE73D1, size: 0x8, addend: 0x0, symName: '__ZN4core3ptr92drop_in_place$LT$core..option..Option$LT$pyo3_stub_gen..stub_type..TypeIdentifierRef$GT$$GT$17h52d4de16369aa472E', symObjAddr: 0x9660, symBinAddr: 0x27760, symSize: 0x48 }
  - { offset: 0xE7400, size: 0x8, addend: 0x0, symName: '__ZN4core3ptr96drop_in_place$LT$$LP$alloc..string..String$C$pyo3_stub_gen..stub_type..TypeIdentifierRef$RP$$GT$17hde38f620f377aaabE', symObjAddr: 0x9940, symBinAddr: 0x277A8, symSize: 0x60 }
  - { offset: 0xE742F, size: 0x8, addend: 0x0, symName: '__ZN4core3ptr99drop_in_place$LT$hashbrown..map..IntoIter$LT$pyo3_stub_gen..stub_type..ImportRef$C$$LP$$RP$$GT$$GT$17h000236e4e273d087E', symObjAddr: 0x9C10, symBinAddr: 0x27808, symSize: 0x24 }
  - { offset: 0xEA85A, size: 0x8, addend: 0x0, symName: '__ZN4core3ops8function6FnOnce40call_once$u7b$$u7b$vtable.shim$u7d$$u7d$17h2b8716633ead44d4E', symObjAddr: 0x2368, symBinAddr: 0x26F90, symSize: 0x38 }
  - { offset: 0xEA89E, size: 0x8, addend: 0x0, symName: '__ZN4core3ops8function6FnOnce40call_once$u7b$$u7b$vtable.shim$u7d$$u7d$17h5dd7b956baf98984E', symObjAddr: 0x2448, symBinAddr: 0x26FC8, symSize: 0x38 }
  - { offset: 0xEA8E2, size: 0x8, addend: 0x0, symName: '__ZN4core3ops8function6FnOnce40call_once$u7b$$u7b$vtable.shim$u7d$$u7d$17hbfc2ba8b9874e695E', symObjAddr: 0x24B8, symBinAddr: 0x27000, symSize: 0x38 }
  - { offset: 0xEA926, size: 0x8, addend: 0x0, symName: '__ZN4core3ops8function6FnOnce40call_once$u7b$$u7b$vtable.shim$u7d$$u7d$17hf03208115b9f23c1E', symObjAddr: 0x2560, symBinAddr: 0x27038, symSize: 0x38 }
  - { offset: 0xEA96A, size: 0x8, addend: 0x0, symName: __ZN4core3ops8function6FnOnce9call_once17h01b7405ccdb2ce3aE, symObjAddr: 0x2598, symBinAddr: 0x27070, symSize: 0x58 }
  - { offset: 0xEA9AE, size: 0x8, addend: 0x0, symName: __ZN4core3ops8function6FnOnce9call_once17h53888af3a370f5d1E, symObjAddr: 0x2710, symBinAddr: 0x270C8, symSize: 0x44 }
  - { offset: 0xEA9EE, size: 0x8, addend: 0x0, symName: __ZN4core3ops8function6FnOnce9call_once17h6297f31956a54507E, symObjAddr: 0x2850, symBinAddr: 0x2710C, symSize: 0x5C }
  - { offset: 0xEAA32, size: 0x8, addend: 0x0, symName: __ZN4core3ops8function6FnOnce9call_once17h76377e13f36a84c3E, symObjAddr: 0x28D0, symBinAddr: 0x27168, symSize: 0x4C }
  - { offset: 0xEAA76, size: 0x8, addend: 0x0, symName: __ZN4core3ops8function6FnOnce9call_once17h9008a12ac2beb6aeE, symObjAddr: 0x2A48, symBinAddr: 0x271B4, symSize: 0x58 }
  - { offset: 0xEAABA, size: 0x8, addend: 0x0, symName: __ZN4core3ops8function6FnOnce9call_once17hcbc901b89c93e144E, symObjAddr: 0x2BCC, symBinAddr: 0x2720C, symSize: 0x5C }
  - { offset: 0xEAAFE, size: 0x8, addend: 0x0, symName: __ZN4core3ops8function6FnOnce9call_once17hd9ce2d59df4e9cf4E, symObjAddr: 0x2C54, symBinAddr: 0x27268, symSize: 0x44 }
  - { offset: 0xEAB4B, size: 0x8, addend: 0x0, symName: __ZN4core5clone5Clone5clone17h77cf62e5947c61fbE, symObjAddr: 0xA428, symBinAddr: 0x27B78, symSize: 0x68 }
  - { offset: 0xEAB7C, size: 0x8, addend: 0x0, symName: __ZN4core5clone5Clone5clone17he56006715aedc33fE, symObjAddr: 0xA490, symBinAddr: 0x27BE0, symSize: 0x24 }
  - { offset: 0xEAC0F, size: 0x8, addend: 0x0, symName: __ZN4core4char7methods15encode_utf8_raw8do_panic7runtime17ha7783827eeaee0ceE, symObjAddr: 0x9D34, symBinAddr: 0x2792C, symSize: 0xC4 }
  - { offset: 0xEAD0C, size: 0x8, addend: 0x0, symName: __ZN4core4char7methods15encode_utf8_raw17hb52c42b74284b836E, symObjAddr: 0x9C34, symBinAddr: 0x2782C, symSize: 0x100 }
  - { offset: 0xEAE46, size: 0x8, addend: 0x0, symName: __ZN4core4char7methods25encode_utf8_raw_unchecked17hf9a6bba5149a4a66E, symObjAddr: 0xA1F8, symBinAddr: 0x279F0, symSize: 0x188 }
  - { offset: 0xEB38A, size: 0x8, addend: 0x0, symName: __ZN4core9core_arch7aarch644neon9generated7vld1_u817h26ee96da67de4a9fE, symObjAddr: 0xA7DC, symBinAddr: 0x27C04, symSize: 0x34 }
  - { offset: 0xEB3B8, size: 0x8, addend: 0x0, symName: __ZN4core9core_arch7aarch644neon9generated7vst1_u817h537b1c7ccf9d1e42E, symObjAddr: 0xA810, symBinAddr: 0x27C38, symSize: 0x40 }
  - { offset: 0xEB3F2, size: 0x8, addend: 0x0, symName: __ZN4core9core_arch7aarch644neon9generated8vcgez_s817h3e8862b278a8de11E, symObjAddr: 0xA850, symBinAddr: 0x27C78, symSize: 0x68 }
  - { offset: 0xEB494, size: 0x8, addend: 0x0, symName: __ZN4core9core_arch7aarch644neon9generated8vcltz_s817hf7e69bde1e7279a8E, symObjAddr: 0xA8B8, symBinAddr: 0x27CE0, symSize: 0x68 }
  - { offset: 0xED05A, size: 0x8, addend: 0x0, symName: __ZN5alloc3fmt6format17h617d2e912c7a239bE, symObjAddr: 0xAA24, symBinAddr: 0x27D48, symSize: 0xD8 }
  - { offset: 0xF0906, size: 0x8, addend: 0x0, symName: '__ZN9hashbrown3map24HashMap$LT$K$C$V$C$S$GT$24with_capacity_and_hasher17he71f732d2754a7b2E', symObjAddr: 0x12100, symBinAddr: 0x28000, symSize: 0x78 }
  - { offset: 0xF0AD7, size: 0x8, addend: 0x0, symName: '__ZN9hashbrown3map28HashMap$LT$K$C$V$C$S$C$A$GT$6insert17h79a2830294ecdaf5E', symObjAddr: 0x1255C, symBinAddr: 0x28078, symSize: 0x1E0 }
  - { offset: 0xF0DC3, size: 0x8, addend: 0x0, symName: '__ZN9hashbrown3map28HashMap$LT$K$C$V$C$S$C$A$GT$6insert17hf965fb45bb91e3f4E', symObjAddr: 0x128CC, symBinAddr: 0x28258, symSize: 0x228 }
  - { offset: 0xF12F2, size: 0x8, addend: 0x0, symName: '__ZN4core3num23_$LT$impl$u20$usize$GT$11checked_add17haae3816489f9f0b4E', symObjAddr: 0x1E14, symBinAddr: 0x28480, symSize: 0x7C }
  - { offset: 0xF1359, size: 0x8, addend: 0x0, symName: __ZN4core3ptr19copy_nonoverlapping18precondition_check17h5906bfdfe90ac6afE, symObjAddr: 0x1FE4, symBinAddr: 0x284FC, symSize: 0x168 }
  - { offset: 0xF1781, size: 0x8, addend: 0x0, symName: __ZN4core5slice3raw14from_raw_parts18precondition_check17hc80962454c725a4bE, symObjAddr: 0x37A0, symBinAddr: 0x28664, symSize: 0x10C }
  - { offset: 0xF189D, size: 0x8, addend: 0x0, symName: __ZN4core5slice3raw18from_raw_parts_mut18precondition_check17h6a1d51a0a7becbf6E, symObjAddr: 0x38AC, symBinAddr: 0x28770, symSize: 0x10C }
  - { offset: 0xF1C21, size: 0x8, addend: 0x0, symName: '__ZN4core3str74_$LT$impl$u20$core..convert..AsRef$LT$$u5b$u8$u5d$$GT$$u20$for$u20$str$GT$6as_ref17h2a6ae46888d39534E', symObjAddr: 0xAF0, symBinAddr: 0x2887C, symSize: 0x18 }
  - { offset: 0xF1E3F, size: 0x8, addend: 0x0, symName: '__ZN62_$LT$alloc..string..String$u20$as$u20$core..cmp..PartialEq$GT$2eq17h7e1f375fb63329eeE', symObjAddr: 0x363C, symBinAddr: 0x2896C, symSize: 0x2C }
  - { offset: 0xF21FE, size: 0x8, addend: 0x0, symName: '__ZN5alloc5slice29_$LT$impl$u20$$u5b$T$u5d$$GT$4join17ha36c9acce1aab8d5E', symObjAddr: 0x3258, symBinAddr: 0x28938, symSize: 0x34 }
  - { offset: 0xF2259, size: 0x8, addend: 0x0, symName: '__ZN5alloc3str75_$LT$impl$u20$alloc..slice..Join$LT$$RF$str$GT$$u20$for$u20$$u5b$S$u5d$$GT$4join17h9eddb9d76a7477adE', symObjAddr: 0x3120, symBinAddr: 0x288C8, symSize: 0x50 }
  - { offset: 0xF22BF, size: 0x8, addend: 0x0, symName: '__ZN5alloc3str83_$LT$impl$u20$core..borrow..Borrow$LT$str$GT$$u20$for$u20$alloc..string..String$GT$6borrow17hbff5b85796c9d2f1E', symObjAddr: 0x3170, symBinAddr: 0x28918, symSize: 0x20 }
  - { offset: 0xF24D9, size: 0x8, addend: 0x0, symName: '__ZN4core3cmp5impls69_$LT$impl$u20$core..cmp..PartialEq$LT$$RF$B$GT$$u20$for$u20$$RF$A$GT$2eq17h224801c5f5e1aecfE', symObjAddr: 0x1688, symBinAddr: 0x28894, symSize: 0x34 }
  - { offset: 0xF28A0, size: 0x8, addend: 0x0, symName: '__ZN4core3ptr9const_ptr33_$LT$impl$u20$$BP$const$u20$T$GT$20offset_from_unsigned18precondition_check17h3521fbe6440c7d2cE', symObjAddr: 0x894, symBinAddr: 0x28998, symSize: 0x60 }
  - { offset: 0xF2AA2, size: 0x8, addend: 0x0, symName: '__ZN91_$LT$core..slice..iter..Iter$LT$T$GT$$u20$as$u20$core..iter..traits..iterator..Iterator$GT$4next17h2dbdde4857f3834eE', symObjAddr: 0x29F4, symBinAddr: 0x28B70, symSize: 0x84 }
  - { offset: 0xF2BC1, size: 0x8, addend: 0x0, symName: __ZN4core4iter6traits8iterator8Iterator8try_fold17h822020eb07b44c1aE, symObjAddr: 0x1304, symBinAddr: 0x289F8, symSize: 0x178 }
  - { offset: 0xF33A5, size: 0x8, addend: 0x0, symName: '__ZN4core4iter8adapters3map12map_try_fold28_$u7b$$u7b$closure$u7d$$u7d$17hb619289502a75433E', symObjAddr: 0xED4, symBinAddr: 0x28C04, symSize: 0xA8 }
  - { offset: 0xF34C9, size: 0x8, addend: 0x0, symName: '__ZN145_$LT$core..option..Option$LT$T$GT$$u20$as$u20$core..ops..try_trait..FromResidual$LT$core..option..Option$LT$core..convert..Infallible$GT$$GT$$GT$13from_residual17h31e16c4e57df5eceE', symObjAddr: 0xB70, symBinAddr: 0x28BF4, symSize: 0x10 }
  - { offset: 0xF3628, size: 0x8, addend: 0x0, symName: '__ZN75_$LT$core..option..Option$LT$T$GT$$u20$as$u20$core..ops..try_trait..Try$GT$11from_output17ha0175023a2246eb0E', symObjAddr: 0x3894, symBinAddr: 0x28CAC, symSize: 0x1C }
  - { offset: 0xF365F, size: 0x8, addend: 0x0, symName: '__ZN75_$LT$core..option..Option$LT$T$GT$$u20$as$u20$core..ops..try_trait..Try$GT$6branch17h9c0e6506bc219f79E', symObjAddr: 0x38F8, symBinAddr: 0x28CC8, symSize: 0x48 }
  - { offset: 0xF3D9C, size: 0x8, addend: 0x0, symName: __ZN4core3ops8function5FnMut8call_mut17h305def3a39447f09E, symObjAddr: 0x9A8, symBinAddr: 0x28D10, symSize: 0x30 }
  - { offset: 0xF40D0, size: 0x8, addend: 0x0, symName: '__ZN4core5slice29_$LT$impl$u20$$u5b$T$u5d$$GT$12split_at_mut17hd68d57fcdd9417fcE', symObjAddr: 0x1008, symBinAddr: 0x28DEC, symSize: 0xAC }
  - { offset: 0xF415B, size: 0x8, addend: 0x0, symName: '__ZN4core5slice29_$LT$impl$u20$$u5b$T$u5d$$GT$22split_at_mut_unchecked17h9eb86217b2a6b190E', symObjAddr: 0x10B4, symBinAddr: 0x28E98, symSize: 0xE8 }
  - { offset: 0xF4272, size: 0x8, addend: 0x0, symName: '__ZN4core5slice29_$LT$impl$u20$$u5b$T$u5d$$GT$22split_at_mut_unchecked18precondition_check17h25036e310af7954aE', symObjAddr: 0x119C, symBinAddr: 0x28F80, symSize: 0x60 }
  - { offset: 0xF42C7, size: 0x8, addend: 0x0, symName: __ZN4core5slice20copy_from_slice_impl17ha3c9ff3bb383c021E, symObjAddr: 0xF5C, symBinAddr: 0x28D40, symSize: 0xAC }
  - { offset: 0xF5781, size: 0x8, addend: 0x0, symName: '__ZN5alloc3str17join_generic_copy28_$u7b$$u7b$closure$u7d$$u7d$28_$u7b$$u7b$closure$u7d$$u7d$17hb3af780a9fc668d2E', symObjAddr: 0x21EC, symBinAddr: 0x2A080, symSize: 0x38 }
  - { offset: 0xF5872, size: 0x8, addend: 0x0, symName: __ZN5alloc3str17join_generic_copy17h7d36aa58e8a427d1E, symObjAddr: 0x84, symBinAddr: 0x28FE0, symSize: 0x10A0 }
  - { offset: 0xF7C61, size: 0x8, addend: 0x0, symName: '__ZN106_$LT$core..ops..range..Range$LT$usize$GT$$u20$as$u20$core..slice..index..SliceIndex$LT$$u5b$T$u5d$$GT$$GT$17get_unchecked_mut18precondition_check17hb4db1d00dda9a47cE', symObjAddr: 0x80, symBinAddr: 0x2A0B8, symSize: 0x80 }
  - { offset: 0xF7E39, size: 0x8, addend: 0x0, symName: __ZN4core9ub_checks23maybe_is_nonoverlapping7runtime17hf0254bff999c6565E, symObjAddr: 0x166C, symBinAddr: 0x2A138, symSize: 0xD8 }
  - { offset: 0xFA619, size: 0x8, addend: 0x0, symName: '__ZN132_$LT$alloc..vec..Vec$LT$T$C$A$GT$$u20$as$u20$alloc..vec..spec_extend..SpecExtend$LT$$RF$T$C$core..slice..iter..Iter$LT$T$GT$$GT$$GT$11spec_extend17h10a1cb59b7a33235E', symObjAddr: 0x734, symBinAddr: 0x2A210, symSize: 0xB0 }
  - { offset: 0xFA830, size: 0x8, addend: 0x0, symName: '__ZN72_$LT$alloc..vec..Vec$LT$T$C$A$GT$$u20$as$u20$core..ops..deref..Deref$GT$5deref17h1b79502d8b15a0a4E', symObjAddr: 0x2098, symBinAddr: 0x2A388, symSize: 0x20 }
  - { offset: 0xFA944, size: 0x8, addend: 0x0, symName: '__ZN5alloc3vec10partial_eq117_$LT$impl$u20$core..cmp..PartialEq$LT$alloc..vec..Vec$LT$U$C$A2$GT$$GT$$u20$for$u20$alloc..vec..Vec$LT$T$C$A1$GT$$GT$2eq17hf5d75df007e31ea5E', symObjAddr: 0x7E4, symBinAddr: 0x2A2C0, symSize: 0x54 }
  - { offset: 0xFADA7, size: 0x8, addend: 0x0, symName: '__ZN5alloc3vec16Vec$LT$T$C$A$GT$7set_len18precondition_check17hfd8f09e3f6a8b04dE', symObjAddr: 0x15C8, symBinAddr: 0x2A328, symSize: 0x60 }
  - { offset: 0xFB631, size: 0x8, addend: 0x0, symName: '__ZN5alloc3vec12Vec$LT$T$GT$3new17h2475b44656a91cfbE', symObjAddr: 0x8C0, symBinAddr: 0x2A314, symSize: 0x14 }
  - { offset: 0xFC880, size: 0x8, addend: 0x0, symName: '__ZN5alloc3vec16Vec$LT$T$C$A$GT$15append_elements17h9093ea86f830ff1cE', symObjAddr: 0x9430, symBinAddr: 0x2A3A8, symSize: 0xD4 }
  - { offset: 0xFCB39, size: 0x8, addend: 0x0, symName: __ZN4core3ptr19copy_nonoverlapping18precondition_check17hd721133e2ef0d023E, symObjAddr: 0x3354, symBinAddr: 0x2A47C, symSize: 0x168 }
  - { offset: 0xFD83C, size: 0x8, addend: 0x0, symName: __ZN4core9ub_checks23maybe_is_nonoverlapping7runtime17h458069e8f061d523E, symObjAddr: 0x2A90, symBinAddr: 0x2A64C, symSize: 0xD8 }
  - { offset: 0xFDB62, size: 0x8, addend: 0x0, symName: '__ZN4core6option15Option$LT$T$GT$9unwrap_or17h2f3ccba1f6fe88a2E', symObjAddr: 0x2990, symBinAddr: 0x2A5E4, symSize: 0x68 }
  - { offset: 0xFDBDC, size: 0x8, addend: 0x0, symName: '__ZN73_$LT$$u5b$A$u5d$$u20$as$u20$core..slice..cmp..SlicePartialEq$LT$B$GT$$GT$5equal17h11aca61c627c0399E', symObjAddr: 0x23EC, symBinAddr: 0x2A7AC, symSize: 0x88 }
  - { offset: 0xFDCBA, size: 0x8, addend: 0x0, symName: '__ZN4core3ptr9const_ptr33_$LT$impl$u20$$BP$const$u20$T$GT$13is_aligned_to17h65d3ccfcec0ef96fE', symObjAddr: 0x930, symBinAddr: 0x2A724, symSize: 0x88 }
  - { offset: 0xFDE83, size: 0x8, addend: 0x0, symName: '__ZN70_$LT$core..num..error..TryFromIntError$u20$as$u20$core..fmt..Debug$GT$3fmt17hc00ddfea96fc2fedE', symObjAddr: 0x25FC, symBinAddr: 0x2ACB0, symSize: 0x54 }
  - { offset: 0xFE34A, size: 0x8, addend: 0x0, symName: __ZN4core3ptr19copy_nonoverlapping18precondition_check17h4d3cbfa693b3da9dE, symObjAddr: 0xFC0, symBinAddr: 0x2A87C, symSize: 0x168 }
  - { offset: 0xFE4FF, size: 0x8, addend: 0x0, symName: '__ZN4core3ptr42drop_in_place$LT$alloc..string..String$GT$17hd1581518bbaaab6bE', symObjAddr: 0x1128, symBinAddr: 0x2A9E4, symSize: 0x24 }
  - { offset: 0xFE52E, size: 0x8, addend: 0x0, symName: '__ZN4core3ptr46drop_in_place$LT$alloc..vec..Vec$LT$u8$GT$$GT$17hfc1ef41982b45066E', symObjAddr: 0x114C, symBinAddr: 0x2AA08, symSize: 0x5C }
  - { offset: 0xFE55D, size: 0x8, addend: 0x0, symName: '__ZN4core3ptr53drop_in_place$LT$alloc..raw_vec..RawVec$LT$u8$GT$$GT$17h66c851a89ce53c2bE', symObjAddr: 0x11F0, symBinAddr: 0x2AA64, symSize: 0x24 }
  - { offset: 0xFE59C, size: 0x8, addend: 0x0, symName: __ZN4core3ops8function6FnOnce9call_once17h80f4c3eedda44609E, symObjAddr: 0xF60, symBinAddr: 0x2A850, symSize: 0x2C }
  - { offset: 0xFEA35, size: 0x8, addend: 0x0, symName: __ZN4core4hint16assert_unchecked18precondition_check17h0fb8ec6c0a0904d6E, symObjAddr: 0x1D90, symBinAddr: 0x2AA88, symSize: 0x58 }
  - { offset: 0xFEBF1, size: 0x8, addend: 0x0, symName: '__ZN5alloc3vec16Vec$LT$T$C$A$GT$7set_len18precondition_check17h3598fa060e37ce06E', symObjAddr: 0x2038, symBinAddr: 0x2AB60, symSize: 0x60 }
  - { offset: 0xFEDC1, size: 0x8, addend: 0x0, symName: '__ZN5alloc3fmt6format28_$u7b$$u7b$closure$u7d$$u7d$17hf7acbe16d2c508f7E', symObjAddr: 0x1FB8, symBinAddr: 0x2AAE0, symSize: 0x30 }
  - { offset: 0xFEE9A, size: 0x8, addend: 0x0, symName: '__ZN5alloc3str56_$LT$impl$u20$alloc..borrow..ToOwned$u20$for$u20$str$GT$8to_owned17h5a81516c0adffa5eE', symObjAddr: 0x1FE8, symBinAddr: 0x2AB10, symSize: 0x50 }
  - { offset: 0xFF0CC, size: 0x8, addend: 0x0, symName: __ZN4core3fmt9Arguments3new17h1ba0fffc31f3af7bE, symObjAddr: 0xBF0, symBinAddr: 0x2A834, symSize: 0x1C }
  - { offset: 0xFF29C, size: 0x8, addend: 0x0, symName: '__ZN5alloc7raw_vec20RawVecInner$LT$A$GT$16with_capacity_in17h4632fa68127cafb7E', symObjAddr: 0x2098, symBinAddr: 0x2ABC0, symSize: 0xF0 }
  - { offset: 0xFFEAF, size: 0x8, addend: 0x0, symName: __ZN4core9ub_checks23maybe_is_nonoverlapping7runtime17h2c9fdfcc221d2dafE, symObjAddr: 0x2840, symBinAddr: 0x2AE48, symSize: 0xD8 }
  - { offset: 0x100607, size: 0x8, addend: 0x0, symName: '__ZN87_$LT$T$u20$as$u20$alloc..slice..$LT$impl$u20$$u5b$T$u5d$$GT$..to_vec_in..ConvertVec$GT$6to_vec17h124852619d0016c4E', symObjAddr: 0x2E78, symBinAddr: 0x2AF20, symSize: 0xF4 }
  - { offset: 0x10084A, size: 0x8, addend: 0x0, symName: '__ZN4core6option15Option$LT$T$GT$11map_or_else17h562c7ef0402d1fd1E', symObjAddr: 0x15EC, symBinAddr: 0x2AD04, symSize: 0xC0 }
  - { offset: 0x100905, size: 0x8, addend: 0x0, symName: '__ZN4core6result19Result$LT$T$C$E$GT$6expect17h7264db99650fca25E', symObjAddr: 0x1CE4, symBinAddr: 0x2ADC4, symSize: 0x84 }
  - { offset: 0x1022B1, size: 0x8, addend: 0x0, symName: '__ZN51_$LT$T$u20$as$u20$core..borrow..Borrow$LT$T$GT$$GT$6borrow17h773ecbdf7b681918E', symObjAddr: 0x3FE8, symBinAddr: 0x2B014, symSize: 0x14 }
  - { offset: 0x102D0A, size: 0x8, addend: 0x0, symName: __ZN4core3fmt9Arguments3new17ha56e43bef62c6b9bE, symObjAddr: 0xD10, symBinAddr: 0x2B028, symSize: 0x1C }
  - { offset: 0x102E48, size: 0x8, addend: 0x0, symName: '__ZN4core3num23_$LT$impl$u20$usize$GT$13unchecked_add18precondition_check17h59f991e3e53ed105E', symObjAddr: 0x414, symBinAddr: 0x2B094, symSize: 0x64 }
  - { offset: 0x102ED3, size: 0x8, addend: 0x0, symName: '__ZN49_$LT$usize$u20$as$u20$core..iter..range..Step$GT$17forward_unchecked17h386649c60166f0ccE', symObjAddr: 0x16C, symBinAddr: 0x2B044, symSize: 0x50 }
  - { offset: 0x1031A7, size: 0x8, addend: 0x0, symName: '__ZN107_$LT$core..ops..range..RangeInclusive$LT$T$GT$$u20$as$u20$core..iter..range..RangeInclusiveIteratorImpl$GT$9spec_next17h8b6ea9abb2026421E', symObjAddr: 0x150, symBinAddr: 0x2B0F8, symSize: 0xF8 }
  - { offset: 0x1032A8, size: 0x8, addend: 0x0, symName: '__ZN4core4iter5range110_$LT$impl$u20$core..iter..traits..iterator..Iterator$u20$for$u20$core..ops..range..RangeInclusive$LT$A$GT$$GT$4next17h6e3cfcad7da6662fE', symObjAddr: 0x4060, symBinAddr: 0x2B1F0, symSize: 0x24 }
  - { offset: 0x1033BA, size: 0x8, addend: 0x0, symName: '__ZN103_$LT$pyo3..instance..Bound$LT$pyo3..types..any..PyAny$GT$$u20$as$u20$pyo3..types..any..PyAnyMethods$GT$14is_instance_of17hf5a46388e843fbfeE', symObjAddr: 0x0, symBinAddr: 0x2B214, symSize: 0x24 }
  - { offset: 0x103BDD, size: 0x8, addend: 0x0, symName: '__ZN4pyo38instance39Borrowed$LT$pyo3..types..any..PyAny$GT$15from_ptr_or_opt28_$u7b$$u7b$closure$u7d$$u7d$17h1b102a214c70ca17E', symObjAddr: 0x31A0, symBinAddr: 0x2B2DC, symSize: 0x30 }
  - { offset: 0x103CB4, size: 0x8, addend: 0x0, symName: '__ZN103_$LT$pyo3..instance..Bound$LT$pyo3..types..any..PyAny$GT$$u20$as$u20$pyo3..types..any..PyAnyMethods$GT$14is_instance_of17hf5a46388e843fbfeE', symObjAddr: 0x0, symBinAddr: 0x2B214, symSize: 0x24 }
  - { offset: 0x103CEB, size: 0x8, addend: 0x0, symName: '__ZN103_$LT$pyo3..instance..Bound$LT$pyo3..types..any..PyAny$GT$$u20$as$u20$pyo3..types..any..PyAnyMethods$GT$7extract17h5b884b0ae9b62d51E', symObjAddr: 0xBC, symBinAddr: 0x2B238, symSize: 0x30 }
  - { offset: 0x103D22, size: 0x8, addend: 0x0, symName: '__ZN103_$LT$pyo3..instance..Bound$LT$pyo3..types..any..PyAny$GT$$u20$as$u20$pyo3..types..any..PyAnyMethods$GT$7extract17hca9a77166b11d9f2E', symObjAddr: 0xEC, symBinAddr: 0x2B268, symSize: 0x30 }
  - { offset: 0x103DB6, size: 0x8, addend: 0x0, symName: '__ZN4pyo35types8iterator131_$LT$impl$u20$core..iter..traits..iterator..Iterator$u20$for$u20$pyo3..instance..Bound$LT$pyo3..types..iterator..PyIterator$GT$$GT$4next17h9e3caee8fbd62cefE', symObjAddr: 0x270C, symBinAddr: 0x2B298, symSize: 0x30 }
  - { offset: 0x105433, size: 0x8, addend: 0x0, symName: '__ZN63_$LT$I$u20$as$u20$core..iter..traits..collect..IntoIterator$GT$9into_iter17h9cb7b74a9d31a183E', symObjAddr: 0x59DC, symBinAddr: 0x2B30C, symSize: 0x14 }
  - { offset: 0x1065D4, size: 0x8, addend: 0x0, symName: '__ZN4pyo38instance39Borrowed$LT$pyo3..types..any..PyAny$GT$13from_non_null17h6ad03c85fa5bf99eE', symObjAddr: 0x3160, symBinAddr: 0x2B2C8, symSize: 0x14 }
  - { offset: 0x107E6C, size: 0x8, addend: 0x0, symName: __ZN4pyo33err10cast_error9CastError3new17he988c679570ba8deE, symObjAddr: 0xF90, symBinAddr: 0x2B320, symSize: 0x1C }
  - { offset: 0x108115, size: 0x8, addend: 0x0, symName: '__ZN4pyo311conversions3std3vec85_$LT$impl$u20$pyo3..conversion..FromPyObject$u20$for$u20$alloc..vec..Vec$LT$T$GT$$GT$7extract17h660bd3e6014d302fE', symObjAddr: 0x18D4, symBinAddr: 0x2B4CC, symSize: 0xE4 }
  - { offset: 0x109068, size: 0x8, addend: 0x0, symName: '__ZN153_$LT$core..result..Result$LT$T$C$F$GT$$u20$as$u20$core..ops..try_trait..FromResidual$LT$core..result..Result$LT$core..convert..Infallible$C$E$GT$$GT$$GT$13from_residual17h933930e0dc6672b6E', symObjAddr: 0x480, symBinAddr: 0x2B33C, symSize: 0x6C }
  - { offset: 0x10929F, size: 0x8, addend: 0x0, symName: '__ZN79_$LT$core..result..Result$LT$T$C$E$GT$$u20$as$u20$core..ops..try_trait..Try$GT$6branch17hc5e70093374462e5E', symObjAddr: 0x3E50, symBinAddr: 0x2B714, symSize: 0xB4 }
  - { offset: 0x10A343, size: 0x8, addend: 0x0, symName: '__ZN70_$LT$alloc..vec..Vec$LT$T$C$A$GT$$u20$as$u20$core..ops..drop..Drop$GT$4drop17h7faf244dadf76ab5E', symObjAddr: 0x3A68, symBinAddr: 0x2B6DC, symSize: 0x38 }
  - { offset: 0x10A66C, size: 0x8, addend: 0x0, symName: '__ZN4core6result19Result$LT$T$C$E$GT$7map_err17hd11eb7ca3c43770cE', symObjAddr: 0x16A4, symBinAddr: 0x2B3A8, symSize: 0xB8 }
  - { offset: 0x10A6FF, size: 0x8, addend: 0x0, symName: '__ZN4core6result19Result$LT$T$C$E$GT$9unwrap_or17hc11c59323345bbe6E', symObjAddr: 0x175C, symBinAddr: 0x2B460, symSize: 0x6C }
  - { offset: 0x10A744, size: 0x8, addend: 0x0, symName: '__ZN5alloc3vec12Vec$LT$T$GT$3new17h102a636a364f2c12E', symObjAddr: 0x1D0C, symBinAddr: 0x2B5B0, symSize: 0x14 }
  - { offset: 0x10A76E, size: 0x8, addend: 0x0, symName: '__ZN5alloc3vec16Vec$LT$T$C$A$GT$4push17h252a2f3dd9e33f20E', symObjAddr: 0x1D20, symBinAddr: 0x2B5C4, symSize: 0x24 }
  - { offset: 0x10A8D4, size: 0x8, addend: 0x0, symName: '__ZN5alloc3vec16Vec$LT$T$C$A$GT$8push_mut17hfb7472783baff1b9E', symObjAddr: 0x1DA4, symBinAddr: 0x2B5E8, symSize: 0xF4 }
  - { offset: 0x10AB8A, size: 0x8, addend: 0x0, symName: '__ZN159_$LT$pyo3..conversion..FromPyObject..sequence_extractor..NeverASequence$LT$T$GT$$u20$as$u20$pyo3..conversion..from_py_object_sequence..FromPyObjectSequence$GT$6to_vec17h9be9c2b4481457e8E', symObjAddr: 0x2C, symBinAddr: 0x2B7C8, symSize: 0x2C }
  - { offset: 0x10B5C4, size: 0x8, addend: 0x0, symName: '__ZN77_$LT$alloc..raw_vec..RawVec$LT$T$C$A$GT$$u20$as$u20$core..ops..drop..Drop$GT$4drop17h03a977ba3d690fabE', symObjAddr: 0x2FB0, symBinAddr: 0x2B7F4, symSize: 0x34 }
  - { offset: 0x10D463, size: 0x8, addend: 0x0, symName: '__ZN4core6option15Option$LT$T$GT$3map17hab77043c71c5f069E', symObjAddr: 0x1884, symBinAddr: 0x2B828, symSize: 0x5C }
  - { offset: 0x10D595, size: 0x8, addend: 0x0, symName: '__ZN4core6option15Option$LT$T$GT$8as_deref17h37364090257d27c7E', symObjAddr: 0x1DA4, symBinAddr: 0x2B884, symSize: 0x6C }
  - { offset: 0x10D8CE, size: 0x8, addend: 0x0, symName: '__ZN4core3ptr52drop_in_place$LT$$u5b$alloc..string..String$u5d$$GT$17h2ca4cd1721ec7bc7E', symObjAddr: 0x2604, symBinAddr: 0x2B938, symSize: 0xC4 }
  - { offset: 0x10D8FD, size: 0x8, addend: 0x0, symName: '__ZN4core3ptr57drop_in_place$LT$pyo3..err..cast_error..CastIntoError$GT$17hb07c49ff184b2c8fE', symObjAddr: 0x27E4, symBinAddr: 0x2B9FC, symSize: 0x60 }
  - { offset: 0x10D92C, size: 0x8, addend: 0x0, symName: '__ZN4core3ptr65drop_in_place$LT$alloc..vec..Vec$LT$alloc..string..String$GT$$GT$17h679cc3cdc0379001E', symObjAddr: 0x2868, symBinAddr: 0x2BA5C, symSize: 0x5C }
  - { offset: 0x10D95B, size: 0x8, addend: 0x0, symName: '__ZN4core3ptr72drop_in_place$LT$alloc..raw_vec..RawVec$LT$alloc..string..String$GT$$GT$17h6063f3b3d3df92dbE', symObjAddr: 0x2920, symBinAddr: 0x2BAB8, symSize: 0x24 }
  - { offset: 0x10D98A, size: 0x8, addend: 0x0, symName: '__ZN4core3ptr73drop_in_place$LT$core..result..Result$LT$usize$C$pyo3..err..PyErr$GT$$GT$17h045726964a0c7ac8E', symObjAddr: 0x2944, symBinAddr: 0x2BADC, symSize: 0x40 }
  - { offset: 0x10E80A, size: 0x8, addend: 0x0, symName: __ZN4core3ops8function6FnOnce9call_once17h26388ef93575be7dE, symObjAddr: 0x13AC, symBinAddr: 0x2B8F0, symSize: 0x48 }
  - { offset: 0x10F32A, size: 0x8, addend: 0x0, symName: __ZN4pyo311conversions3std3vec16extract_sequence17h6d51049bfc4ea9d9E, symObjAddr: 0x3460, symBinAddr: 0x2BB1C, symSize: 0x41C }
  - { offset: 0x110371, size: 0x8, addend: 0x0, symName: __ZN4core3ptr19copy_nonoverlapping18precondition_check17hd962815ba42a4958E, symObjAddr: 0x6D0, symBinAddr: 0x2BFEC, symSize: 0x168 }
  - { offset: 0x1106C6, size: 0x8, addend: 0x0, symName: '__ZN75_$LT$usize$u20$as$u20$core..slice..index..SliceIndex$LT$$u5b$T$u5d$$GT$$GT$5index17hc0b035df2d385ac6E', symObjAddr: 0x1F64, symBinAddr: 0x2C600, symSize: 0x5C }
  - { offset: 0x11070C, size: 0x8, addend: 0x0, symName: '__ZN75_$LT$usize$u20$as$u20$core..slice..index..SliceIndex$LT$$u5b$T$u5d$$GT$$GT$9index_mut17h5cf2d70ace34eaf0E', symObjAddr: 0x1FC0, symBinAddr: 0x2C65C, symSize: 0x5C }
  - { offset: 0x110B2A, size: 0x8, addend: 0x0, symName: __ZN4core9ub_checks23maybe_is_nonoverlapping7runtime17h877cad698fc8be50E, symObjAddr: 0xFBC, symBinAddr: 0x2C154, symSize: 0xD8 }
  - { offset: 0x110FE6, size: 0x8, addend: 0x0, symName: '__ZN132_$LT$alloc..vec..Vec$LT$T$C$A$GT$$u20$as$u20$alloc..vec..spec_extend..SpecExtend$LT$$RF$T$C$core..slice..iter..Iter$LT$T$GT$$GT$$GT$11spec_extend17h23cdee85914d1d7bE', symObjAddr: 0x2BC, symBinAddr: 0x2BF38, symSize: 0xB4 }
  - { offset: 0x111436, size: 0x8, addend: 0x0, symName: '__ZN5alloc3vec16Vec$LT$T$C$A$GT$7set_len18precondition_check17had858c9c241c3dfaE', symObjAddr: 0x14DC, symBinAddr: 0x2C490, symSize: 0x60 }
  - { offset: 0x111490, size: 0x8, addend: 0x0, symName: '__ZN70_$LT$alloc..vec..Vec$LT$T$C$A$GT$$u20$as$u20$core..ops..drop..Drop$GT$4drop17he3c7d24bc6a40e82E', symObjAddr: 0x1ED4, symBinAddr: 0x2C5BC, symSize: 0x24 }
  - { offset: 0x111546, size: 0x8, addend: 0x0, symName: '__ZN72_$LT$alloc..vec..Vec$LT$T$C$A$GT$$u20$as$u20$core..ops..deref..Deref$GT$5deref17h5611b073139d6439E', symObjAddr: 0x1EF8, symBinAddr: 0x2C5E0, symSize: 0x20 }
  - { offset: 0x111A38, size: 0x8, addend: 0x0, symName: '__ZN5alloc3vec12Vec$LT$T$GT$13with_capacity17h5bada7b5563468e7E', symObjAddr: 0x1094, symBinAddr: 0x2C22C, symSize: 0x40 }
  - { offset: 0x111B89, size: 0x8, addend: 0x0, symName: '__ZN5alloc3vec16Vec$LT$T$C$A$GT$15append_elements17hc6856fef97fefeabE', symObjAddr: 0x10D4, symBinAddr: 0x2C26C, symSize: 0xD8 }
  - { offset: 0x111E66, size: 0x8, addend: 0x0, symName: '__ZN5alloc3vec16Vec$LT$T$C$A$GT$17extend_from_slice17he545c426b30b20dfE', symObjAddr: 0x1390, symBinAddr: 0x2C344, symSize: 0x6C }
  - { offset: 0x111FB0, size: 0x8, addend: 0x0, symName: '__ZN5alloc3vec16Vec$LT$T$C$A$GT$3len17h741e1aa351b05f40E', symObjAddr: 0x13FC, symBinAddr: 0x2C3B0, symSize: 0x18 }
  - { offset: 0x111FE5, size: 0x8, addend: 0x0, symName: '__ZN5alloc3vec16Vec$LT$T$C$A$GT$4push17h5e60b5657976e439E', symObjAddr: 0x1414, symBinAddr: 0x2C3C8, symSize: 0x28 }
  - { offset: 0x11213F, size: 0x8, addend: 0x0, symName: '__ZN5alloc3vec16Vec$LT$T$C$A$GT$7reserve17ha75ebc3bb0a926fdE', symObjAddr: 0x143C, symBinAddr: 0x2C3F0, symSize: 0xA0 }
  - { offset: 0x11237A, size: 0x8, addend: 0x0, symName: '__ZN5alloc3vec16Vec$LT$T$C$A$GT$8push_mut17h8071f33a9360fbccE', symObjAddr: 0x153C, symBinAddr: 0x2C4F0, symSize: 0xCC }
  - { offset: 0x112A82, size: 0x8, addend: 0x0, symName: '__ZN4core3ptr49drop_in_place$LT$alloc..vec..Vec$LT$usize$GT$$GT$17h3a2a4ff3ea312070E', symObjAddr: 0x1B9C, symBinAddr: 0x2C6B8, symSize: 0x5C }
  - { offset: 0x112AB1, size: 0x8, addend: 0x0, symName: '__ZN4core3ptr56drop_in_place$LT$alloc..raw_vec..RawVec$LT$usize$GT$$GT$17h339d84b8cbd90f49E', symObjAddr: 0x1BF8, symBinAddr: 0x2C714, symSize: 0x24 }
  - { offset: 0x112AEF, size: 0x8, addend: 0x0, symName: '__ZN4core3ptr9const_ptr33_$LT$impl$u20$$BP$const$u20$T$GT$20offset_from_unsigned18precondition_check17hacfd1ed94c5db2d8E', symObjAddr: 0x1D50, symBinAddr: 0x2C738, symSize: 0x60 }
  - { offset: 0x112C19, size: 0x8, addend: 0x0, symName: __ZN4core5slice3raw14from_raw_parts18precondition_check17hdab9361b7f326a54E, symObjAddr: 0x21FC, symBinAddr: 0x2C798, symSize: 0x10C }
  - { offset: 0x1131FE, size: 0x8, addend: 0x0, symName: '__ZN87_$LT$T$u20$as$u20$alloc..slice..$LT$impl$u20$$u5b$T$u5d$$GT$..to_vec_in..ConvertVec$GT$6to_vec17h3f281e5d044a6008E', symObjAddr: 0x3B00, symBinAddr: 0x2C958, symSize: 0xF4 }
  - { offset: 0x113749, size: 0x8, addend: 0x0, symName: '__ZN77_$LT$alloc..raw_vec..RawVec$LT$T$C$A$GT$$u20$as$u20$core..ops..drop..Drop$GT$4drop17h86d5b08f90a903e2E', symObjAddr: 0x2E0C, symBinAddr: 0x2C928, symSize: 0x30 }
  - { offset: 0x11384F, size: 0x8, addend: 0x0, symName: '__ZN5alloc7raw_vec19RawVec$LT$T$C$A$GT$8grow_one17h3ae009cbb3cbeb33E', symObjAddr: 0x24C0, symBinAddr: 0x2C8A4, symSize: 0x84 }
  - { offset: 0x113B5F, size: 0x8, addend: 0x0, symName: '__ZN4core3ptr9const_ptr33_$LT$impl$u20$$BP$const$u20$T$GT$13is_aligned_to17h954b3bb0ec09f818E', symObjAddr: 0x5C18, symBinAddr: 0x2CA4C, symSize: 0x88 }
  - { offset: 0x113CBE, size: 0x8, addend: 0x0, symName: '__ZN73_$LT$$u5b$A$u5d$$u20$as$u20$core..slice..cmp..SlicePartialEq$LT$B$GT$$GT$5equal17h47cc592bc40dccd6E', symObjAddr: 0x6540, symBinAddr: 0x2CB0C, symSize: 0x88 }
  - { offset: 0x113D9C, size: 0x8, addend: 0x0, symName: '__ZN4core4iter5range101_$LT$impl$u20$core..iter..traits..iterator..Iterator$u20$for$u20$core..ops..range..Range$LT$A$GT$$GT$4next17hc045aa609f733ab4E', symObjAddr: 0x5D64, symBinAddr: 0x2CAD4, symSize: 0x24 }
  - { offset: 0x113DD9, size: 0x8, addend: 0x0, symName: '__ZN89_$LT$core..ops..range..Range$LT$T$GT$$u20$as$u20$core..iter..range..RangeIteratorImpl$GT$9spec_next17haf3f54529e8dda56E', symObjAddr: 0x6904, symBinAddr: 0x2CB94, symSize: 0x94 }
  - { offset: 0x113E65, size: 0x8, addend: 0x0, symName: '__ZN63_$LT$I$u20$as$u20$core..iter..traits..collect..IntoIterator$GT$9into_iter17h03f4f47733e613a7E', symObjAddr: 0x64B4, symBinAddr: 0x2CAF8, symSize: 0x14 }
  - { offset: 0x11403B, size: 0x8, addend: 0x0, symName: '__ZN4core3num23_$LT$impl$u20$usize$GT$13unchecked_add18precondition_check17h1a53dd7837307f3bE', symObjAddr: 0x4878, symBinAddr: 0x2CDC8, symSize: 0x64 }
  - { offset: 0x1140C6, size: 0x8, addend: 0x0, symName: '__ZN49_$LT$usize$u20$as$u20$core..iter..range..Step$GT$17forward_unchecked17hce9b2e4592c29cdbE', symObjAddr: 0x4638, symBinAddr: 0x2CC28, symSize: 0x50 }
  - { offset: 0x114167, size: 0x8, addend: 0x0, symName: '__ZN4core3cmp5impls69_$LT$impl$u20$core..cmp..PartialEq$LT$$RF$B$GT$$u20$for$u20$$RF$A$GT$2eq17h86c012b806236303E', symObjAddr: 0x4814, symBinAddr: 0x2CD84, symSize: 0x44 }
  - { offset: 0x1141F9, size: 0x8, addend: 0x0, symName: __ZN4core3cmp3Ord3max17h171e22e2d6302efcE, symObjAddr: 0x468C, symBinAddr: 0x2CC78, symSize: 0x74 }
  - { offset: 0x114267, size: 0x8, addend: 0x0, symName: __ZN4core3cmp3Ord3min17h90cd5b0761bd3c79E, symObjAddr: 0x4700, symBinAddr: 0x2CCEC, symSize: 0x74 }
  - { offset: 0x1142D6, size: 0x8, addend: 0x0, symName: __ZN4core3cmp3max17he6f18650b6b311f9E, symObjAddr: 0x4774, symBinAddr: 0x2CD60, symSize: 0x24 }
  - { offset: 0x114350, size: 0x8, addend: 0x0, symName: '__ZN4core3str6traits54_$LT$impl$u20$core..cmp..PartialEq$u20$for$u20$str$GT$2eq17h1e1f8f6300ac68e8E', symObjAddr: 0x4F4C, symBinAddr: 0x2CE2C, symSize: 0x4C }
  - { offset: 0x11487A, size: 0x8, addend: 0x0, symName: '__ZN4core3ptr42drop_in_place$LT$alloc..string..String$GT$17h740c24c830085e51E', symObjAddr: 0x574, symBinAddr: 0x2CEA4, symSize: 0x24 }
  - { offset: 0x1148A9, size: 0x8, addend: 0x0, symName: '__ZN4core3ptr46drop_in_place$LT$alloc..vec..Vec$LT$u8$GT$$GT$17hfa50d41513512720E', symObjAddr: 0x598, symBinAddr: 0x2CEC8, symSize: 0x5C }
  - { offset: 0x1148D8, size: 0x8, addend: 0x0, symName: '__ZN4core3ptr53drop_in_place$LT$alloc..raw_vec..RawVec$LT$u8$GT$$GT$17hfe692e73b8737638E', symObjAddr: 0x5F4, symBinAddr: 0x2CF24, symSize: 0x24 }
  - { offset: 0x114DE6, size: 0x8, addend: 0x0, symName: __ZN4core4hint16assert_unchecked18precondition_check17h3a8c039764957b68E, symObjAddr: 0x618, symBinAddr: 0x2CF48, symSize: 0x58 }
  - { offset: 0x1153B9, size: 0x8, addend: 0x0, symName: __ZN4core3fmt2rt8Argument11new_display17he1386716b54f0b3dE, symObjAddr: 0x114, symBinAddr: 0x2CE78, symSize: 0x2C }
  - { offset: 0x115571, size: 0x8, addend: 0x0, symName: '__ZN5alloc7raw_vec20RawVecInner$LT$A$GT$16with_capacity_in17hf650b253c2befb35E', symObjAddr: 0xACC, symBinAddr: 0x2CFA0, symSize: 0xF0 }
  - { offset: 0x115944, size: 0x8, addend: 0x0, symName: '__ZN4core3str6traits108_$LT$impl$u20$core..slice..index..SliceIndex$LT$str$GT$$u20$for$u20$core..ops..range..Range$LT$usize$GT$$GT$13get_unchecked18precondition_check17he6463af2f847bcfdE', symObjAddr: 0x27F4, symBinAddr: 0x2D090, symSize: 0x80 }
  - { offset: 0x115A2A, size: 0x8, addend: 0x0, symName: '__ZN4core3str6traits112_$LT$impl$u20$core..slice..index..SliceIndex$LT$str$GT$$u20$for$u20$core..ops..range..RangeFrom$LT$usize$GT$$GT$3get17he7f2aa12e67b760aE', symObjAddr: 0x2874, symBinAddr: 0x2D110, symSize: 0x150 }
  - { offset: 0x115BA5, size: 0x8, addend: 0x0, symName: '__ZN4core3str6traits112_$LT$impl$u20$core..slice..index..SliceIndex$LT$str$GT$$u20$for$u20$core..ops..range..RangeFrom$LT$usize$GT$$GT$5index17h8a75accc7c58f3f5E', symObjAddr: 0x29C4, symBinAddr: 0x2D260, symSize: 0x88 }
  - { offset: 0x115C2C, size: 0x8, addend: 0x0, symName: '__ZN4core3str6traits66_$LT$impl$u20$core..ops..index..Index$LT$I$GT$$u20$for$u20$str$GT$5index17hc4d04ab7bdf0edddE', symObjAddr: 0x2A98, symBinAddr: 0x2D2E8, symSize: 0x44 }
  - { offset: 0x115E9A, size: 0x8, addend: 0x0, symName: '__ZN60_$LT$alloc..string..String$u20$as$u20$core..fmt..Display$GT$3fmt17h4ab19030edcd64d0E', symObjAddr: 0x1698, symBinAddr: 0x2D32C, symSize: 0x3C }
  - { offset: 0x116C64, size: 0x8, addend: 0x0, symName: '__ZN4core3ptr62drop_in_place$LT$alloc..vec..set_len_on_drop..SetLenOnDrop$GT$17h35e7097a986aa3feE', symObjAddr: 0xF88, symBinAddr: 0x2D368, symSize: 0x24 }
  - { offset: 0x116CD3, size: 0x8, addend: 0x0, symName: __ZN4core5slice6memchr6memchr17h8d8e49f10e197747E, symObjAddr: 0x1AC8, symBinAddr: 0x2D38C, symSize: 0x114 }
  - { offset: 0x1174D4, size: 0x8, addend: 0x0, symName: __ZN4core5slice3raw18from_raw_parts_mut18precondition_check17h4a1d3e248a474eabE, symObjAddr: 0x130C, symBinAddr: 0x2D8FC, symSize: 0x10C }
  - { offset: 0x1175F6, size: 0x8, addend: 0x0, symName: '__ZN73_$LT$$u5b$A$u5d$$u20$as$u20$core..slice..cmp..SlicePartialEq$LT$B$GT$$GT$5equal17h76942b7d24f93b08E', symObjAddr: 0x2F14, symBinAddr: 0x2DA5C, symSize: 0x88 }
  - { offset: 0x117752, size: 0x8, addend: 0x0, symName: '__ZN70_$LT$core..num..error..TryFromIntError$u20$as$u20$core..fmt..Debug$GT$3fmt17ha03f82acf6c9caf1E', symObjAddr: 0x2EC0, symBinAddr: 0x2DA08, symSize: 0x54 }
  - { offset: 0x117805, size: 0x8, addend: 0x0, symName: '__ZN4core3str21_$LT$impl$u20$str$GT$11starts_with17hded4490d6c587795E', symObjAddr: 0x378, symBinAddr: 0x2D4CC, symSize: 0x4C }
  - { offset: 0x11784B, size: 0x8, addend: 0x0, symName: '__ZN4core3str21_$LT$impl$u20$str$GT$5split17h1db9abd37ff6b08fE', symObjAddr: 0x4EC, symBinAddr: 0x2D518, symSize: 0x98 }
  - { offset: 0x117CC3, size: 0x8, addend: 0x0, symName: __ZN4core4char7methods15encode_utf8_raw8do_panic7runtime17h5d8abec8736c5d5dE, symObjAddr: 0x6AC, symBinAddr: 0x2D6B0, symSize: 0xC4 }
  - { offset: 0x117DC0, size: 0x8, addend: 0x0, symName: __ZN4core4char7methods15encode_utf8_raw17hc7146402c0dc4a0fE, symObjAddr: 0x5AC, symBinAddr: 0x2D5B0, symSize: 0x100 }
  - { offset: 0x117EFA, size: 0x8, addend: 0x0, symName: __ZN4core4char7methods25encode_utf8_raw_unchecked17he27475350ca2e9abE, symObjAddr: 0x800, symBinAddr: 0x2D774, symSize: 0x188 }
  - { offset: 0x118713, size: 0x8, addend: 0x0, symName: __ZN4core3fmt2rt8Argument11new_display17h858f44f6d00701d7E, symObjAddr: 0x1EC, symBinAddr: 0x2D4A0, symSize: 0x2C }
  - { offset: 0x118A35, size: 0x8, addend: 0x0, symName: '__ZN83_$LT$alloc..vec..set_len_on_drop..SetLenOnDrop$u20$as$u20$core..ops..drop..Drop$GT$4drop17hef1ef388221178f1E', symObjAddr: 0x2D7C, symBinAddr: 0x2E434, symSize: 0x20 }
  - { offset: 0x118AA0, size: 0x8, addend: 0x0, symName: '__ZN4core3ptr9const_ptr33_$LT$impl$u20$$BP$const$u20$T$GT$13is_aligned_to17h0ce3f2c1a54ebbeeE', symObjAddr: 0xBE8, symBinAddr: 0x2DAE4, symSize: 0x88 }
  - { offset: 0x118D48, size: 0x8, addend: 0x0, symName: '__ZN90_$LT$core..str..iter..Split$LT$P$GT$$u20$as$u20$core..iter..traits..iterator..Iterator$GT$4next17h31dd27826f781452E', symObjAddr: 0x2D9C, symBinAddr: 0x2E454, symSize: 0x24 }
  - { offset: 0x118DF2, size: 0x8, addend: 0x0, symName: '__ZN52_$LT$char$u20$as$u20$core..str..pattern..Pattern$GT$13into_searcher17h20302cbb3d0115f6E', symObjAddr: 0x1758, symBinAddr: 0x2DED8, symSize: 0x114 }
  - { offset: 0x118F10, size: 0x8, addend: 0x0, symName: '__ZN55_$LT$$RF$str$u20$as$u20$core..str..pattern..Pattern$GT$12is_prefix_of17he39aafbe6ffe5b59E', symObjAddr: 0x18AC, symBinAddr: 0x2DFEC, symSize: 0x4C }
  - { offset: 0x118F53, size: 0x8, addend: 0x0, symName: '__ZN81_$LT$core..str..pattern..CharSearcher$u20$as$u20$core..str..pattern..Searcher$GT$10next_match17hf0ce0d8e0d47b674E', symObjAddr: 0x29E0, symBinAddr: 0x2E098, symSize: 0x37C }
  - { offset: 0x1193DF, size: 0x8, addend: 0x0, symName: '__ZN81_$LT$core..str..pattern..CharSearcher$u20$as$u20$core..str..pattern..Searcher$GT$8haystack17h05d67dbdcdebfd03E', symObjAddr: 0x2D5C, symBinAddr: 0x2E414, symSize: 0x20 }
  - { offset: 0x1194A6, size: 0x8, addend: 0x0, symName: '__ZN4core3str6traits108_$LT$impl$u20$core..slice..index..SliceIndex$LT$str$GT$$u20$for$u20$core..ops..range..Range$LT$usize$GT$$GT$13get_unchecked18precondition_check17h69ccc9568e145c1eE', symObjAddr: 0xF38, symBinAddr: 0x2DDD4, symSize: 0x80 }
  - { offset: 0x119827, size: 0x8, addend: 0x0, symName: '__ZN75_$LT$usize$u20$as$u20$core..slice..index..SliceIndex$LT$$u5b$T$u5d$$GT$$GT$13get_unchecked18precondition_check17hb6b631040e66d2c8E', symObjAddr: 0x2844, symBinAddr: 0x2E038, symSize: 0x60 }
  - { offset: 0x119EDE, size: 0x8, addend: 0x0, symName: '__ZN4core3str4iter22SplitInternal$LT$P$GT$4next17h6d0928d1e1be56c6E', symObjAddr: 0xCD0, symBinAddr: 0x2DB6C, symSize: 0x140 }
  - { offset: 0x11A022, size: 0x8, addend: 0x0, symName: '__ZN4core3str4iter22SplitInternal$LT$P$GT$7get_end17hb906c4e39e4e00bbE', symObjAddr: 0xE10, symBinAddr: 0x2DCAC, symSize: 0x128 }
  - { offset: 0x11A142, size: 0x8, addend: 0x0, symName: '__ZN4core6result19Result$LT$T$C$E$GT$6expect17hf185108376042e34E', symObjAddr: 0x14B0, symBinAddr: 0x2DE54, symSize: 0x84 }
  - { offset: 0x11A3C3, size: 0x8, addend: 0x0, symName: '__ZN63_$LT$I$u20$as$u20$core..iter..traits..collect..IntoIterator$GT$9into_iter17h528a9f542b5b7bf7E', symObjAddr: 0x2A60, symBinAddr: 0x2EAC8, symSize: 0x18 }
  - { offset: 0x11A5BA, size: 0x8, addend: 0x0, symName: '__ZN91_$LT$core..slice..iter..Iter$LT$T$GT$$u20$as$u20$core..iter..traits..iterator..Iterator$GT$4next17hb932933f1fc33185E', symObjAddr: 0x2B7C, symBinAddr: 0x2EAE0, symSize: 0x84 }
  - { offset: 0x11A677, size: 0x8, addend: 0x0, symName: '__ZN4core5slice29_$LT$impl$u20$$u5b$T$u5d$$GT$4iter17he97037fa7b7000cbE', symObjAddr: 0x1DF4, symBinAddr: 0x2E8D0, symSize: 0x28 }
  - { offset: 0x11A6AE, size: 0x8, addend: 0x0, symName: '__ZN4core5slice29_$LT$impl$u20$$u5b$T$u5d$$GT$4swap17hfb0c0f673d788b9fE', symObjAddr: 0x1E1C, symBinAddr: 0x2E8F8, symSize: 0xA8 }
  - { offset: 0x11A86E, size: 0x8, addend: 0x0, symName: __ZN4core3ptr19copy_nonoverlapping18precondition_check17h0ad6b6fc90240b13E, symObjAddr: 0xF40, symBinAddr: 0x2E498, symSize: 0x168 }
  - { offset: 0x11AA67, size: 0x8, addend: 0x0, symName: __ZN4core3ptr4copy18precondition_check17h5eaaec34c45637e3E, symObjAddr: 0x14C8, symBinAddr: 0x2E600, symSize: 0x130 }
  - { offset: 0x11AC26, size: 0x8, addend: 0x0, symName: __ZN4core3ptr4swap17hf2b7fe5b38e2d09dE, symObjAddr: 0x15F8, symBinAddr: 0x2E730, symSize: 0x118 }
  - { offset: 0x11AD2C, size: 0x8, addend: 0x0, symName: '__ZN4core3ptr9const_ptr33_$LT$impl$u20$$BP$const$u20$T$GT$13is_aligned_to17h1457ef82ee3a7f88E', symObjAddr: 0x17AC, symBinAddr: 0x2E848, symSize: 0x88 }
  - { offset: 0x11AFF5, size: 0x8, addend: 0x0, symName: __ZN4core9ub_checks23maybe_is_nonoverlapping7runtime17h7fd2e628907bcae6E, symObjAddr: 0x2988, symBinAddr: 0x2E9F0, symSize: 0xD8 }
  - { offset: 0x11B268, size: 0x8, addend: 0x0, symName: '__ZN4core3ops5range25RangeInclusive$LT$Idx$GT$3new17h7214ede4e776c740E', symObjAddr: 0xE30, symBinAddr: 0x2E478, symSize: 0x20 }
  - { offset: 0x11B3E8, size: 0x8, addend: 0x0, symName: '__ZN4core5slice4iter13Iter$LT$T$GT$3new17h6173f191ae225842E', symObjAddr: 0x1EC4, symBinAddr: 0x2E9A0, symSize: 0x50 }
  - { offset: 0x11B62D, size: 0x8, addend: 0x0, symName: '__ZN4core3ptr9const_ptr33_$LT$impl$u20$$BP$const$u20$T$GT$13is_aligned_to17h099d8faf8ab29871E', symObjAddr: 0x6DC, symBinAddr: 0x2ED68, symSize: 0x88 }
  - { offset: 0x11B738, size: 0x8, addend: 0x0, symName: __ZN4core3ptr14read_unaligned17h4ec132341fcdb267E, symObjAddr: 0x3C0, symBinAddr: 0x2EB64, symSize: 0x9C }
  - { offset: 0x11B84D, size: 0x8, addend: 0x0, symName: __ZN4core3ptr19copy_nonoverlapping18precondition_check17he71c728a4d26b8c3E, symObjAddr: 0x45C, symBinAddr: 0x2EC00, symSize: 0x168 }
  - { offset: 0x11BC7F, size: 0x8, addend: 0x0, symName: __ZN4core9core_arch10arm_shared4neon9generated13vget_lane_u6417h595d126949dbaafaE, symObjAddr: 0x8C8, symBinAddr: 0x2EDF0, symSize: 0x18 }
  - { offset: 0x11BDDC, size: 0x8, addend: 0x0, symName: __ZN4core9ub_checks23maybe_is_nonoverlapping7runtime17h14ed38c7720535efE, symObjAddr: 0x9D4, symBinAddr: 0x2EE08, symSize: 0xD8 }
  - { offset: 0x11C5A5, size: 0x8, addend: 0x0, symName: '__ZN4core3ptr9const_ptr33_$LT$impl$u20$$BP$const$u20$T$GT$13is_aligned_to17hb8dcf007154a266bE', symObjAddr: 0x1C9C, symBinAddr: 0x2EF18, symSize: 0x88 }
  - { offset: 0x11C958, size: 0x8, addend: 0x0, symName: __ZN4core3fmt9Arguments3new17h2fce308aef3a1b82E, symObjAddr: 0x19F0, symBinAddr: 0x2EEE0, symSize: 0x1C }
  - { offset: 0x11C9F2, size: 0x8, addend: 0x0, symName: __ZN4core3fmt9Arguments3new17hfc2f867cd0141adeE, symObjAddr: 0x1A7C, symBinAddr: 0x2EEFC, symSize: 0x1C }
  - { offset: 0x11CAB3, size: 0x8, addend: 0x0, symName: '__ZN4core3ptr7mut_ptr31_$LT$impl$u20$$BP$mut$u20$T$GT$6as_ref17hd58e5c24572755d9E', symObjAddr: 0x0, symBinAddr: 0x2EFA0, symSize: 0x34 }
  - { offset: 0x11CAF9, size: 0x8, addend: 0x0, symName: __ZN4core4sync6atomic11atomic_load17haf3e4883edf804b1E, symObjAddr: 0x34, symBinAddr: 0x2EFD4, symSize: 0xF8 }
  - { offset: 0x11CBD3, size: 0x8, addend: 0x0, symName: __ZN4core4sync6atomic23atomic_compare_exchange17h27ebf114f0597ea8E, symObjAddr: 0x1A4, symBinAddr: 0x2F128, symSize: 0x4B4 }
  - { offset: 0x11CC7F, size: 0x8, addend: 0x0, symName: '__ZN4core3ptr7mut_ptr31_$LT$impl$u20$$BP$mut$u20$T$GT$6as_ref17hd58e5c24572755d9E', symObjAddr: 0x0, symBinAddr: 0x2EFA0, symSize: 0x34 }
  - { offset: 0x11CED5, size: 0x8, addend: 0x0, symName: '__ZN4core4sync6atomic18AtomicPtr$LT$T$GT$16compare_exchange17h5f753c3e0e2ee1b6E', symObjAddr: 0x12C, symBinAddr: 0x2F0CC, symSize: 0x38 }
  - { offset: 0x11CF3D, size: 0x8, addend: 0x0, symName: '__ZN4core4sync6atomic18AtomicPtr$LT$T$GT$4load17he2b0b295ca871a8fE', symObjAddr: 0x180, symBinAddr: 0x2F104, symSize: 0x24 }
  - { offset: 0x11CF85, size: 0x8, addend: 0x0, symName: __ZN9inventory8Registry6submit17hd9cee4c9b086cd3cE, symObjAddr: 0x690, symBinAddr: 0x2F5DC, symSize: 0xA0 }
  - { offset: 0x11E6E5, size: 0x8, addend: 0x0, symName: '__ZN42_$LT$$RF$T$u20$as$u20$core..fmt..Debug$GT$3fmt17h22ead704a80e13fdE', symObjAddr: 0x6104, symBinAddr: 0x318D8, symSize: 0x30 }
  - { offset: 0x11E731, size: 0x8, addend: 0x0, symName: '__ZN44_$LT$$RF$T$u20$as$u20$core..fmt..Display$GT$3fmt17h1ff832dfd5af9620E', symObjAddr: 0x6134, symBinAddr: 0x31908, symSize: 0x30 }
  - { offset: 0x11E777, size: 0x8, addend: 0x0, symName: '__ZN44_$LT$$RF$T$u20$as$u20$core..fmt..Display$GT$3fmt17h8a54944fa7b96008E', symObjAddr: 0x6164, symBinAddr: 0x31938, symSize: 0x30 }
  - { offset: 0x11E905, size: 0x8, addend: 0x0, symName: '__ZN4core5array4iter94_$LT$impl$u20$core..iter..traits..collect..IntoIterator$u20$for$u20$$u5b$T$u3b$$u20$N$u5d$$GT$9into_iter17h55aca570f514e176E', symObjAddr: 0x6270, symBinAddr: 0x319A4, symSize: 0x68 }
  - { offset: 0x121932, size: 0x8, addend: 0x0, symName: '__ZN50_$LT$T$u20$as$u20$core..convert..Into$LT$U$GT$$GT$4into17h03434f35eb40fa64E', symObjAddr: 0xD980, symBinAddr: 0x34B00, symSize: 0x24 }
  - { offset: 0x121972, size: 0x8, addend: 0x0, symName: '__ZN50_$LT$T$u20$as$u20$core..convert..Into$LT$U$GT$$GT$4into17h28aafde71cc6246cE', symObjAddr: 0xD9A4, symBinAddr: 0x34B24, symSize: 0x24 }
  - { offset: 0x1219B2, size: 0x8, addend: 0x0, symName: '__ZN50_$LT$T$u20$as$u20$core..convert..Into$LT$U$GT$$GT$4into17hd22727f047b150a3E', symObjAddr: 0xDA10, symBinAddr: 0x34B48, symSize: 0x24 }
  - { offset: 0x121A1A, size: 0x8, addend: 0x0, symName: '__ZN103_$LT$pyo3..instance..Bound$LT$pyo3..types..any..PyAny$GT$$u20$as$u20$pyo3..types..any..PyAnyMethods$GT$2is17h8661edba6ef6f2b7E', symObjAddr: 0x184, symBinAddr: 0x2F67C, symSize: 0xA4 }
  - { offset: 0x121A86, size: 0x8, addend: 0x0, symName: '__ZN103_$LT$pyo3..instance..Bound$LT$pyo3..types..any..PyAny$GT$$u20$as$u20$pyo3..types..any..PyAnyMethods$GT$3len17h449feaa84ffbbe34E', symObjAddr: 0x6A4, symBinAddr: 0x2F720, symSize: 0xD4 }
  - { offset: 0x121AF3, size: 0x8, addend: 0x0, symName: '__ZN103_$LT$pyo3..instance..Bound$LT$pyo3..types..any..PyAny$GT$$u20$as$u20$pyo3..types..any..PyAnyMethods$GT$3str17h1836f35c505531cdE', symObjAddr: 0xBA8, symBinAddr: 0x2F7F4, symSize: 0x5C }
  - { offset: 0x121B21, size: 0x8, addend: 0x0, symName: '__ZN103_$LT$pyo3..instance..Bound$LT$pyo3..types..any..PyAny$GT$$u20$as$u20$pyo3..types..any..PyAnyMethods$GT$4repr17he14916a62a360751E', symObjAddr: 0xF70, symBinAddr: 0x2F850, symSize: 0x5C }
  - { offset: 0x121B4F, size: 0x8, addend: 0x0, symName: '__ZN103_$LT$pyo3..instance..Bound$LT$pyo3..types..any..PyAny$GT$$u20$as$u20$pyo3..types..any..PyAnyMethods$GT$5call017had6299d7bf25e604E', symObjAddr: 0xFCC, symBinAddr: 0x2F8AC, symSize: 0x4C }
  - { offset: 0x121B7D, size: 0x8, addend: 0x0, symName: '__ZN103_$LT$pyo3..instance..Bound$LT$pyo3..types..any..PyAny$GT$$u20$as$u20$pyo3..types..any..PyAnyMethods$GT$7getattr17h9284a47fa451d8f8E', symObjAddr: 0x13D0, symBinAddr: 0x2F8F8, symSize: 0x168 }
  - { offset: 0x121C03, size: 0x8, addend: 0x0, symName: '__ZN103_$LT$pyo3..instance..Bound$LT$pyo3..types..any..PyAny$GT$$u20$as$u20$pyo3..types..any..PyAnyMethods$GT$7getattr17hc16aa0358718d465E', symObjAddr: 0x1538, symBinAddr: 0x2FA60, symSize: 0x148 }
  - { offset: 0x121C89, size: 0x8, addend: 0x0, symName: '__ZN103_$LT$pyo3..instance..Bound$LT$pyo3..types..any..PyAny$GT$$u20$as$u20$pyo3..types..any..PyAnyMethods$GT$7setattr17h56b671a08119ed01E', symObjAddr: 0x16CC, symBinAddr: 0x2FBA8, symSize: 0x234 }
  - { offset: 0x121D56, size: 0x8, addend: 0x0, symName: '__ZN103_$LT$pyo3..instance..Bound$LT$pyo3..types..any..PyAny$GT$$u20$as$u20$pyo3..types..any..PyAnyMethods$GT$7setattr17hf214094b0a240835E', symObjAddr: 0x1900, symBinAddr: 0x2FDDC, symSize: 0x234 }
  - { offset: 0x121E23, size: 0x8, addend: 0x0, symName: '__ZN103_$LT$pyo3..instance..Bound$LT$pyo3..types..any..PyAny$GT$$u20$as$u20$pyo3..types..any..PyAnyMethods$GT$8get_type17h544133583a4196e6E', symObjAddr: 0x1DE0, symBinAddr: 0x30010, symSize: 0x38 }
  - { offset: 0x121E51, size: 0x8, addend: 0x0, symName: '__ZN103_$LT$pyo3..instance..Bound$LT$pyo3..types..any..PyAny$GT$$u20$as$u20$pyo3..types..any..PyAnyMethods$GT$8try_iter17h7f0f20d8270e8ee2E', symObjAddr: 0x1ECC, symBinAddr: 0x30048, symSize: 0x24 }
  - { offset: 0x121EF1, size: 0x8, addend: 0x0, symName: '__ZN107_$LT$pyo3..instance..Bound$LT$pyo3..types..list..PyList$GT$$u20$as$u20$pyo3..types..list..PyListMethods$GT$18get_item_unchecked17hd90bd3a5c61279f9E', symObjAddr: 0x28F0, symBinAddr: 0x300B4, symSize: 0x54 }
  - { offset: 0x121F2E, size: 0x8, addend: 0x0, symName: '__ZN107_$LT$pyo3..instance..Bound$LT$pyo3..types..list..PyList$GT$$u20$as$u20$pyo3..types..list..PyListMethods$GT$3len17h624db7045d5f5d6dE', symObjAddr: 0x2944, symBinAddr: 0x30108, symSize: 0x2C }
  - { offset: 0x121F5A, size: 0x8, addend: 0x0, symName: '__ZN107_$LT$pyo3..instance..Bound$LT$pyo3..types..list..PyList$GT$$u20$as$u20$pyo3..types..list..PyListMethods$GT$4iter17h431de1091a03f857E', symObjAddr: 0x2970, symBinAddr: 0x30134, symSize: 0x30 }
  - { offset: 0x121F88, size: 0x8, addend: 0x0, symName: '__ZN107_$LT$pyo3..instance..Bound$LT$pyo3..types..list..PyList$GT$$u20$as$u20$pyo3..types..list..PyListMethods$GT$6append17hfac357b6dc164c20E', symObjAddr: 0x29E0, symBinAddr: 0x30164, symSize: 0x14C }
  - { offset: 0x121FFE, size: 0x8, addend: 0x0, symName: '__ZN107_$LT$pyo3..instance..Bound$LT$pyo3..types..list..PyList$GT$$u20$as$u20$pyo3..types..list..PyListMethods$GT$8get_item17hc4c8d27d022819c5E', symObjAddr: 0x2B6C, symBinAddr: 0x302B0, symSize: 0x58 }
  - { offset: 0x122041, size: 0x8, addend: 0x0, symName: '__ZN4pyo35types4list126_$LT$impl$u20$core..iter..traits..collect..IntoIterator$u20$for$u20$pyo3..instance..Bound$LT$pyo3..types..list..PyList$GT$$GT$9into_iter17ha53f8d30746c47e1E', symObjAddr: 0x68F0, symBinAddr: 0x31C04, symSize: 0x24 }
  - { offset: 0x1220E7, size: 0x8, addend: 0x0, symName: '__ZN111_$LT$pyo3..instance..Bound$LT$pyo3..types..bytes..PyBytes$GT$$u20$as$u20$pyo3..types..bytes..PyBytesMethods$GT$8as_bytes17h5f20f345189d0a8aE', symObjAddr: 0x2CCC, symBinAddr: 0x30308, symSize: 0x28 }
  - { offset: 0x122185, size: 0x8, addend: 0x0, symName: '__ZN111_$LT$pyo3..instance..Bound$LT$pyo3..types..tuple..PyTuple$GT$$u20$as$u20$pyo3..types..tuple..PyTupleMethods$GT$3len17h17d1cc297afaff45E', symObjAddr: 0x3280, symBinAddr: 0x30330, symSize: 0x2C }
  - { offset: 0x1221B1, size: 0x8, addend: 0x0, symName: '__ZN111_$LT$pyo3..instance..Bound$LT$pyo3..types..tuple..PyTuple$GT$$u20$as$u20$pyo3..types..tuple..PyTupleMethods$GT$4iter17hb5bdadc8a91a9e89E', symObjAddr: 0x32AC, symBinAddr: 0x3035C, symSize: 0x30 }
  - { offset: 0x1222C9, size: 0x8, addend: 0x0, symName: '__ZN115_$LT$pyo3..instance..Bound$LT$pyo3..types..module..PyModule$GT$$u20$as$u20$pyo3..types..module..PyModuleMethods$GT$12add_function17hb493fea40634ef14E', symObjAddr: 0x3648, symBinAddr: 0x303B0, symSize: 0x1F8 }
  - { offset: 0x12237C, size: 0x8, addend: 0x0, symName: '__ZN115_$LT$pyo3..instance..Bound$LT$pyo3..types..module..PyModule$GT$$u20$as$u20$pyo3..types..module..PyModuleMethods$GT$13add_submodule17hdad38cc5a8637ad7E', symObjAddr: 0x3840, symBinAddr: 0x305A8, symSize: 0x124 }
  - { offset: 0x122417, size: 0x8, addend: 0x0, symName: '__ZN115_$LT$pyo3..instance..Bound$LT$pyo3..types..module..PyModule$GT$$u20$as$u20$pyo3..types..module..PyModuleMethods$GT$3add17h4a55d4b82c54fd7dE', symObjAddr: 0x3BE4, symBinAddr: 0x306CC, symSize: 0x254 }
  - { offset: 0x1224E4, size: 0x8, addend: 0x0, symName: '__ZN115_$LT$pyo3..instance..Bound$LT$pyo3..types..module..PyModule$GT$$u20$as$u20$pyo3..types..module..PyModuleMethods$GT$3add17hbf740938722d4557E', symObjAddr: 0x3E38, symBinAddr: 0x30920, symSize: 0x280 }
  - { offset: 0x1225B1, size: 0x8, addend: 0x0, symName: '__ZN115_$LT$pyo3..instance..Bound$LT$pyo3..types..module..PyModule$GT$$u20$as$u20$pyo3..types..module..PyModuleMethods$GT$4name17h75a7f8cdf9c91aa6E', symObjAddr: 0x410C, symBinAddr: 0x30BA0, symSize: 0x5C }
  - { offset: 0x1225DF, size: 0x8, addend: 0x0, symName: '__ZN115_$LT$pyo3..instance..Bound$LT$pyo3..types..module..PyModule$GT$$u20$as$u20$pyo3..types..module..PyModuleMethods$GT$5index17h5d27d73daf39281dE', symObjAddr: 0x4168, symBinAddr: 0x30BFC, symSize: 0x25C }
  - { offset: 0x1226B2, size: 0x8, addend: 0x0, symName: '__ZN115_$LT$pyo3..instance..Bound$LT$pyo3..types..string..PyString$GT$$u20$as$u20$pyo3..types..string..PyStringMethods$GT$15to_string_lossy17h2b447f334236199fE', symObjAddr: 0x4494, symBinAddr: 0x30E58, symSize: 0x30 }
  - { offset: 0x1226E0, size: 0x8, addend: 0x0, symName: '__ZN115_$LT$pyo3..instance..Bound$LT$pyo3..types..string..PyString$GT$$u20$as$u20$pyo3..types..string..PyStringMethods$GT$6to_cow17hfa06d1358eabd242E', symObjAddr: 0x44F4, symBinAddr: 0x30E88, symSize: 0x30 }
  - { offset: 0x122714, size: 0x8, addend: 0x0, symName: '__ZN4pyo35types6string123_$LT$impl$u20$core..cmp..PartialEq$LT$str$GT$$u20$for$u20$pyo3..instance..Borrowed$LT$pyo3..types..string..PyString$GT$$GT$2eq17h3d2cd1b3d8a5ef0cE', symObjAddr: 0x7030, symBinAddr: 0x31D34, symSize: 0x78 }
  - { offset: 0x122757, size: 0x8, addend: 0x0, symName: '__ZN4pyo35types6string124_$LT$impl$u20$core..cmp..PartialEq$LT$$RF$str$GT$$u20$for$u20$pyo3..instance..Bound$LT$pyo3..types..string..PyString$GT$$GT$2eq17had2eae5578d746e8E', symObjAddr: 0x70A8, symBinAddr: 0x31DAC, symSize: 0x48 }
  - { offset: 0x122834, size: 0x8, addend: 0x0, symName: '__ZN119_$LT$pyo3..instance..Bound$LT$pyo3..types..boolobject..PyBool$GT$$u20$as$u20$pyo3..types..boolobject..PyBoolMethods$GT$7is_true17h9e6792688ca4f5eeE', symObjAddr: 0x4794, symBinAddr: 0x30EB8, symSize: 0x44 }
  - { offset: 0x1228C1, size: 0x8, addend: 0x0, symName: '__ZN119_$LT$pyo3..instance..Bound$LT$pyo3..types..typeobject..PyType$GT$$u20$as$u20$pyo3..types..typeobject..PyTypeMethods$GT$11as_type_ptr17h710c69ed9f47904eE', symObjAddr: 0x4D40, symBinAddr: 0x30EFC, symSize: 0x24 }
  - { offset: 0x1228ED, size: 0x8, addend: 0x0, symName: '__ZN119_$LT$pyo3..instance..Bound$LT$pyo3..types..typeobject..PyType$GT$$u20$as$u20$pyo3..types..typeobject..PyTypeMethods$GT$4name17h480c1dabbde4fdf2E', symObjAddr: 0x4FE8, symBinAddr: 0x30F20, symSize: 0xE0 }
  - { offset: 0x122956, size: 0x8, addend: 0x0, symName: '__ZN119_$LT$pyo3..instance..Bound$LT$pyo3..types..typeobject..PyType$GT$$u20$as$u20$pyo3..types..typeobject..PyTypeMethods$GT$6module17h8b38f61659782a75E', symObjAddr: 0x5170, symBinAddr: 0x31000, symSize: 0x138 }
  - { offset: 0x1229D5, size: 0x8, addend: 0x0, symName: '__ZN119_$LT$pyo3..instance..Bound$LT$pyo3..types..typeobject..PyType$GT$$u20$as$u20$pyo3..types..typeobject..PyTypeMethods$GT$8qualname17h2b3963c1c57f0f1aE', symObjAddr: 0x52A8, symBinAddr: 0x31138, symSize: 0xE0 }
  - { offset: 0x122AB0, size: 0x8, addend: 0x0, symName: '__ZN127_$LT$pyo3..instance..Bound$LT$pyo3..types..traceback..PyTraceback$GT$$u20$as$u20$pyo3..types..traceback..PyTracebackMethods$GT$6format17h7b41e9d6d11ebeddE', symObjAddr: 0x5658, symBinAddr: 0x31218, symSize: 0x670 }
  - { offset: 0x122DE4, size: 0x8, addend: 0x0, symName: '__ZN105_$LT$pyo3..instance..Py$LT$T$GT$$u20$as$u20$core..convert..From$LT$pyo3..instance..Bound$LT$T$GT$$GT$$GT$4from17h21f79d382c0c17e0E', symObjAddr: 0x2088, symBinAddr: 0x3006C, symSize: 0x24 }
  - { offset: 0x122E1B, size: 0x8, addend: 0x0, symName: '__ZN105_$LT$pyo3..instance..Py$LT$T$GT$$u20$as$u20$core..convert..From$LT$pyo3..instance..Bound$LT$T$GT$$GT$$GT$4from17h68dd63741fb576e3E', symObjAddr: 0x20D0, symBinAddr: 0x30090, symSize: 0x24 }
  - { offset: 0x122E58, size: 0x8, addend: 0x0, symName: '__ZN115_$LT$pyo3..instance..Borrowed$LT$T$GT$$u20$as$u20$core..convert..From$LT$$RF$pyo3..instance..Bound$LT$T$GT$$GT$$GT$4from17h4b68555c61151791E', symObjAddr: 0x3624, symBinAddr: 0x3038C, symSize: 0x24 }
  - { offset: 0x122E95, size: 0x8, addend: 0x0, symName: '__ZN127_$LT$pyo3..instance..Py$LT$pyo3..types..any..PyAny$GT$$u20$as$u20$core..convert..From$LT$pyo3..instance..Bound$LT$T$GT$$GT$$GT$4from17h94ac995f0d7f2099E', symObjAddr: 0x5CC8, symBinAddr: 0x31888, symSize: 0x28 }
  - { offset: 0x122ED2, size: 0x8, addend: 0x0, symName: '__ZN128_$LT$pyo3..instance..Bound$LT$T$GT$$u20$as$u20$core..convert..AsRef$LT$pyo3..instance..Py$LT$pyo3..types..any..PyAny$GT$$GT$$GT$6as_ref17hf89f01921b9d9a21E', symObjAddr: 0x5CF0, symBinAddr: 0x318B0, symSize: 0x28 }
  - { offset: 0x124FF4, size: 0x8, addend: 0x0, symName: '__ZN4pyo38instance11Py$LT$T$GT$21from_owned_ptr_or_opt28_$u7b$$u7b$closure$u7d$$u7d$17hdb87ae1e40ce1169E', symObjAddr: 0x8864, symBinAddr: 0x3238C, symSize: 0x1C }
  - { offset: 0x12599F, size: 0x8, addend: 0x0, symName: __ZN4pyo38instance13python_format17h5af79fccc743395eE, symObjAddr: 0x9F78, symBinAddr: 0x32EAC, symSize: 0x2F8 }
  - { offset: 0x126C0C, size: 0x8, addend: 0x0, symName: '__ZN4pyo38instance14Bound$LT$T$GT$4cast5inner17h029d8e7445110f1eE', symObjAddr: 0xAF04, symBinAddr: 0x33774, symSize: 0x84 }
  - { offset: 0x126C41, size: 0x8, addend: 0x0, symName: '__ZN4pyo38instance14Bound$LT$T$GT$4cast5inner17h43d09456dac8f2e3E', symObjAddr: 0xAF88, symBinAddr: 0x337F8, symSize: 0x84 }
  - { offset: 0x126C76, size: 0x8, addend: 0x0, symName: '__ZN4pyo38instance14Bound$LT$T$GT$4cast5inner17hd852b5f220808fadE', symObjAddr: 0xB090, symBinAddr: 0x3387C, symSize: 0x84 }
  - { offset: 0x126CB1, size: 0x8, addend: 0x0, symName: '__ZN4pyo38instance14Bound$LT$T$GT$9cast_into5inner17h0bb808ef22135f85E', symObjAddr: 0xC0F0, symBinAddr: 0x34100, symSize: 0xFC }
  - { offset: 0x126D03, size: 0x8, addend: 0x0, symName: '__ZN4pyo38instance14Bound$LT$T$GT$9cast_into5inner17h1e9006ef3780f96cE', symObjAddr: 0xC1EC, symBinAddr: 0x341FC, symSize: 0xFC }
  - { offset: 0x126D55, size: 0x8, addend: 0x0, symName: '__ZN4pyo38instance14Bound$LT$T$GT$9cast_into5inner17h816b8f6aee73e254E', symObjAddr: 0xC5DC, symBinAddr: 0x342F8, symSize: 0xFC }
  - { offset: 0x126DA7, size: 0x8, addend: 0x0, symName: '__ZN4pyo38instance14Bound$LT$T$GT$9cast_into5inner17hcd8d4d5ac8ee0a67E', symObjAddr: 0xC8D0, symBinAddr: 0x343F4, symSize: 0xFC }
  - { offset: 0x126E3B, size: 0x8, addend: 0x0, symName: '__ZN4pyo38instance17Borrowed$LT$T$GT$4cast5inner17he9391b899e0384a8E', symObjAddr: 0xCE74, symBinAddr: 0x34670, symSize: 0x7C }
  - { offset: 0x126E72, size: 0x8, addend: 0x0, symName: '__ZN4pyo38instance17Borrowed$LT$T$GT$4cast5inner17hfcdf320c040d320cE', symObjAddr: 0xCEF0, symBinAddr: 0x346EC, symSize: 0x7C }
  - { offset: 0x126EA9, size: 0x8, addend: 0x0, symName: '__ZN4pyo38instance17Borrowed$LT$T$GT$4cast5inner17hfe81ec5fcbdc9ecfE', symObjAddr: 0xCF6C, symBinAddr: 0x34768, symSize: 0x7C }
  - { offset: 0x127038, size: 0x8, addend: 0x0, symName: '__ZN4pyo38instance36Bound$LT$pyo3..types..any..PyAny$GT$21from_owned_ptr_or_err28_$u7b$$u7b$closure$u7d$$u7d$17h39f9396a13b03992E', symObjAddr: 0xD6DC, symBinAddr: 0x34A30, symSize: 0x30 }
  - { offset: 0x12709A, size: 0x8, addend: 0x0, symName: '__ZN4pyo38instance36Bound$LT$pyo3..types..any..PyAny$GT$21from_owned_ptr_or_opt28_$u7b$$u7b$closure$u7d$$u7d$17he877ff6ffee5b48aE', symObjAddr: 0xD738, symBinAddr: 0x34A8C, symSize: 0x30 }
  - { offset: 0x1270FD, size: 0x8, addend: 0x0, symName: '__ZN67_$LT$pyo3..instance..Bound$LT$T$GT$$u20$as$u20$core..fmt..Debug$GT$3fmt17h0df384a8c4a3b1c0E', symObjAddr: 0xDA58, symBinAddr: 0x34B6C, symSize: 0x54 }
  - { offset: 0x127161, size: 0x8, addend: 0x0, symName: '__ZN67_$LT$pyo3..instance..Bound$LT$T$GT$$u20$as$u20$core..fmt..Debug$GT$3fmt17h2e8522ec44a97bfaE', symObjAddr: 0xDAAC, symBinAddr: 0x34BC0, symSize: 0x54 }
  - { offset: 0x1271C5, size: 0x8, addend: 0x0, symName: '__ZN67_$LT$pyo3..instance..Bound$LT$T$GT$$u20$as$u20$core..fmt..Debug$GT$3fmt17h822b3e5bc3e92312E', symObjAddr: 0xDB00, symBinAddr: 0x34C14, symSize: 0x54 }
  - { offset: 0x127229, size: 0x8, addend: 0x0, symName: '__ZN67_$LT$pyo3..instance..Bound$LT$T$GT$$u20$as$u20$core..fmt..Debug$GT$3fmt17ha64c124366ea069dE', symObjAddr: 0xDB54, symBinAddr: 0x34C68, symSize: 0x54 }
  - { offset: 0x127293, size: 0x8, addend: 0x0, symName: '__ZN69_$LT$pyo3..instance..Bound$LT$T$GT$$u20$as$u20$core..clone..Clone$GT$5clone17h6437ca921798f5b5E', symObjAddr: 0xDC10, symBinAddr: 0x34CBC, symSize: 0x34 }
  - { offset: 0x1272CA, size: 0x8, addend: 0x0, symName: '__ZN69_$LT$pyo3..instance..Bound$LT$T$GT$$u20$as$u20$core..clone..Clone$GT$5clone17h909deeabe803dbb1E', symObjAddr: 0xDCE0, symBinAddr: 0x34CF0, symSize: 0x34 }
  - { offset: 0x127301, size: 0x8, addend: 0x0, symName: '__ZN69_$LT$pyo3..instance..Bound$LT$T$GT$$u20$as$u20$core..clone..Clone$GT$5clone17hc8a047df193fde6dE', symObjAddr: 0xDD7C, symBinAddr: 0x34D24, symSize: 0x34 }
  - { offset: 0x127338, size: 0x8, addend: 0x0, symName: '__ZN69_$LT$pyo3..instance..Bound$LT$T$GT$$u20$as$u20$core..clone..Clone$GT$5clone17hd09d5ae9a4b4da64E', symObjAddr: 0xDDB0, symBinAddr: 0x34D58, symSize: 0x34 }
  - { offset: 0x12736F, size: 0x8, addend: 0x0, symName: '__ZN69_$LT$pyo3..instance..Bound$LT$T$GT$$u20$as$u20$core..clone..Clone$GT$5clone17hdc95741bab2d5ad9E', symObjAddr: 0xDDE4, symBinAddr: 0x34D8C, symSize: 0x34 }
  - { offset: 0x1273AC, size: 0x8, addend: 0x0, symName: '__ZN69_$LT$pyo3..instance..Bound$LT$T$GT$$u20$as$u20$core..fmt..Display$GT$3fmt17h18381e41f1b9264aE', symObjAddr: 0xDE4C, symBinAddr: 0x34DC0, symSize: 0x54 }
  - { offset: 0x127410, size: 0x8, addend: 0x0, symName: '__ZN69_$LT$pyo3..instance..Bound$LT$T$GT$$u20$as$u20$core..fmt..Display$GT$3fmt17h3170fe05703eeb8bE', symObjAddr: 0xDEA0, symBinAddr: 0x34E14, symSize: 0x54 }
  - { offset: 0x127474, size: 0x8, addend: 0x0, symName: '__ZN69_$LT$pyo3..instance..Bound$LT$T$GT$$u20$as$u20$core..fmt..Display$GT$3fmt17h3bdfb6f5148dda96E', symObjAddr: 0xDEF4, symBinAddr: 0x34E68, symSize: 0x54 }
  - { offset: 0x1274D8, size: 0x8, addend: 0x0, symName: '__ZN69_$LT$pyo3..instance..Bound$LT$T$GT$$u20$as$u20$core..fmt..Display$GT$3fmt17h56b9e99dd7f8529aE', symObjAddr: 0xDF48, symBinAddr: 0x34EBC, symSize: 0x54 }
  - { offset: 0x127542, size: 0x8, addend: 0x0, symName: '__ZN69_$LT$pyo3..instance..Py$LT$T$GT$$u20$as$u20$core..ops..drop..Drop$GT$4drop17h03b50ee097d0c8d9E', symObjAddr: 0xDF9C, symBinAddr: 0x34F10, symSize: 0x28 }
  - { offset: 0x127575, size: 0x8, addend: 0x0, symName: '__ZN69_$LT$pyo3..instance..Py$LT$T$GT$$u20$as$u20$core..ops..drop..Drop$GT$4drop17h0bc40327822bf435E', symObjAddr: 0xDFC4, symBinAddr: 0x34F38, symSize: 0x28 }
  - { offset: 0x1275A8, size: 0x8, addend: 0x0, symName: '__ZN69_$LT$pyo3..instance..Py$LT$T$GT$$u20$as$u20$core..ops..drop..Drop$GT$4drop17h52d6f657abb240e8E', symObjAddr: 0xDFEC, symBinAddr: 0x34F60, symSize: 0x28 }
  - { offset: 0x1275DB, size: 0x8, addend: 0x0, symName: '__ZN69_$LT$pyo3..instance..Py$LT$T$GT$$u20$as$u20$core..ops..drop..Drop$GT$4drop17h6e63c17b0df5f48bE', symObjAddr: 0xE014, symBinAddr: 0x34F88, symSize: 0x28 }
  - { offset: 0x12760E, size: 0x8, addend: 0x0, symName: '__ZN69_$LT$pyo3..instance..Py$LT$T$GT$$u20$as$u20$core..ops..drop..Drop$GT$4drop17h834bbf0f73e06fbcE', symObjAddr: 0xE03C, symBinAddr: 0x34FB0, symSize: 0x28 }
  - { offset: 0x127646, size: 0x8, addend: 0x0, symName: '__ZN69_$LT$pyo3..instance..Py$LT$T$GT$$u20$as$u20$core..ops..drop..Drop$GT$4drop5inner17h77181a4726aaa38eE', symObjAddr: 0xE0B4, symBinAddr: 0x34FD8, symSize: 0x1D4 }
  - { offset: 0x1276C1, size: 0x8, addend: 0x0, symName: '__ZN69_$LT$pyo3..instance..Py$LT$T$GT$$u20$as$u20$core..ops..drop..Drop$GT$4drop9drop_slow17h8a6316c19b463128E', symObjAddr: 0xE288, symBinAddr: 0x82778, symSize: 0x24 }
  - { offset: 0x1276F2, size: 0x8, addend: 0x0, symName: '__ZN72_$LT$pyo3..instance..Bound$LT$T$GT$$u20$as$u20$core..ops..drop..Drop$GT$4drop17h29b89a97ff9e1a61E', symObjAddr: 0xE480, symBinAddr: 0x351AC, symSize: 0x1A0 }
  - { offset: 0x127761, size: 0x8, addend: 0x0, symName: '__ZN72_$LT$pyo3..instance..Bound$LT$T$GT$$u20$as$u20$core..ops..drop..Drop$GT$4drop17h435fc35bfee6fddcE', symObjAddr: 0xE7C0, symBinAddr: 0x3534C, symSize: 0x1A0 }
  - { offset: 0x1277D0, size: 0x8, addend: 0x0, symName: '__ZN72_$LT$pyo3..instance..Bound$LT$T$GT$$u20$as$u20$core..ops..drop..Drop$GT$4drop17h45c5c2cb361742ebE', symObjAddr: 0xE960, symBinAddr: 0x354EC, symSize: 0x1A0 }
  - { offset: 0x12783F, size: 0x8, addend: 0x0, symName: '__ZN72_$LT$pyo3..instance..Bound$LT$T$GT$$u20$as$u20$core..ops..drop..Drop$GT$4drop17h49ce69c5d67e42e5E', symObjAddr: 0xEB00, symBinAddr: 0x3568C, symSize: 0x1A0 }
  - { offset: 0x1278AE, size: 0x8, addend: 0x0, symName: '__ZN72_$LT$pyo3..instance..Bound$LT$T$GT$$u20$as$u20$core..ops..drop..Drop$GT$4drop17h4e57413b1af54d00E', symObjAddr: 0xECA0, symBinAddr: 0x3582C, symSize: 0x1A0 }
  - { offset: 0x12791D, size: 0x8, addend: 0x0, symName: '__ZN72_$LT$pyo3..instance..Bound$LT$T$GT$$u20$as$u20$core..ops..drop..Drop$GT$4drop17h51666c3eccc4ac7cE', symObjAddr: 0xEE40, symBinAddr: 0x359CC, symSize: 0x1A0 }
  - { offset: 0x12798C, size: 0x8, addend: 0x0, symName: '__ZN72_$LT$pyo3..instance..Bound$LT$T$GT$$u20$as$u20$core..ops..drop..Drop$GT$4drop17h741b6e386f2bcd1aE', symObjAddr: 0xF180, symBinAddr: 0x35B6C, symSize: 0x1A0 }
  - { offset: 0x1279FB, size: 0x8, addend: 0x0, symName: '__ZN72_$LT$pyo3..instance..Bound$LT$T$GT$$u20$as$u20$core..ops..drop..Drop$GT$4drop17had313085a69f8528E', symObjAddr: 0xF320, symBinAddr: 0x35D0C, symSize: 0x1A0 }
  - { offset: 0x127A6A, size: 0x8, addend: 0x0, symName: '__ZN72_$LT$pyo3..instance..Bound$LT$T$GT$$u20$as$u20$core..ops..drop..Drop$GT$4drop17he7906ed0e15758a9E', symObjAddr: 0xFCE0, symBinAddr: 0x35EAC, symSize: 0x1A0 }
  - { offset: 0x127AD9, size: 0x8, addend: 0x0, symName: '__ZN72_$LT$pyo3..instance..Bound$LT$T$GT$$u20$as$u20$core..ops..drop..Drop$GT$4drop17hf316a7ba97771dd2E', symObjAddr: 0xFE80, symBinAddr: 0x3604C, symSize: 0x1A0 }
  - { offset: 0x127B48, size: 0x8, addend: 0x0, symName: '__ZN72_$LT$pyo3..instance..Bound$LT$T$GT$$u20$as$u20$core..ops..drop..Drop$GT$4drop17hf73e8b2ee3637c4dE', symObjAddr: 0x10020, symBinAddr: 0x361EC, symSize: 0x1A0 }
  - { offset: 0x127BBD, size: 0x8, addend: 0x0, symName: '__ZN74_$LT$pyo3..instance..Bound$LT$T$GT$$u20$as$u20$core..ops..deref..Deref$GT$5deref17h07758cb954435fafE', symObjAddr: 0x101C0, symBinAddr: 0x3638C, symSize: 0x24 }
  - { offset: 0x127BF4, size: 0x8, addend: 0x0, symName: '__ZN74_$LT$pyo3..instance..Bound$LT$T$GT$$u20$as$u20$core..ops..deref..Deref$GT$5deref17h8e4ee8fdb21214caE', symObjAddr: 0x10298, symBinAddr: 0x363B0, symSize: 0x24 }
  - { offset: 0x127C2B, size: 0x8, addend: 0x0, symName: '__ZN74_$LT$pyo3..instance..Bound$LT$T$GT$$u20$as$u20$core..ops..deref..Deref$GT$5deref17hb839e26f4db764b5E', symObjAddr: 0x10304, symBinAddr: 0x363D4, symSize: 0x24 }
  - { offset: 0x127C62, size: 0x8, addend: 0x0, symName: '__ZN74_$LT$pyo3..instance..Bound$LT$T$GT$$u20$as$u20$core..ops..deref..Deref$GT$5deref17hc006ab6eee52535bE', symObjAddr: 0x10328, symBinAddr: 0x363F8, symSize: 0x24 }
  - { offset: 0x127C99, size: 0x8, addend: 0x0, symName: '__ZN74_$LT$pyo3..instance..Bound$LT$T$GT$$u20$as$u20$core..ops..deref..Deref$GT$5deref17hd321790c95be210dE', symObjAddr: 0x1034C, symBinAddr: 0x3641C, symSize: 0x24 }
  - { offset: 0x127CD0, size: 0x8, addend: 0x0, symName: '__ZN74_$LT$pyo3..instance..Bound$LT$T$GT$$u20$as$u20$core..ops..deref..Deref$GT$5deref17he0c0b34d84f13870E', symObjAddr: 0x10370, symBinAddr: 0x36440, symSize: 0x24 }
  - { offset: 0x127D0D, size: 0x8, addend: 0x0, symName: '__ZN77_$LT$pyo3..instance..Borrowed$LT$T$GT$$u20$as$u20$core..ops..deref..Deref$GT$5deref17h0c6f8c00306b30b7E', symObjAddr: 0x103E4, symBinAddr: 0x36464, symSize: 0x28 }
  - { offset: 0x127D44, size: 0x8, addend: 0x0, symName: '__ZN77_$LT$pyo3..instance..Borrowed$LT$T$GT$$u20$as$u20$core..ops..deref..Deref$GT$5deref17h71af435865309570E', symObjAddr: 0x1045C, symBinAddr: 0x3648C, symSize: 0x28 }
  - { offset: 0x127D7B, size: 0x8, addend: 0x0, symName: '__ZN77_$LT$pyo3..instance..Borrowed$LT$T$GT$$u20$as$u20$core..ops..deref..Deref$GT$5deref17h7247ca13085baa8aE', symObjAddr: 0x10484, symBinAddr: 0x364B4, symSize: 0x28 }
  - { offset: 0x127DB2, size: 0x8, addend: 0x0, symName: '__ZN77_$LT$pyo3..instance..Borrowed$LT$T$GT$$u20$as$u20$core..ops..deref..Deref$GT$5deref17hba4c64a5f04e551bE', symObjAddr: 0x104FC, symBinAddr: 0x364DC, symSize: 0x28 }
  - { offset: 0x127DE9, size: 0x8, addend: 0x0, symName: '__ZN77_$LT$pyo3..instance..Borrowed$LT$T$GT$$u20$as$u20$core..ops..deref..Deref$GT$5deref17hcb9992ad2dde2ec6E', symObjAddr: 0x10524, symBinAddr: 0x36504, symSize: 0x28 }
  - { offset: 0x127E20, size: 0x8, addend: 0x0, symName: '__ZN77_$LT$pyo3..instance..Borrowed$LT$T$GT$$u20$as$u20$core..ops..deref..Deref$GT$5deref17hd0439b04ff51ce86E', symObjAddr: 0x1054C, symBinAddr: 0x3652C, symSize: 0x28 }
  - { offset: 0x127E57, size: 0x8, addend: 0x0, symName: '__ZN77_$LT$pyo3..instance..Borrowed$LT$T$GT$$u20$as$u20$core..ops..deref..Deref$GT$5deref17hd7d2d25049badc7bE', symObjAddr: 0x1059C, symBinAddr: 0x36554, symSize: 0x28 }
  - { offset: 0x127E8E, size: 0x8, addend: 0x0, symName: '__ZN77_$LT$pyo3..instance..Borrowed$LT$T$GT$$u20$as$u20$core..ops..deref..Deref$GT$5deref17hfd7c41badce05810E', symObjAddr: 0x105EC, symBinAddr: 0x3657C, symSize: 0x28 }
  - { offset: 0x127ECB, size: 0x8, addend: 0x0, symName: '__ZN87_$LT$pyo3..instance..Bound$LT$T$GT$$u20$as$u20$pyo3..instance..BoundObject$LT$T$GT$$GT$10into_bound17h7e95d25bf006b02dE', symObjAddr: 0x10810, symBinAddr: 0x36684, symSize: 0x14 }
  - { offset: 0x127F02, size: 0x8, addend: 0x0, symName: '__ZN87_$LT$pyo3..instance..Bound$LT$T$GT$$u20$as$u20$pyo3..instance..BoundObject$LT$T$GT$$GT$11as_borrowed17h49a5f1758649772fE', symObjAddr: 0x10824, symBinAddr: 0x36698, symSize: 0x24 }
  - { offset: 0x127F39, size: 0x8, addend: 0x0, symName: '__ZN87_$LT$pyo3..instance..Bound$LT$T$GT$$u20$as$u20$pyo3..instance..BoundObject$LT$T$GT$$GT$11as_borrowed17h501d43cd88575400E', symObjAddr: 0x10848, symBinAddr: 0x366BC, symSize: 0x24 }
  - { offset: 0x127F70, size: 0x8, addend: 0x0, symName: '__ZN87_$LT$pyo3..instance..Bound$LT$T$GT$$u20$as$u20$pyo3..instance..BoundObject$LT$T$GT$$GT$6as_ptr17h658627c5718eaab2E', symObjAddr: 0x1086C, symBinAddr: 0x366E0, symSize: 0x24 }
  - { offset: 0x127FA7, size: 0x8, addend: 0x0, symName: '__ZN87_$LT$pyo3..instance..Bound$LT$T$GT$$u20$as$u20$pyo3..instance..BoundObject$LT$T$GT$$GT$6unbind17ha8e23a1089152e59E', symObjAddr: 0x10890, symBinAddr: 0x36704, symSize: 0x24 }
  - { offset: 0x127FDE, size: 0x8, addend: 0x0, symName: '__ZN87_$LT$pyo3..instance..Bound$LT$T$GT$$u20$as$u20$pyo3..instance..BoundObject$LT$T$GT$$GT$8into_any17h15c9ac5ee69134fdE', symObjAddr: 0x108B4, symBinAddr: 0x36728, symSize: 0x24 }
  - { offset: 0x128015, size: 0x8, addend: 0x0, symName: '__ZN87_$LT$pyo3..instance..Bound$LT$T$GT$$u20$as$u20$pyo3..instance..BoundObject$LT$T$GT$$GT$8into_any17h3608a6d7d53166d5E', symObjAddr: 0x108D8, symBinAddr: 0x3674C, symSize: 0x24 }
  - { offset: 0x12804C, size: 0x8, addend: 0x0, symName: '__ZN87_$LT$pyo3..instance..Bound$LT$T$GT$$u20$as$u20$pyo3..instance..BoundObject$LT$T$GT$$GT$8into_any17h5cbd0908fdb0b98eE', symObjAddr: 0x108FC, symBinAddr: 0x36770, symSize: 0x24 }
  - { offset: 0x128083, size: 0x8, addend: 0x0, symName: '__ZN87_$LT$pyo3..instance..Bound$LT$T$GT$$u20$as$u20$pyo3..instance..BoundObject$LT$T$GT$$GT$8into_any17haaaaab1c10f9e263E', symObjAddr: 0x10920, symBinAddr: 0x36794, symSize: 0x24 }
  - { offset: 0x1280BA, size: 0x8, addend: 0x0, symName: '__ZN87_$LT$pyo3..instance..Bound$LT$T$GT$$u20$as$u20$pyo3..instance..BoundObject$LT$T$GT$$GT$8into_any17hd1d43cea3e392144E', symObjAddr: 0x10968, symBinAddr: 0x367B8, symSize: 0x24 }
  - { offset: 0x1280F7, size: 0x8, addend: 0x0, symName: '__ZN90_$LT$pyo3..instance..Borrowed$LT$T$GT$$u20$as$u20$pyo3..instance..BoundObject$LT$T$GT$$GT$11as_borrowed17h374b139c8c84ba38E', symObjAddr: 0x10A00, symBinAddr: 0x367DC, symSize: 0x18 }
  - { offset: 0x12812E, size: 0x8, addend: 0x0, symName: '__ZN90_$LT$pyo3..instance..Borrowed$LT$T$GT$$u20$as$u20$pyo3..instance..BoundObject$LT$T$GT$$GT$11as_borrowed17h7e8a0a8d1b8ec49eE', symObjAddr: 0x10A18, symBinAddr: 0x367F4, symSize: 0x18 }
  - { offset: 0x128165, size: 0x8, addend: 0x0, symName: '__ZN90_$LT$pyo3..instance..Borrowed$LT$T$GT$$u20$as$u20$pyo3..instance..BoundObject$LT$T$GT$$GT$6as_ptr17h9f443656288aa1a4E', symObjAddr: 0x10A30, symBinAddr: 0x3680C, symSize: 0x28 }
  - { offset: 0x12819C, size: 0x8, addend: 0x0, symName: '__ZN90_$LT$pyo3..instance..Borrowed$LT$T$GT$$u20$as$u20$pyo3..instance..BoundObject$LT$T$GT$$GT$8into_any17h0040b3c5d94be8c4E', symObjAddr: 0x10A58, symBinAddr: 0x36834, symSize: 0x24 }
  - { offset: 0x1281D3, size: 0x8, addend: 0x0, symName: '__ZN90_$LT$pyo3..instance..Borrowed$LT$T$GT$$u20$as$u20$pyo3..instance..BoundObject$LT$T$GT$$GT$8into_any17ha6e4b7cee6cf195fE', symObjAddr: 0x10AE8, symBinAddr: 0x36858, symSize: 0x24 }
  - { offset: 0x12820A, size: 0x8, addend: 0x0, symName: '__ZN90_$LT$pyo3..instance..Borrowed$LT$T$GT$$u20$as$u20$pyo3..instance..BoundObject$LT$T$GT$$GT$8into_any17hc94d5fc504ed054cE', symObjAddr: 0x10B30, symBinAddr: 0x3687C, symSize: 0x24 }
  - { offset: 0x128241, size: 0x8, addend: 0x0, symName: '__ZN90_$LT$pyo3..instance..Borrowed$LT$T$GT$$u20$as$u20$pyo3..instance..BoundObject$LT$T$GT$$GT$8into_any17hd240f637028f401cE', symObjAddr: 0x10B54, symBinAddr: 0x368A0, symSize: 0x24 }
  - { offset: 0x128284, size: 0x8, addend: 0x0, symName: '__ZN47_$LT$T$u20$as$u20$pyo3..err..PyErrArguments$GT$9arguments17h68f862d4eed1fcadE', symObjAddr: 0x61DC, symBinAddr: 0x31968, symSize: 0x3C }
  - { offset: 0x1284BF, size: 0x8, addend: 0x0, symName: __ZN4pyo310conversion15IntoPyObjectExt22into_pyobject_or_pyerr17h08fec1b61e9c2080E, symObjAddr: 0x64B8, symBinAddr: 0x31A0C, symSize: 0x48 }
  - { offset: 0x12852A, size: 0x8, addend: 0x0, symName: __ZN4pyo310conversion15IntoPyObjectExt22into_pyobject_or_pyerr17h81dbb8eb649e2eb1E, symObjAddr: 0x6548, symBinAddr: 0x31A54, symSize: 0x48 }
  - { offset: 0x128595, size: 0x8, addend: 0x0, symName: __ZN4pyo310conversion15IntoPyObjectExt22into_pyobject_or_pyerr17ha423f3c0d76e6095E, symObjAddr: 0x6620, symBinAddr: 0x31A9C, symSize: 0x48 }
  - { offset: 0x128600, size: 0x8, addend: 0x0, symName: __ZN4pyo310conversion15IntoPyObjectExt22into_pyobject_or_pyerr17hcf774556b7cf237fE, symObjAddr: 0x66B0, symBinAddr: 0x31AE4, symSize: 0x48 }
  - { offset: 0x12866B, size: 0x8, addend: 0x0, symName: __ZN4pyo310conversion15IntoPyObjectExt22into_pyobject_or_pyerr17hd535b2963b46288aE, symObjAddr: 0x66F8, symBinAddr: 0x31B2C, symSize: 0x48 }
  - { offset: 0x1286D6, size: 0x8, addend: 0x0, symName: __ZN4pyo310conversion15IntoPyObjectExt22into_pyobject_or_pyerr17hdb0e5d035590f423E, symObjAddr: 0x6740, symBinAddr: 0x31B74, symSize: 0x48 }
  - { offset: 0x128741, size: 0x8, addend: 0x0, symName: __ZN4pyo310conversion15IntoPyObjectExt22into_pyobject_or_pyerr17hdbdb4f7227813243E, symObjAddr: 0x6788, symBinAddr: 0x31BBC, symSize: 0x48 }
  - { offset: 0x1287B2, size: 0x8, addend: 0x0, symName: '__ZN78_$LT$pyo3..instance..Py$LT$T$GT$$u20$as$u20$pyo3..conversion..IntoPyObject$GT$13into_pyobject17hce57209138324cfbE', symObjAddr: 0x1063C, symBinAddr: 0x365A4, symSize: 0x24 }
  - { offset: 0x128806, size: 0x8, addend: 0x0, symName: '__ZN81_$LT$pyo3..instance..Bound$LT$T$GT$$u20$as$u20$pyo3..conversion..IntoPyObject$GT$13into_pyobject17h294a542f1b7f1ce7E', symObjAddr: 0x10660, symBinAddr: 0x365C8, symSize: 0x14 }
  - { offset: 0x128854, size: 0x8, addend: 0x0, symName: '__ZN81_$LT$pyo3..instance..Bound$LT$T$GT$$u20$as$u20$pyo3..conversion..IntoPyObject$GT$13into_pyobject17hcffed04396bddc89E', symObjAddr: 0x1069C, symBinAddr: 0x365DC, symSize: 0x14 }
  - { offset: 0x1288A8, size: 0x8, addend: 0x0, symName: '__ZN84_$LT$pyo3..instance..Borrowed$LT$T$GT$$u20$as$u20$pyo3..conversion..IntoPyObject$GT$13into_pyobject17ha2a97c2ad2a8f863E', symObjAddr: 0x106D8, symBinAddr: 0x365F0, symSize: 0x14 }
  - { offset: 0x1288F6, size: 0x8, addend: 0x0, symName: '__ZN84_$LT$pyo3..instance..Borrowed$LT$T$GT$$u20$as$u20$pyo3..conversion..IntoPyObject$GT$13into_pyobject17hf246acfab35cf48dE', symObjAddr: 0x10700, symBinAddr: 0x36604, symSize: 0x14 }
  - { offset: 0x12894A, size: 0x8, addend: 0x0, symName: '__ZN85_$LT$$RF$pyo3..instance..Bound$LT$T$GT$$u20$as$u20$pyo3..conversion..IntoPyObject$GT$13into_pyobject17h0b2d2ad6d4220819E', symObjAddr: 0x10714, symBinAddr: 0x36618, symSize: 0x24 }
  - { offset: 0x128998, size: 0x8, addend: 0x0, symName: '__ZN85_$LT$$RF$pyo3..instance..Bound$LT$T$GT$$u20$as$u20$pyo3..conversion..IntoPyObject$GT$13into_pyobject17h57b7170c659de6fcE', symObjAddr: 0x107A4, symBinAddr: 0x3663C, symSize: 0x24 }
  - { offset: 0x1289E6, size: 0x8, addend: 0x0, symName: '__ZN85_$LT$$RF$pyo3..instance..Bound$LT$T$GT$$u20$as$u20$pyo3..conversion..IntoPyObject$GT$13into_pyobject17hb9a078bc46f5b98fE', symObjAddr: 0x107C8, symBinAddr: 0x36660, symSize: 0x24 }
  - { offset: 0x1290BD, size: 0x8, addend: 0x0, symName: '__ZN4pyo35types5bytes77_$LT$impl$u20$pyo3..instance..Borrowed$LT$pyo3..types..bytes..PyBytes$GT$$GT$8as_bytes17h7ba8a905e1dad1f9E', symObjAddr: 0x6960, symBinAddr: 0x31C28, symSize: 0x90 }
  - { offset: 0x129116, size: 0x8, addend: 0x0, symName: '__ZN4pyo35types5tuple77_$LT$impl$u20$pyo3..instance..Borrowed$LT$pyo3..types..tuple..PyTuple$GT$$GT$13iter_borrowed17h79336a4a3ddbba58E', symObjAddr: 0x6F54, symBinAddr: 0x31CB8, symSize: 0x24 }
  - { offset: 0x12939B, size: 0x8, addend: 0x0, symName: '__ZN4pyo35types5tuple77_$LT$impl$u20$pyo3..instance..Borrowed$LT$pyo3..types..tuple..PyTuple$GT$$GT$27get_borrowed_item_unchecked17h0d55ec7993390491E', symObjAddr: 0x6FD8, symBinAddr: 0x31CDC, symSize: 0x58 }
  - { offset: 0x129405, size: 0x8, addend: 0x0, symName: '__ZN4pyo35types6string79_$LT$impl$u20$pyo3..instance..Borrowed$LT$pyo3..types..string..PyString$GT$$GT$15to_string_lossy17h1ce5da73ef4e8d99E', symObjAddr: 0x7180, symBinAddr: 0x31DF4, symSize: 0x174 }
  - { offset: 0x1294CF, size: 0x8, addend: 0x0, symName: '__ZN4pyo35types6string79_$LT$impl$u20$pyo3..instance..Borrowed$LT$pyo3..types..string..PyString$GT$$GT$6to_cow17h7bfd57f78ac6d4caE', symObjAddr: 0x7460, symBinAddr: 0x31F68, symSize: 0x3C }
  - { offset: 0x1294F2, size: 0x8, addend: 0x0, symName: '__ZN4pyo35types6string79_$LT$impl$u20$pyo3..instance..Borrowed$LT$pyo3..types..string..PyString$GT$$GT$6to_str17h1a5bbdf156d72ce3E', symObjAddr: 0x749C, symBinAddr: 0x31FA4, symSize: 0xD0 }
  - { offset: 0x12955E, size: 0x8, addend: 0x0, symName: '__ZN4pyo35types8iterator83_$LT$impl$u20$pyo3..instance..Borrowed$LT$pyo3..types..iterator..PyIterator$GT$$GT$4next17h27433e126d8f8f62E', symObjAddr: 0x82F8, symBinAddr: 0x32074, symSize: 0x9C }
  - { offset: 0x1295FF, size: 0x8, addend: 0x0, symName: '__ZN4pyo38instance11Py$LT$T$GT$10into_bound17h2529e9c7c7b7e724E', symObjAddr: 0x84DC, symBinAddr: 0x32110, symSize: 0x1C }
  - { offset: 0x129646, size: 0x8, addend: 0x0, symName: '__ZN4pyo38instance11Py$LT$T$GT$10into_bound17h33ce7a6bed18bd02E', symObjAddr: 0x84F8, symBinAddr: 0x3212C, symSize: 0x1C }
  - { offset: 0x1296C5, size: 0x8, addend: 0x0, symName: '__ZN4pyo38instance11Py$LT$T$GT$14from_owned_ptr17h07402b50aba1ee87E', symObjAddr: 0x85CC, symBinAddr: 0x32148, symSize: 0x54 }
  - { offset: 0x12970C, size: 0x8, addend: 0x0, symName: '__ZN4pyo38instance11Py$LT$T$GT$21from_owned_ptr_or_err17h65efb0ecd6470e3eE', symObjAddr: 0x8674, symBinAddr: 0x3219C, symSize: 0x98 }
  - { offset: 0x129771, size: 0x8, addend: 0x0, symName: '__ZN4pyo38instance11Py$LT$T$GT$21from_owned_ptr_or_err17ha9bcf608ae51aabbE', symObjAddr: 0x870C, symBinAddr: 0x32234, symSize: 0x98 }
  - { offset: 0x1297D6, size: 0x8, addend: 0x0, symName: '__ZN4pyo38instance11Py$LT$T$GT$21from_owned_ptr_or_err17hf1e47ac2c2de6783E', symObjAddr: 0x87A4, symBinAddr: 0x322CC, symSize: 0x98 }
  - { offset: 0x12983B, size: 0x8, addend: 0x0, symName: '__ZN4pyo38instance11Py$LT$T$GT$21from_owned_ptr_or_opt17h42733131702644d6E', symObjAddr: 0x883C, symBinAddr: 0x32364, symSize: 0x28 }
  - { offset: 0x1298D2, size: 0x8, addend: 0x0, symName: '__ZN4pyo38instance11Py$LT$T$GT$4bind17h0c102cef09e02bd7E', symObjAddr: 0x88B4, symBinAddr: 0x323A8, symSize: 0x38 }
  - { offset: 0x129994, size: 0x8, addend: 0x0, symName: '__ZN4pyo38instance11Py$LT$T$GT$4bind17h95957d7c696d6e1bE', symObjAddr: 0x8924, symBinAddr: 0x323E0, symSize: 0x38 }
  - { offset: 0x129A7F, size: 0x8, addend: 0x0, symName: '__ZN4pyo38instance11Py$LT$T$GT$4bind17hb8e82864747d45e3E', symObjAddr: 0x8994, symBinAddr: 0x32418, symSize: 0x38 }
  - { offset: 0x129B34, size: 0x8, addend: 0x0, symName: '__ZN4pyo38instance11Py$LT$T$GT$4bind17hedea7e219155c83aE', symObjAddr: 0x89CC, symBinAddr: 0x32450, symSize: 0x38 }
  - { offset: 0x129BC0, size: 0x8, addend: 0x0, symName: '__ZN4pyo38instance11Py$LT$T$GT$6as_ptr17h263abf2d63dc2d18E', symObjAddr: 0x8A3C, symBinAddr: 0x32488, symSize: 0x1C }
  - { offset: 0x129BEC, size: 0x8, addend: 0x0, symName: '__ZN4pyo38instance11Py$LT$T$GT$6as_ptr17h26ff0a6545121d4bE', symObjAddr: 0x8A58, symBinAddr: 0x324A4, symSize: 0x1C }
  - { offset: 0x129C25, size: 0x8, addend: 0x0, symName: '__ZN4pyo38instance11Py$LT$T$GT$6as_ptr17h390334b459e124afE', symObjAddr: 0x8A90, symBinAddr: 0x324C0, symSize: 0x1C }
  - { offset: 0x129C5E, size: 0x8, addend: 0x0, symName: '__ZN4pyo38instance11Py$LT$T$GT$6as_ptr17h57263e7d2d58e640E', symObjAddr: 0x8AC8, symBinAddr: 0x324DC, symSize: 0x1C }
  - { offset: 0x129C97, size: 0x8, addend: 0x0, symName: '__ZN4pyo38instance11Py$LT$T$GT$6as_ptr17h5dc81172c913b0f4E', symObjAddr: 0x8AE4, symBinAddr: 0x324F8, symSize: 0x1C }
  - { offset: 0x129CD0, size: 0x8, addend: 0x0, symName: '__ZN4pyo38instance11Py$LT$T$GT$6as_ptr17h7666935db085efceE', symObjAddr: 0x8B00, symBinAddr: 0x32514, symSize: 0x1C }
  - { offset: 0x129D16, size: 0x8, addend: 0x0, symName: '__ZN4pyo38instance11Py$LT$T$GT$6as_ptr17h8df9c5182079756fE', symObjAddr: 0x8B54, symBinAddr: 0x32530, symSize: 0x1C }
  - { offset: 0x129D4F, size: 0x8, addend: 0x0, symName: '__ZN4pyo38instance11Py$LT$T$GT$6as_ptr17h929f55449ec493d2E', symObjAddr: 0x8B8C, symBinAddr: 0x3254C, symSize: 0x1C }
  - { offset: 0x129D7B, size: 0x8, addend: 0x0, symName: '__ZN4pyo38instance11Py$LT$T$GT$6as_ptr17h94a70167ba9f2fedE', symObjAddr: 0x8BA8, symBinAddr: 0x32568, symSize: 0x1C }
  - { offset: 0x129DB4, size: 0x8, addend: 0x0, symName: '__ZN4pyo38instance11Py$LT$T$GT$6as_ptr17h990596e3a56d5494E', symObjAddr: 0x8BE0, symBinAddr: 0x32584, symSize: 0x1C }
  - { offset: 0x129E07, size: 0x8, addend: 0x0, symName: '__ZN4pyo38instance11Py$LT$T$GT$6as_ptr17hb35d5142bd6e8a7aE', symObjAddr: 0x8C6C, symBinAddr: 0x325A0, symSize: 0x1C }
  - { offset: 0x129E40, size: 0x8, addend: 0x0, symName: '__ZN4pyo38instance11Py$LT$T$GT$6as_ptr17hb9d23f8dd5bda57eE', symObjAddr: 0x8CA4, symBinAddr: 0x325BC, symSize: 0x1C }
  - { offset: 0x129EA0, size: 0x8, addend: 0x0, symName: '__ZN4pyo38instance11Py$LT$T$GT$8into_any17h0fa3c79ca13a13cbE', symObjAddr: 0x8D84, symBinAddr: 0x325D8, symSize: 0x30 }
  - { offset: 0x129ECC, size: 0x8, addend: 0x0, symName: '__ZN4pyo38instance11Py$LT$T$GT$8into_any17h4c42678cdfad4a40E', symObjAddr: 0x8DE4, symBinAddr: 0x32608, symSize: 0x30 }
  - { offset: 0x129EF8, size: 0x8, addend: 0x0, symName: '__ZN4pyo38instance11Py$LT$T$GT$8into_any17h836f77b5d76fc0ceE', symObjAddr: 0x8E44, symBinAddr: 0x32638, symSize: 0x30 }
  - { offset: 0x129F24, size: 0x8, addend: 0x0, symName: '__ZN4pyo38instance11Py$LT$T$GT$8into_any17ha5c0565fa2415b0cE', symObjAddr: 0x8EA4, symBinAddr: 0x32668, symSize: 0x30 }
  - { offset: 0x129F50, size: 0x8, addend: 0x0, symName: '__ZN4pyo38instance11Py$LT$T$GT$8into_any17hbdc0e5f6c5866149E', symObjAddr: 0x8ED4, symBinAddr: 0x32698, symSize: 0x30 }
  - { offset: 0x129F7C, size: 0x8, addend: 0x0, symName: '__ZN4pyo38instance11Py$LT$T$GT$8into_any17hc7ba9eecf6b35cf3E', symObjAddr: 0x8F04, symBinAddr: 0x326C8, symSize: 0x30 }
  - { offset: 0x129FA8, size: 0x8, addend: 0x0, symName: '__ZN4pyo38instance11Py$LT$T$GT$8into_any17hdf366673d8f861f6E', symObjAddr: 0x8F34, symBinAddr: 0x326F8, symSize: 0x30 }
  - { offset: 0x129FD4, size: 0x8, addend: 0x0, symName: '__ZN4pyo38instance11Py$LT$T$GT$8into_ptr17h4962663e7c82c6a0E', symObjAddr: 0x8F64, symBinAddr: 0x32728, symSize: 0x30 }
  - { offset: 0x12A000, size: 0x8, addend: 0x0, symName: '__ZN4pyo38instance11Py$LT$T$GT$9clone_ref17h29a64c5fda2fd8c2E', symObjAddr: 0x90D0, symBinAddr: 0x32758, symSize: 0x10C }
  - { offset: 0x12A09C, size: 0x8, addend: 0x0, symName: '__ZN4pyo38instance11Py$LT$T$GT$9clone_ref17h3c84ba9f872c2a93E', symObjAddr: 0x91DC, symBinAddr: 0x32864, symSize: 0x10C }
  - { offset: 0x12A145, size: 0x8, addend: 0x0, symName: '__ZN4pyo38instance11Py$LT$T$GT$9clone_ref17h43dd6998080a249bE', symObjAddr: 0x92E8, symBinAddr: 0x32970, symSize: 0x10C }
  - { offset: 0x12A1E1, size: 0x8, addend: 0x0, symName: '__ZN4pyo38instance11Py$LT$T$GT$9clone_ref17h67d5cc4c3a5eae1bE', symObjAddr: 0x9500, symBinAddr: 0x32A7C, symSize: 0x10C }
  - { offset: 0x12A27D, size: 0x8, addend: 0x0, symName: '__ZN4pyo38instance11Py$LT$T$GT$9clone_ref17hb5c180a30369b1ffE', symObjAddr: 0x9A3C, symBinAddr: 0x32B88, symSize: 0x10C }
  - { offset: 0x12A319, size: 0x8, addend: 0x0, symName: '__ZN4pyo38instance11Py$LT$T$GT$9clone_ref17hd5efc763cf740f8eE', symObjAddr: 0x9B48, symBinAddr: 0x32C94, symSize: 0x10C }
  - { offset: 0x12A3B5, size: 0x8, addend: 0x0, symName: '__ZN4pyo38instance11Py$LT$T$GT$9clone_ref17hf821494a653b47efE', symObjAddr: 0x9E6C, symBinAddr: 0x32DA0, symSize: 0x10C }
  - { offset: 0x12A451, size: 0x8, addend: 0x0, symName: '__ZN4pyo38instance14Bound$LT$T$GT$10as_unbound17h726d4ca583ad9c90E', symObjAddr: 0xA270, symBinAddr: 0x331A4, symSize: 0x1C }
  - { offset: 0x12A47D, size: 0x8, addend: 0x0, symName: '__ZN4pyo38instance14Bound$LT$T$GT$11as_borrowed17h2e9e088e5b6dbd5eE', symObjAddr: 0xA28C, symBinAddr: 0x331C0, symSize: 0x40 }
  - { offset: 0x12A4B6, size: 0x8, addend: 0x0, symName: '__ZN4pyo38instance14Bound$LT$T$GT$11as_borrowed17h5702dd1e9c6b136eE', symObjAddr: 0xA2CC, symBinAddr: 0x33200, symSize: 0x40 }
  - { offset: 0x12A4EF, size: 0x8, addend: 0x0, symName: '__ZN4pyo38instance14Bound$LT$T$GT$11as_borrowed17h608c2e722f9357ebE', symObjAddr: 0xA30C, symBinAddr: 0x33240, symSize: 0x40 }
  - { offset: 0x12A51B, size: 0x8, addend: 0x0, symName: '__ZN4pyo38instance14Bound$LT$T$GT$11as_borrowed17h88d056499da6d00bE', symObjAddr: 0xA34C, symBinAddr: 0x33280, symSize: 0x40 }
  - { offset: 0x12A554, size: 0x8, addend: 0x0, symName: '__ZN4pyo38instance14Bound$LT$T$GT$11as_borrowed17hcdffbe4c76be0f53E', symObjAddr: 0xA40C, symBinAddr: 0x332C0, symSize: 0x40 }
  - { offset: 0x12A59A, size: 0x8, addend: 0x0, symName: '__ZN4pyo38instance14Bound$LT$T$GT$11as_borrowed17hf55e732210665076E', symObjAddr: 0xA48C, symBinAddr: 0x33300, symSize: 0x40 }
  - { offset: 0x12A5D3, size: 0x8, addend: 0x0, symName: '__ZN4pyo38instance14Bound$LT$T$GT$11as_borrowed17hfe3aba5d8461ee7aE', symObjAddr: 0xA50C, symBinAddr: 0x33340, symSize: 0x40 }
  - { offset: 0x12A60C, size: 0x8, addend: 0x0, symName: '__ZN4pyo38instance14Bound$LT$T$GT$14cast_unchecked17h0dbc98472039ddbbE', symObjAddr: 0xA5BC, symBinAddr: 0x33380, symSize: 0x38 }
  - { offset: 0x12A6AF, size: 0x8, addend: 0x0, symName: '__ZN4pyo38instance14Bound$LT$T$GT$14cast_unchecked17h12f6c928eeb390e3E', symObjAddr: 0xA62C, symBinAddr: 0x333B8, symSize: 0x38 }
  - { offset: 0x12A702, size: 0x8, addend: 0x0, symName: '__ZN4pyo38instance14Bound$LT$T$GT$14cast_unchecked17h22f774de3c7dbe4dE', symObjAddr: 0xA69C, symBinAddr: 0x333F0, symSize: 0x38 }
  - { offset: 0x12A7DB, size: 0x8, addend: 0x0, symName: '__ZN4pyo38instance14Bound$LT$T$GT$14cast_unchecked17h64cb92d6f345cf00E', symObjAddr: 0xA77C, symBinAddr: 0x33428, symSize: 0x38 }
  - { offset: 0x12A82E, size: 0x8, addend: 0x0, symName: '__ZN4pyo38instance14Bound$LT$T$GT$14cast_unchecked17h665577371c1e7e57E', symObjAddr: 0xA7B4, symBinAddr: 0x33460, symSize: 0x38 }
  - { offset: 0x12A881, size: 0x8, addend: 0x0, symName: '__ZN4pyo38instance14Bound$LT$T$GT$14cast_unchecked17h949e7a34511cfc09E', symObjAddr: 0xA824, symBinAddr: 0x33498, symSize: 0x38 }
  - { offset: 0x12A8D4, size: 0x8, addend: 0x0, symName: '__ZN4pyo38instance14Bound$LT$T$GT$14cast_unchecked17hb3f7228fd443d03cE', symObjAddr: 0xA85C, symBinAddr: 0x334D0, symSize: 0x38 }
  - { offset: 0x12A991, size: 0x8, addend: 0x0, symName: '__ZN4pyo38instance14Bound$LT$T$GT$14cast_unchecked17hd27ace180f28e87aE', symObjAddr: 0xA93C, symBinAddr: 0x33508, symSize: 0x38 }
  - { offset: 0x12AA1A, size: 0x8, addend: 0x0, symName: '__ZN4pyo38instance14Bound$LT$T$GT$14cast_unchecked17he905cc636ab5e3cbE', symObjAddr: 0xA974, symBinAddr: 0x33540, symSize: 0x38 }
  - { offset: 0x12AA6D, size: 0x8, addend: 0x0, symName: '__ZN4pyo38instance14Bound$LT$T$GT$19cast_into_unchecked17h02ae0964c0921a08E', symObjAddr: 0xA9E4, symBinAddr: 0x33578, symSize: 0x14 }
  - { offset: 0x12AAA2, size: 0x8, addend: 0x0, symName: '__ZN4pyo38instance14Bound$LT$T$GT$19cast_into_unchecked17h0e8784d20fa4736bE', symObjAddr: 0xAA0C, symBinAddr: 0x3358C, symSize: 0x14 }
  - { offset: 0x12AAD7, size: 0x8, addend: 0x0, symName: '__ZN4pyo38instance14Bound$LT$T$GT$19cast_into_unchecked17h17ddf7f8c56b54cfE', symObjAddr: 0xAA20, symBinAddr: 0x335A0, symSize: 0x14 }
  - { offset: 0x12AB0C, size: 0x8, addend: 0x0, symName: '__ZN4pyo38instance14Bound$LT$T$GT$19cast_into_unchecked17h1c363c23ddbe53e8E', symObjAddr: 0xAA34, symBinAddr: 0x335B4, symSize: 0x14 }
  - { offset: 0x12AB41, size: 0x8, addend: 0x0, symName: '__ZN4pyo38instance14Bound$LT$T$GT$19cast_into_unchecked17h4875ad41a7594eb5E', symObjAddr: 0xAAC0, symBinAddr: 0x335C8, symSize: 0x14 }
  - { offset: 0x12AB76, size: 0x8, addend: 0x0, symName: '__ZN4pyo38instance14Bound$LT$T$GT$19cast_into_unchecked17h9f90b853774437ecE', symObjAddr: 0xABC4, symBinAddr: 0x335DC, symSize: 0x14 }
  - { offset: 0x12ABAB, size: 0x8, addend: 0x0, symName: '__ZN4pyo38instance14Bound$LT$T$GT$19cast_into_unchecked17hb04d97894be01fccE', symObjAddr: 0xABEC, symBinAddr: 0x335F0, symSize: 0x14 }
  - { offset: 0x12ABE0, size: 0x8, addend: 0x0, symName: '__ZN4pyo38instance14Bound$LT$T$GT$19cast_into_unchecked17hb2603d6f061a79f9E', symObjAddr: 0xAC00, symBinAddr: 0x33604, symSize: 0x14 }
  - { offset: 0x12AC15, size: 0x8, addend: 0x0, symName: '__ZN4pyo38instance14Bound$LT$T$GT$19cast_into_unchecked17hde78ba677eca76d8E', symObjAddr: 0xAC3C, symBinAddr: 0x33618, symSize: 0x14 }
  - { offset: 0x12AC4A, size: 0x8, addend: 0x0, symName: '__ZN4pyo38instance14Bound$LT$T$GT$19cast_into_unchecked17he57b369df4fc8424E', symObjAddr: 0xAC50, symBinAddr: 0x3362C, symSize: 0x14 }
  - { offset: 0x12AC7F, size: 0x8, addend: 0x0, symName: '__ZN4pyo38instance14Bound$LT$T$GT$19cast_into_unchecked17hf3ae68b16b531865E', symObjAddr: 0xAC8C, symBinAddr: 0x33640, symSize: 0x14 }
  - { offset: 0x12ACB4, size: 0x8, addend: 0x0, symName: '__ZN4pyo38instance14Bound$LT$T$GT$2py17h061fa2bfdae24c28E', symObjAddr: 0xACB4, symBinAddr: 0x33654, symSize: 0x10 }
  - { offset: 0x12ACE0, size: 0x8, addend: 0x0, symName: '__ZN4pyo38instance14Bound$LT$T$GT$2py17h09796e529110a392E', symObjAddr: 0xACC4, symBinAddr: 0x33664, symSize: 0x10 }
  - { offset: 0x12AD33, size: 0x8, addend: 0x0, symName: '__ZN4pyo38instance14Bound$LT$T$GT$2py17h5e26002538e50c6cE', symObjAddr: 0xAD24, symBinAddr: 0x33674, symSize: 0x10 }
  - { offset: 0x12AD6C, size: 0x8, addend: 0x0, symName: '__ZN4pyo38instance14Bound$LT$T$GT$2py17h6eaf4db5fa9516adE', symObjAddr: 0xAD54, symBinAddr: 0x33684, symSize: 0x10 }
  - { offset: 0x12ADB2, size: 0x8, addend: 0x0, symName: '__ZN4pyo38instance14Bound$LT$T$GT$2py17ha2fb19540a6c04c2E', symObjAddr: 0xADA4, symBinAddr: 0x33694, symSize: 0x10 }
  - { offset: 0x12ADEB, size: 0x8, addend: 0x0, symName: '__ZN4pyo38instance14Bound$LT$T$GT$2py17ha759dda62b5456a6E', symObjAddr: 0xADB4, symBinAddr: 0x336A4, symSize: 0x10 }
  - { offset: 0x12AE17, size: 0x8, addend: 0x0, symName: '__ZN4pyo38instance14Bound$LT$T$GT$2py17hb03e6aa1c314468cE', symObjAddr: 0xADD4, symBinAddr: 0x336B4, symSize: 0x10 }
  - { offset: 0x12AE5D, size: 0x8, addend: 0x0, symName: '__ZN4pyo38instance14Bound$LT$T$GT$2py17he7795779e97e494aE', symObjAddr: 0xAE14, symBinAddr: 0x336C4, symSize: 0x10 }
  - { offset: 0x12AE89, size: 0x8, addend: 0x0, symName: '__ZN4pyo38instance14Bound$LT$T$GT$2py17hfd7f97d4920a4872E', symObjAddr: 0xAE34, symBinAddr: 0x336D4, symSize: 0x10 }
  - { offset: 0x12AEB5, size: 0x8, addend: 0x0, symName: '__ZN4pyo38instance14Bound$LT$T$GT$4cast17h8cf0adef8ad416afE', symObjAddr: 0xAE44, symBinAddr: 0x336E4, symSize: 0x30 }
  - { offset: 0x12AEE9, size: 0x8, addend: 0x0, symName: '__ZN4pyo38instance14Bound$LT$T$GT$4cast17hb1a4bf1e84bb9574E', symObjAddr: 0xAE74, symBinAddr: 0x33714, symSize: 0x30 }
  - { offset: 0x12AF1D, size: 0x8, addend: 0x0, symName: '__ZN4pyo38instance14Bound$LT$T$GT$4cast17hf86dec766beb3a45E', symObjAddr: 0xAED4, symBinAddr: 0x33744, symSize: 0x30 }
  - { offset: 0x12AF51, size: 0x8, addend: 0x0, symName: '__ZN4pyo38instance14Bound$LT$T$GT$6as_any17h0a8ced1fe90bc8a5E', symObjAddr: 0xB114, symBinAddr: 0x33900, symSize: 0x38 }
  - { offset: 0x12AFB9, size: 0x8, addend: 0x0, symName: '__ZN4pyo38instance14Bound$LT$T$GT$6as_any17h0d849f8d13bd5b45E', symObjAddr: 0xB14C, symBinAddr: 0x33938, symSize: 0x38 }
  - { offset: 0x12B021, size: 0x8, addend: 0x0, symName: '__ZN4pyo38instance14Bound$LT$T$GT$6as_any17h2634ff1622b7cec2E', symObjAddr: 0xB184, symBinAddr: 0x33970, symSize: 0x38 }
  - { offset: 0x12B089, size: 0x8, addend: 0x0, symName: '__ZN4pyo38instance14Bound$LT$T$GT$6as_any17h31214505314cbfc1E', symObjAddr: 0xB1BC, symBinAddr: 0x339A8, symSize: 0x38 }
  - { offset: 0x12B0F1, size: 0x8, addend: 0x0, symName: '__ZN4pyo38instance14Bound$LT$T$GT$6as_any17h6754a7bb388f45a5E', symObjAddr: 0xB22C, symBinAddr: 0x339E0, symSize: 0x38 }
  - { offset: 0x12B159, size: 0x8, addend: 0x0, symName: '__ZN4pyo38instance14Bound$LT$T$GT$6as_any17h6e7c1bb74a9a7fe4E', symObjAddr: 0xB264, symBinAddr: 0x33A18, symSize: 0x38 }
  - { offset: 0x12B1C1, size: 0x8, addend: 0x0, symName: '__ZN4pyo38instance14Bound$LT$T$GT$6as_any17hb8a020de586bdd27E', symObjAddr: 0xB344, symBinAddr: 0x33A50, symSize: 0x38 }
  - { offset: 0x12B236, size: 0x8, addend: 0x0, symName: '__ZN4pyo38instance14Bound$LT$T$GT$6as_any17hfa56487e09a6aab4E', symObjAddr: 0xB45C, symBinAddr: 0x33A88, symSize: 0x38 }
  - { offset: 0x12B29E, size: 0x8, addend: 0x0, symName: '__ZN4pyo38instance14Bound$LT$T$GT$6as_ptr17h03b6b34b0ab9410cE', symObjAddr: 0xB494, symBinAddr: 0x33AC0, symSize: 0x2C }
  - { offset: 0x12B2CA, size: 0x8, addend: 0x0, symName: '__ZN4pyo38instance14Bound$LT$T$GT$6as_ptr17h200ab8c1dc137c2cE', symObjAddr: 0xB570, symBinAddr: 0x33AEC, symSize: 0x2C }
  - { offset: 0x12B2F6, size: 0x8, addend: 0x0, symName: '__ZN4pyo38instance14Bound$LT$T$GT$6as_ptr17h220ea0c3447e16b2E', symObjAddr: 0xB59C, symBinAddr: 0x33B18, symSize: 0x2C }
  - { offset: 0x12B322, size: 0x8, addend: 0x0, symName: '__ZN4pyo38instance14Bound$LT$T$GT$6as_ptr17h2d810ee5045656b0E', symObjAddr: 0xB5C8, symBinAddr: 0x33B44, symSize: 0x2C }
  - { offset: 0x12B35B, size: 0x8, addend: 0x0, symName: '__ZN4pyo38instance14Bound$LT$T$GT$6as_ptr17h567e87e1213dac8aE', symObjAddr: 0xB6A4, symBinAddr: 0x33B70, symSize: 0x2C }
  - { offset: 0x12B387, size: 0x8, addend: 0x0, symName: '__ZN4pyo38instance14Bound$LT$T$GT$6as_ptr17h5fddc191501b8c6cE', symObjAddr: 0xB6D0, symBinAddr: 0x33B9C, symSize: 0x2C }
  - { offset: 0x12B3B3, size: 0x8, addend: 0x0, symName: '__ZN4pyo38instance14Bound$LT$T$GT$6as_ptr17h7759371299a1fa35E', symObjAddr: 0xB728, symBinAddr: 0x33BC8, symSize: 0x2C }
  - { offset: 0x12B3DF, size: 0x8, addend: 0x0, symName: '__ZN4pyo38instance14Bound$LT$T$GT$6as_ptr17h7c4b663622d24b6cE', symObjAddr: 0xB780, symBinAddr: 0x33BF4, symSize: 0x2C }
  - { offset: 0x12B40B, size: 0x8, addend: 0x0, symName: '__ZN4pyo38instance14Bound$LT$T$GT$6as_ptr17hc4878b498ab1f582E', symObjAddr: 0xB8E0, symBinAddr: 0x33C20, symSize: 0x2C }
  - { offset: 0x12B437, size: 0x8, addend: 0x0, symName: '__ZN4pyo38instance14Bound$LT$T$GT$6as_ptr17hc844fda4575174e8E', symObjAddr: 0xB938, symBinAddr: 0x33C4C, symSize: 0x2C }
  - { offset: 0x12B463, size: 0x8, addend: 0x0, symName: '__ZN4pyo38instance14Bound$LT$T$GT$6as_ptr17hefea58d7d15c6715E', symObjAddr: 0xB9BC, symBinAddr: 0x33C78, symSize: 0x2C }
  - { offset: 0x12B48F, size: 0x8, addend: 0x0, symName: '__ZN4pyo38instance14Bound$LT$T$GT$6as_ptr17hfb08340255c88d0fE', symObjAddr: 0xB9E8, symBinAddr: 0x33CA4, symSize: 0x2C }
  - { offset: 0x12B4BB, size: 0x8, addend: 0x0, symName: '__ZN4pyo38instance14Bound$LT$T$GT$6unbind17h249b85909d6cd5e1E', symObjAddr: 0xBA8C, symBinAddr: 0x33CD0, symSize: 0x3C }
  - { offset: 0x12B4E7, size: 0x8, addend: 0x0, symName: '__ZN4pyo38instance14Bound$LT$T$GT$6unbind17h41c088be9dbea2fdE', symObjAddr: 0xBB04, symBinAddr: 0x33D0C, symSize: 0x3C }
  - { offset: 0x12B513, size: 0x8, addend: 0x0, symName: '__ZN4pyo38instance14Bound$LT$T$GT$6unbind17h45e4c08aab7e72e6E', symObjAddr: 0xBB40, symBinAddr: 0x33D48, symSize: 0x3C }
  - { offset: 0x12B53F, size: 0x8, addend: 0x0, symName: '__ZN4pyo38instance14Bound$LT$T$GT$6unbind17h4dbea5dc7f8f6ea2E', symObjAddr: 0xBB7C, symBinAddr: 0x33D84, symSize: 0x3C }
  - { offset: 0x12B56B, size: 0x8, addend: 0x0, symName: '__ZN4pyo38instance14Bound$LT$T$GT$6unbind17h9584699f6234945fE', symObjAddr: 0xBBF4, symBinAddr: 0x33DC0, symSize: 0x3C }
  - { offset: 0x12B597, size: 0x8, addend: 0x0, symName: '__ZN4pyo38instance14Bound$LT$T$GT$6unbind17hbb0f61f2d4cf3e85E', symObjAddr: 0xBC30, symBinAddr: 0x33DFC, symSize: 0x3C }
  - { offset: 0x12B5C3, size: 0x8, addend: 0x0, symName: '__ZN4pyo38instance14Bound$LT$T$GT$6unbind17hc7e89df97f6091c5E', symObjAddr: 0xBCA8, symBinAddr: 0x33E38, symSize: 0x3C }
  - { offset: 0x12B5EF, size: 0x8, addend: 0x0, symName: '__ZN4pyo38instance14Bound$LT$T$GT$6unbind17hd741b2f0e7826330E', symObjAddr: 0xBCE4, symBinAddr: 0x33E74, symSize: 0x3C }
  - { offset: 0x12B61B, size: 0x8, addend: 0x0, symName: '__ZN4pyo38instance14Bound$LT$T$GT$8into_any17h3fa51f2f7f9ba88bE', symObjAddr: 0xBD20, symBinAddr: 0x33EB0, symSize: 0x30 }
  - { offset: 0x12B647, size: 0x8, addend: 0x0, symName: '__ZN4pyo38instance14Bound$LT$T$GT$8into_any17h93b38ab9b35ac4d9E', symObjAddr: 0xBD80, symBinAddr: 0x33EE0, symSize: 0x30 }
  - { offset: 0x12B673, size: 0x8, addend: 0x0, symName: '__ZN4pyo38instance14Bound$LT$T$GT$8into_any17h968aeb5ba9da3867E', symObjAddr: 0xBDB0, symBinAddr: 0x33F10, symSize: 0x30 }
  - { offset: 0x12B69F, size: 0x8, addend: 0x0, symName: '__ZN4pyo38instance14Bound$LT$T$GT$8into_any17hc15b995ff41746ceE', symObjAddr: 0xBE10, symBinAddr: 0x33F40, symSize: 0x30 }
  - { offset: 0x12B6CB, size: 0x8, addend: 0x0, symName: '__ZN4pyo38instance14Bound$LT$T$GT$8into_any17he1545eca7a7bae6eE', symObjAddr: 0xBE70, symBinAddr: 0x33F70, symSize: 0x30 }
  - { offset: 0x12B6F7, size: 0x8, addend: 0x0, symName: '__ZN4pyo38instance14Bound$LT$T$GT$8into_any17hfe01f0a3ed958c0bE', symObjAddr: 0xBEA0, symBinAddr: 0x33FA0, symSize: 0x30 }
  - { offset: 0x12B723, size: 0x8, addend: 0x0, symName: '__ZN4pyo38instance14Bound$LT$T$GT$8into_any17hfe1479bb984c547bE', symObjAddr: 0xBED0, symBinAddr: 0x33FD0, symSize: 0x30 }
  - { offset: 0x12B74F, size: 0x8, addend: 0x0, symName: '__ZN4pyo38instance14Bound$LT$T$GT$8into_ptr17h37690cc078536271E', symObjAddr: 0xBF00, symBinAddr: 0x34000, symSize: 0x40 }
  - { offset: 0x12B77B, size: 0x8, addend: 0x0, symName: '__ZN4pyo38instance14Bound$LT$T$GT$9cast_into17h046b01d54c3584e8E', symObjAddr: 0xBF40, symBinAddr: 0x34040, symSize: 0x30 }
  - { offset: 0x12B7AF, size: 0x8, addend: 0x0, symName: '__ZN4pyo38instance14Bound$LT$T$GT$9cast_into17h164390affc72793dE', symObjAddr: 0xBF70, symBinAddr: 0x34070, symSize: 0x30 }
  - { offset: 0x12B7E3, size: 0x8, addend: 0x0, symName: '__ZN4pyo38instance14Bound$LT$T$GT$9cast_into17hb2b0769728a7a5fbE', symObjAddr: 0xC000, symBinAddr: 0x340A0, symSize: 0x30 }
  - { offset: 0x12B817, size: 0x8, addend: 0x0, symName: '__ZN4pyo38instance14Bound$LT$T$GT$9cast_into17hfe59dbcc9cdeb794E', symObjAddr: 0xC0C0, symBinAddr: 0x340D0, symSize: 0x30 }
  - { offset: 0x12B84B, size: 0x8, addend: 0x0, symName: '__ZN4pyo38instance17Borrowed$LT$T$GT$14cast_unchecked17h06e73119da4c14beE', symObjAddr: 0xCA78, symBinAddr: 0x344F0, symSize: 0x14 }
  - { offset: 0x12B880, size: 0x8, addend: 0x0, symName: '__ZN4pyo38instance17Borrowed$LT$T$GT$14cast_unchecked17h0b7decdd562f8b30E', symObjAddr: 0xCA8C, symBinAddr: 0x34504, symSize: 0x14 }
  - { offset: 0x12B8B5, size: 0x8, addend: 0x0, symName: '__ZN4pyo38instance17Borrowed$LT$T$GT$14cast_unchecked17h2b8b0295c8376091E', symObjAddr: 0xCAB4, symBinAddr: 0x34518, symSize: 0x14 }
  - { offset: 0x12B8EA, size: 0x8, addend: 0x0, symName: '__ZN4pyo38instance17Borrowed$LT$T$GT$14cast_unchecked17h44f32208a9c1f553E', symObjAddr: 0xCAC8, symBinAddr: 0x3452C, symSize: 0x14 }
  - { offset: 0x12B91F, size: 0x8, addend: 0x0, symName: '__ZN4pyo38instance17Borrowed$LT$T$GT$14cast_unchecked17h47cb2b2fee88211bE', symObjAddr: 0xCADC, symBinAddr: 0x34540, symSize: 0x14 }
  - { offset: 0x12B954, size: 0x8, addend: 0x0, symName: '__ZN4pyo38instance17Borrowed$LT$T$GT$14cast_unchecked17h66380a4673f18faeE', symObjAddr: 0xCB04, symBinAddr: 0x34554, symSize: 0x14 }
  - { offset: 0x12B996, size: 0x8, addend: 0x0, symName: '__ZN4pyo38instance17Borrowed$LT$T$GT$14cast_unchecked17h709d64e59da5152dE', symObjAddr: 0xCB18, symBinAddr: 0x34568, symSize: 0x14 }
  - { offset: 0x12B9CB, size: 0x8, addend: 0x0, symName: '__ZN4pyo38instance17Borrowed$LT$T$GT$14cast_unchecked17h93644529e46f3b79E', symObjAddr: 0xCB40, symBinAddr: 0x3457C, symSize: 0x14 }
  - { offset: 0x12BA00, size: 0x8, addend: 0x0, symName: '__ZN4pyo38instance17Borrowed$LT$T$GT$14cast_unchecked17hbae5b4d8afe8eaebE', symObjAddr: 0xCB54, symBinAddr: 0x34590, symSize: 0x14 }
  - { offset: 0x12BA35, size: 0x8, addend: 0x0, symName: '__ZN4pyo38instance17Borrowed$LT$T$GT$14cast_unchecked17he10a0e415e8e5cc7E', symObjAddr: 0xCB7C, symBinAddr: 0x345A4, symSize: 0x14 }
  - { offset: 0x12BA6A, size: 0x8, addend: 0x0, symName: '__ZN4pyo38instance17Borrowed$LT$T$GT$14cast_unchecked17he95b240f51be5372E', symObjAddr: 0xCBA4, symBinAddr: 0x345B8, symSize: 0x14 }
  - { offset: 0x12BA9F, size: 0x8, addend: 0x0, symName: '__ZN4pyo38instance17Borrowed$LT$T$GT$14cast_unchecked17hf0b880b80bca4316E', symObjAddr: 0xCBCC, symBinAddr: 0x345CC, symSize: 0x14 }
  - { offset: 0x12BAD4, size: 0x8, addend: 0x0, symName: '__ZN4pyo38instance17Borrowed$LT$T$GT$4cast17h36258423ae6cbb12E', symObjAddr: 0xCBE0, symBinAddr: 0x345E0, symSize: 0x30 }
  - { offset: 0x12BB09, size: 0x8, addend: 0x0, symName: '__ZN4pyo38instance17Borrowed$LT$T$GT$4cast17h71703f3ec362f04dE', symObjAddr: 0xCC40, symBinAddr: 0x34610, symSize: 0x30 }
  - { offset: 0x12BB3E, size: 0x8, addend: 0x0, symName: '__ZN4pyo38instance17Borrowed$LT$T$GT$4cast17ha1c8f9f5cbcb8de3E', symObjAddr: 0xCCA0, symBinAddr: 0x34640, symSize: 0x30 }
  - { offset: 0x12BB73, size: 0x8, addend: 0x0, symName: '__ZN4pyo38instance17Borrowed$LT$T$GT$6as_ptr17h27ee1fd860dee9f9E', symObjAddr: 0xCFE8, symBinAddr: 0x347E4, symSize: 0x1C }
  - { offset: 0x12BB9F, size: 0x8, addend: 0x0, symName: '__ZN4pyo38instance17Borrowed$LT$T$GT$6as_ptr17h3ff441fbde803225E', symObjAddr: 0xD004, symBinAddr: 0x34800, symSize: 0x1C }
  - { offset: 0x12BBCB, size: 0x8, addend: 0x0, symName: '__ZN4pyo38instance17Borrowed$LT$T$GT$6as_ptr17hb6de479d5c758d29E', symObjAddr: 0xD020, symBinAddr: 0x3481C, symSize: 0x1C }
  - { offset: 0x12BBF7, size: 0x8, addend: 0x0, symName: '__ZN4pyo38instance17Borrowed$LT$T$GT$6as_ptr17hcd50e023f2b26c73E', symObjAddr: 0xD058, symBinAddr: 0x34838, symSize: 0x1C }
  - { offset: 0x12BC23, size: 0x8, addend: 0x0, symName: '__ZN4pyo38instance17Borrowed$LT$T$GT$6as_ptr17hdab0b238bfc2311cE', symObjAddr: 0xD074, symBinAddr: 0x34854, symSize: 0x1C }
  - { offset: 0x12BC4F, size: 0x8, addend: 0x0, symName: '__ZN4pyo38instance17Borrowed$LT$T$GT$6as_ptr17hff9ca8e5c48a8ff5E', symObjAddr: 0xD0AC, symBinAddr: 0x34870, symSize: 0x1C }
  - { offset: 0x12BC7B, size: 0x8, addend: 0x0, symName: '__ZN4pyo38instance17Borrowed$LT$T$GT$6to_any17h2860c30faecd2224E', symObjAddr: 0xD0C8, symBinAddr: 0x3488C, symSize: 0x14 }
  - { offset: 0x12BCA7, size: 0x8, addend: 0x0, symName: '__ZN4pyo38instance17Borrowed$LT$T$GT$6to_any17h38dc21e5f14d0dd7E', symObjAddr: 0xD0DC, symBinAddr: 0x348A0, symSize: 0x14 }
  - { offset: 0x12BCD3, size: 0x8, addend: 0x0, symName: '__ZN4pyo38instance17Borrowed$LT$T$GT$6to_any17h6555e9d2087778f3E', symObjAddr: 0xD104, symBinAddr: 0x348B4, symSize: 0x14 }
  - { offset: 0x12BCFF, size: 0x8, addend: 0x0, symName: '__ZN4pyo38instance17Borrowed$LT$T$GT$6to_any17h7561c6011741d80aE', symObjAddr: 0xD118, symBinAddr: 0x348C8, symSize: 0x14 }
  - { offset: 0x12BD60, size: 0x8, addend: 0x0, symName: '__ZN4pyo38instance17Borrowed$LT$T$GT$7extract17h7654d36b695c9669E', symObjAddr: 0xD2E8, symBinAddr: 0x348DC, symSize: 0x30 }
  - { offset: 0x12BDA3, size: 0x8, addend: 0x0, symName: '__ZN4pyo38instance17Borrowed$LT$T$GT$8to_owned17h1bb39b161381d462E', symObjAddr: 0xD498, symBinAddr: 0x3490C, symSize: 0x2C }
  - { offset: 0x12BDCF, size: 0x8, addend: 0x0, symName: '__ZN4pyo38instance17Borrowed$LT$T$GT$8to_owned17h38b71391dc65607bE', symObjAddr: 0xD4F0, symBinAddr: 0x34938, symSize: 0x2C }
  - { offset: 0x12BDFB, size: 0x8, addend: 0x0, symName: '__ZN4pyo38instance17Borrowed$LT$T$GT$8to_owned17h930700fec1c7e54dE', symObjAddr: 0xD548, symBinAddr: 0x34964, symSize: 0x2C }
  - { offset: 0x12BE34, size: 0x8, addend: 0x0, symName: '__ZN4pyo38instance36Bound$LT$pyo3..types..any..PyAny$GT$14from_owned_ptr17hbf7283c583732250E', symObjAddr: 0xD604, symBinAddr: 0x34990, symSize: 0x28 }
  - { offset: 0x12BE7F, size: 0x8, addend: 0x0, symName: '__ZN4pyo38instance36Bound$LT$pyo3..types..any..PyAny$GT$17ref_from_non_null17h17164052e871ea69E', symObjAddr: 0xD62C, symBinAddr: 0x349B8, symSize: 0x38 }
  - { offset: 0x12BF06, size: 0x8, addend: 0x0, symName: '__ZN4pyo38instance36Bound$LT$pyo3..types..any..PyAny$GT$21from_owned_ptr_or_err17hd3d51e71479c024bE', symObjAddr: 0xD69C, symBinAddr: 0x349F0, symSize: 0x40 }
  - { offset: 0x12BF44, size: 0x8, addend: 0x0, symName: '__ZN4pyo38instance36Bound$LT$pyo3..types..any..PyAny$GT$21from_owned_ptr_or_opt17hba4578c9b984c89aE', symObjAddr: 0xD70C, symBinAddr: 0x34A60, symSize: 0x2C }
  - { offset: 0x12BF82, size: 0x8, addend: 0x0, symName: '__ZN4pyo38instance39Borrowed$LT$pyo3..types..any..PyAny$GT$13from_non_null17he90cfb65ef704a92E', symObjAddr: 0xD790, symBinAddr: 0x34ABC, symSize: 0x14 }
  - { offset: 0x12BFC0, size: 0x8, addend: 0x0, symName: '__ZN4pyo38instance39Borrowed$LT$pyo3..types..any..PyAny$GT$18from_ptr_unchecked17h47f560307c93e940E', symObjAddr: 0xD874, symBinAddr: 0x34AD0, symSize: 0x30 }
  - { offset: 0x12D44F, size: 0x8, addend: 0x0, symName: '__ZN153_$LT$core..result..Result$LT$T$C$F$GT$$u20$as$u20$core..ops..try_trait..FromResidual$LT$core..result..Result$LT$core..convert..Infallible$C$E$GT$$GT$$GT$13from_residual17h03b7c7d0f8f4a5e3E', symObjAddr: 0x5C0, symBinAddr: 0x369C4, symSize: 0x6C }
  - { offset: 0x12D4D5, size: 0x8, addend: 0x0, symName: '__ZN153_$LT$core..result..Result$LT$T$C$F$GT$$u20$as$u20$core..ops..try_trait..FromResidual$LT$core..result..Result$LT$core..convert..Infallible$C$E$GT$$GT$$GT$13from_residual17h0a8ebeffc6809ed9E', symObjAddr: 0x634, symBinAddr: 0x36A30, symSize: 0x6C }
  - { offset: 0x12D55B, size: 0x8, addend: 0x0, symName: '__ZN153_$LT$core..result..Result$LT$T$C$F$GT$$u20$as$u20$core..ops..try_trait..FromResidual$LT$core..result..Result$LT$core..convert..Infallible$C$E$GT$$GT$$GT$13from_residual17h1cd9d312298a9be6E', symObjAddr: 0x778, symBinAddr: 0x36A9C, symSize: 0x6C }
  - { offset: 0x12D5C2, size: 0x8, addend: 0x0, symName: '__ZN153_$LT$core..result..Result$LT$T$C$F$GT$$u20$as$u20$core..ops..try_trait..FromResidual$LT$core..result..Result$LT$core..convert..Infallible$C$E$GT$$GT$$GT$13from_residual17h1d5b4449fdbbbcf1E', symObjAddr: 0x7E4, symBinAddr: 0x36B08, symSize: 0x6C }
  - { offset: 0x12D648, size: 0x8, addend: 0x0, symName: '__ZN153_$LT$core..result..Result$LT$T$C$F$GT$$u20$as$u20$core..ops..try_trait..FromResidual$LT$core..result..Result$LT$core..convert..Infallible$C$E$GT$$GT$$GT$13from_residual17h1f45a25d32a9026eE', symObjAddr: 0x850, symBinAddr: 0x36B74, symSize: 0x6C }
  - { offset: 0x12D6CE, size: 0x8, addend: 0x0, symName: '__ZN153_$LT$core..result..Result$LT$T$C$F$GT$$u20$as$u20$core..ops..try_trait..FromResidual$LT$core..result..Result$LT$core..convert..Infallible$C$E$GT$$GT$$GT$13from_residual17h24b3d95275c28d07E', symObjAddr: 0x928, symBinAddr: 0x36BE0, symSize: 0x6C }
  - { offset: 0x12D754, size: 0x8, addend: 0x0, symName: '__ZN153_$LT$core..result..Result$LT$T$C$F$GT$$u20$as$u20$core..ops..try_trait..FromResidual$LT$core..result..Result$LT$core..convert..Infallible$C$E$GT$$GT$$GT$13from_residual17h2bb5b4074e46b355E', symObjAddr: 0xA6C, symBinAddr: 0x36C4C, symSize: 0x6C }
  - { offset: 0x12D7DA, size: 0x8, addend: 0x0, symName: '__ZN153_$LT$core..result..Result$LT$T$C$F$GT$$u20$as$u20$core..ops..try_trait..FromResidual$LT$core..result..Result$LT$core..convert..Infallible$C$E$GT$$GT$$GT$13from_residual17h320700dceffd96d2E', symObjAddr: 0xCF4, symBinAddr: 0x36CB8, symSize: 0x6C }
  - { offset: 0x12D860, size: 0x8, addend: 0x0, symName: '__ZN153_$LT$core..result..Result$LT$T$C$F$GT$$u20$as$u20$core..ops..try_trait..FromResidual$LT$core..result..Result$LT$core..convert..Infallible$C$E$GT$$GT$$GT$13from_residual17h45dce3dae7d4c67aE', symObjAddr: 0xE38, symBinAddr: 0x36D24, symSize: 0x6C }
  - { offset: 0x12D8E6, size: 0x8, addend: 0x0, symName: '__ZN153_$LT$core..result..Result$LT$T$C$F$GT$$u20$as$u20$core..ops..try_trait..FromResidual$LT$core..result..Result$LT$core..convert..Infallible$C$E$GT$$GT$$GT$13from_residual17h495b29ea1a5327c8E', symObjAddr: 0xF54, symBinAddr: 0x36D90, symSize: 0x6C }
  - { offset: 0x12D94D, size: 0x8, addend: 0x0, symName: '__ZN153_$LT$core..result..Result$LT$T$C$F$GT$$u20$as$u20$core..ops..try_trait..FromResidual$LT$core..result..Result$LT$core..convert..Infallible$C$E$GT$$GT$$GT$13from_residual17h79b2a0356e280ec0E', symObjAddr: 0x1560, symBinAddr: 0x36DFC, symSize: 0x6C }
  - { offset: 0x12D9D3, size: 0x8, addend: 0x0, symName: '__ZN153_$LT$core..result..Result$LT$T$C$F$GT$$u20$as$u20$core..ops..try_trait..FromResidual$LT$core..result..Result$LT$core..convert..Infallible$C$E$GT$$GT$$GT$13from_residual17h830f59cbf76e285dE', symObjAddr: 0x1638, symBinAddr: 0x36E68, symSize: 0x6C }
  - { offset: 0x12DA59, size: 0x8, addend: 0x0, symName: '__ZN153_$LT$core..result..Result$LT$T$C$F$GT$$u20$as$u20$core..ops..try_trait..FromResidual$LT$core..result..Result$LT$core..convert..Infallible$C$E$GT$$GT$$GT$13from_residual17h8e51c18ea56f03c2E', symObjAddr: 0x1854, symBinAddr: 0x36ED4, symSize: 0x6C }
  - { offset: 0x12DAC0, size: 0x8, addend: 0x0, symName: '__ZN153_$LT$core..result..Result$LT$T$C$F$GT$$u20$as$u20$core..ops..try_trait..FromResidual$LT$core..result..Result$LT$core..convert..Infallible$C$E$GT$$GT$$GT$13from_residual17ha0ac15b438650d07E', symObjAddr: 0x1A70, symBinAddr: 0x36F40, symSize: 0x6C }
  - { offset: 0x12DB46, size: 0x8, addend: 0x0, symName: '__ZN153_$LT$core..result..Result$LT$T$C$F$GT$$u20$as$u20$core..ops..try_trait..FromResidual$LT$core..result..Result$LT$core..convert..Infallible$C$E$GT$$GT$$GT$13from_residual17ha95afdfdb5ecbec5E', symObjAddr: 0x1B48, symBinAddr: 0x36FAC, symSize: 0x6C }
  - { offset: 0x12DBCC, size: 0x8, addend: 0x0, symName: '__ZN153_$LT$core..result..Result$LT$T$C$F$GT$$u20$as$u20$core..ops..try_trait..FromResidual$LT$core..result..Result$LT$core..convert..Infallible$C$E$GT$$GT$$GT$13from_residual17hc75ddd18a147cfb1E', symObjAddr: 0x234C, symBinAddr: 0x37018, symSize: 0x14 }
  - { offset: 0x12DC15, size: 0x8, addend: 0x0, symName: '__ZN153_$LT$core..result..Result$LT$T$C$F$GT$$u20$as$u20$core..ops..try_trait..FromResidual$LT$core..result..Result$LT$core..convert..Infallible$C$E$GT$$GT$$GT$13from_residual17hcc105c80d7c0bda6E', symObjAddr: 0x24A4, symBinAddr: 0x3702C, symSize: 0x6C }
  - { offset: 0x12DC9B, size: 0x8, addend: 0x0, symName: '__ZN153_$LT$core..result..Result$LT$T$C$F$GT$$u20$as$u20$core..ops..try_trait..FromResidual$LT$core..result..Result$LT$core..convert..Infallible$C$E$GT$$GT$$GT$13from_residual17he11cc1fd8af90373E', symObjAddr: 0x2638, symBinAddr: 0x37098, symSize: 0x6C }
  - { offset: 0x12DD21, size: 0x8, addend: 0x0, symName: '__ZN153_$LT$core..result..Result$LT$T$C$F$GT$$u20$as$u20$core..ops..try_trait..FromResidual$LT$core..result..Result$LT$core..convert..Infallible$C$E$GT$$GT$$GT$13from_residual17heb6cc767b6d7ca39E', symObjAddr: 0x27C0, symBinAddr: 0x37104, symSize: 0x6C }
  - { offset: 0x130779, size: 0x8, addend: 0x0, symName: __ZN4core6result6Result2Ok17h769e06c0c6bf7772E, symObjAddr: 0x658C, symBinAddr: 0x381C8, symSize: 0x1C }
  - { offset: 0x1307B5, size: 0x8, addend: 0x0, symName: __ZN4core6result6Result2Ok17hd467befcde43e217E, symObjAddr: 0x65A8, symBinAddr: 0x381E4, symSize: 0x1C }
  - { offset: 0x1307F7, size: 0x8, addend: 0x0, symName: __ZN4core6result6Result3Err17h10a803383aa4e018E, symObjAddr: 0x65E0, symBinAddr: 0x38200, symSize: 0x3C }
  - { offset: 0x13083B, size: 0x8, addend: 0x0, symName: '__ZN79_$LT$core..result..Result$LT$T$C$E$GT$$u20$as$u20$core..ops..try_trait..Try$GT$6branch17h1e8330d6fd90cb9fE', symObjAddr: 0x6B68, symBinAddr: 0x3823C, symSize: 0x68 }
  - { offset: 0x1308B8, size: 0x8, addend: 0x0, symName: '__ZN79_$LT$core..result..Result$LT$T$C$E$GT$$u20$as$u20$core..ops..try_trait..Try$GT$6branch17h3f9c88a7a1e245f0E', symObjAddr: 0x6E80, symBinAddr: 0x382A4, symSize: 0xA0 }
  - { offset: 0x130935, size: 0x8, addend: 0x0, symName: '__ZN79_$LT$core..result..Result$LT$T$C$E$GT$$u20$as$u20$core..ops..try_trait..Try$GT$6branch17h691456aa9098193cE', symObjAddr: 0x7304, symBinAddr: 0x38344, symSize: 0x44 }
  - { offset: 0x1309B1, size: 0x8, addend: 0x0, symName: '__ZN79_$LT$core..result..Result$LT$T$C$E$GT$$u20$as$u20$core..ops..try_trait..Try$GT$6branch17h71b3a14ad75427f9E', symObjAddr: 0x7348, symBinAddr: 0x38388, symSize: 0xA0 }
  - { offset: 0x130A2E, size: 0x8, addend: 0x0, symName: '__ZN79_$LT$core..result..Result$LT$T$C$E$GT$$u20$as$u20$core..ops..try_trait..Try$GT$6branch17h73d8f6d41924eab8E', symObjAddr: 0x73E8, symBinAddr: 0x38428, symSize: 0xA0 }
  - { offset: 0x130AAB, size: 0x8, addend: 0x0, symName: '__ZN79_$LT$core..result..Result$LT$T$C$E$GT$$u20$as$u20$core..ops..try_trait..Try$GT$6branch17h78f59917b5f2a5acE', symObjAddr: 0x7488, symBinAddr: 0x384C8, symSize: 0xAC }
  - { offset: 0x130B28, size: 0x8, addend: 0x0, symName: '__ZN79_$LT$core..result..Result$LT$T$C$E$GT$$u20$as$u20$core..ops..try_trait..Try$GT$6branch17h7b76136c9e306541E', symObjAddr: 0x75D4, symBinAddr: 0x38574, symSize: 0xA0 }
  - { offset: 0x130BA5, size: 0x8, addend: 0x0, symName: '__ZN79_$LT$core..result..Result$LT$T$C$E$GT$$u20$as$u20$core..ops..try_trait..Try$GT$6branch17h9972f79edc97836bE', symObjAddr: 0x77C0, symBinAddr: 0x38614, symSize: 0xB4 }
  - { offset: 0x130C23, size: 0x8, addend: 0x0, symName: '__ZN79_$LT$core..result..Result$LT$T$C$E$GT$$u20$as$u20$core..ops..try_trait..Try$GT$6branch17h9a7255629f412762E', symObjAddr: 0x7914, symBinAddr: 0x386C8, symSize: 0x38 }
  - { offset: 0x130C9F, size: 0x8, addend: 0x0, symName: '__ZN79_$LT$core..result..Result$LT$T$C$E$GT$$u20$as$u20$core..ops..try_trait..Try$GT$6branch17ha97459229b6809feE', symObjAddr: 0x7B2C, symBinAddr: 0x38700, symSize: 0x68 }
  - { offset: 0x130D1C, size: 0x8, addend: 0x0, symName: '__ZN79_$LT$core..result..Result$LT$T$C$E$GT$$u20$as$u20$core..ops..try_trait..Try$GT$6branch17hadf3268135260d5bE', symObjAddr: 0x7B94, symBinAddr: 0x38768, symSize: 0xA0 }
  - { offset: 0x130D99, size: 0x8, addend: 0x0, symName: '__ZN79_$LT$core..result..Result$LT$T$C$E$GT$$u20$as$u20$core..ops..try_trait..Try$GT$6branch17hb63aeedd479b3129E', symObjAddr: 0x7C34, symBinAddr: 0x38808, symSize: 0xA0 }
  - { offset: 0x130E16, size: 0x8, addend: 0x0, symName: '__ZN79_$LT$core..result..Result$LT$T$C$E$GT$$u20$as$u20$core..ops..try_trait..Try$GT$6branch17hc98a049daa04292bE', symObjAddr: 0x7F60, symBinAddr: 0x388A8, symSize: 0x90 }
  - { offset: 0x130E93, size: 0x8, addend: 0x0, symName: '__ZN79_$LT$core..result..Result$LT$T$C$E$GT$$u20$as$u20$core..ops..try_trait..Try$GT$6branch17hca85c935367e9014E', symObjAddr: 0x7FF0, symBinAddr: 0x38938, symSize: 0xA0 }
  - { offset: 0x130F10, size: 0x8, addend: 0x0, symName: '__ZN79_$LT$core..result..Result$LT$T$C$E$GT$$u20$as$u20$core..ops..try_trait..Try$GT$6branch17hccacdab6efa5df32E', symObjAddr: 0x8090, symBinAddr: 0x389D8, symSize: 0xA0 }
  - { offset: 0x130F8D, size: 0x8, addend: 0x0, symName: '__ZN79_$LT$core..result..Result$LT$T$C$E$GT$$u20$as$u20$core..ops..try_trait..Try$GT$6branch17he0545e2666fe1049E', symObjAddr: 0x83A4, symBinAddr: 0x38A78, symSize: 0x68 }
  - { offset: 0x13100A, size: 0x8, addend: 0x0, symName: '__ZN79_$LT$core..result..Result$LT$T$C$E$GT$$u20$as$u20$core..ops..try_trait..Try$GT$6branch17he4732d8864862830E', symObjAddr: 0x845C, symBinAddr: 0x38AE0, symSize: 0x14 }
  - { offset: 0x131046, size: 0x8, addend: 0x0, symName: '__ZN79_$LT$core..result..Result$LT$T$C$E$GT$$u20$as$u20$core..ops..try_trait..Try$GT$6branch17he766e68bd601c61fE', symObjAddr: 0x8470, symBinAddr: 0x38AF4, symSize: 0xA0 }
  - { offset: 0x1310C3, size: 0x8, addend: 0x0, symName: '__ZN79_$LT$core..result..Result$LT$T$C$E$GT$$u20$as$u20$core..ops..try_trait..Try$GT$6branch17hee8bd91bfeec2d03E', symObjAddr: 0x8510, symBinAddr: 0x38B94, symSize: 0x68 }
  - { offset: 0x131140, size: 0x8, addend: 0x0, symName: '__ZN79_$LT$core..result..Result$LT$T$C$E$GT$$u20$as$u20$core..ops..try_trait..Try$GT$6branch17heffa89af203ddc61E', symObjAddr: 0x8578, symBinAddr: 0x38BFC, symSize: 0xA0 }
  - { offset: 0x1311BD, size: 0x8, addend: 0x0, symName: '__ZN79_$LT$core..result..Result$LT$T$C$E$GT$$u20$as$u20$core..ops..try_trait..Try$GT$6branch17hf0509a6384439403E', symObjAddr: 0x8618, symBinAddr: 0x38C9C, symSize: 0xA0 }
  - { offset: 0x13123A, size: 0x8, addend: 0x0, symName: '__ZN79_$LT$core..result..Result$LT$T$C$E$GT$$u20$as$u20$core..ops..try_trait..Try$GT$6branch17hf1f08f50d0ea2bd0E', symObjAddr: 0x86B8, symBinAddr: 0x38D3C, symSize: 0xA0 }
  - { offset: 0x1312B7, size: 0x8, addend: 0x0, symName: '__ZN79_$LT$core..result..Result$LT$T$C$E$GT$$u20$as$u20$core..ops..try_trait..Try$GT$6branch17hf84cf907579d85efE', symObjAddr: 0x87F8, symBinAddr: 0x38DDC, symSize: 0xA0 }
  - { offset: 0x131334, size: 0x8, addend: 0x0, symName: '__ZN79_$LT$core..result..Result$LT$T$C$E$GT$$u20$as$u20$core..ops..try_trait..Try$GT$6branch17hfd78bbdc0404c9adE', symObjAddr: 0x89D8, symBinAddr: 0x38E7C, symSize: 0xA0 }
  - { offset: 0x133928, size: 0x8, addend: 0x0, symName: '__ZN152_$LT$core..result..Result$LT$pyo3..instance..Bound$LT$pyo3..types..any..PyAny$GT$$C$pyo3..err..PyErr$GT$$u20$as$u20$pyo3..py_result_ext..PyResultExt$GT$19cast_into_unchecked17h55bdd35554626bdeE', symObjAddr: 0x180, symBinAddr: 0x368C4, symSize: 0x40 }
  - { offset: 0x13395E, size: 0x8, addend: 0x0, symName: '__ZN152_$LT$core..result..Result$LT$pyo3..instance..Bound$LT$pyo3..types..any..PyAny$GT$$C$pyo3..err..PyErr$GT$$u20$as$u20$pyo3..py_result_ext..PyResultExt$GT$19cast_into_unchecked17h7bef5ad67958489cE', symObjAddr: 0x280, symBinAddr: 0x36904, symSize: 0x40 }
  - { offset: 0x133994, size: 0x8, addend: 0x0, symName: '__ZN152_$LT$core..result..Result$LT$pyo3..instance..Bound$LT$pyo3..types..any..PyAny$GT$$C$pyo3..err..PyErr$GT$$u20$as$u20$pyo3..py_result_ext..PyResultExt$GT$19cast_into_unchecked17h7df6428e046b29bcE', symObjAddr: 0x2C0, symBinAddr: 0x36944, symSize: 0x40 }
  - { offset: 0x1339CA, size: 0x8, addend: 0x0, symName: '__ZN152_$LT$core..result..Result$LT$pyo3..instance..Bound$LT$pyo3..types..any..PyAny$GT$$C$pyo3..err..PyErr$GT$$u20$as$u20$pyo3..py_result_ext..PyResultExt$GT$19cast_into_unchecked17h81690dbbd9a7a34cE', symObjAddr: 0x300, symBinAddr: 0x36984, symSize: 0x40 }
  - { offset: 0x134F00, size: 0x8, addend: 0x0, symName: '__ZN4core6result19Result$LT$T$C$E$GT$14unwrap_or_else17h94c4d81e2b98b61dE', symObjAddr: 0x2B24, symBinAddr: 0x37170, symSize: 0x8C }
  - { offset: 0x134FA5, size: 0x8, addend: 0x0, symName: '__ZN4core6result19Result$LT$T$C$E$GT$3map17h324b8f90006f7ce4E', symObjAddr: 0x2FE4, symBinAddr: 0x371FC, symSize: 0xA0 }
  - { offset: 0x135052, size: 0x8, addend: 0x0, symName: '__ZN4core6result19Result$LT$T$C$E$GT$3map17h368b9b0ed13f07adE', symObjAddr: 0x3084, symBinAddr: 0x3729C, symSize: 0x74 }
  - { offset: 0x1350E4, size: 0x8, addend: 0x0, symName: '__ZN4core6result19Result$LT$T$C$E$GT$3map17h8eec155785c4b0beE', symObjAddr: 0x34C8, symBinAddr: 0x37310, symSize: 0x90 }
  - { offset: 0x13518F, size: 0x8, addend: 0x0, symName: '__ZN4core6result19Result$LT$T$C$E$GT$3map17h951f1b9897927e1eE', symObjAddr: 0x3558, symBinAddr: 0x373A0, symSize: 0xBC }
  - { offset: 0x13522F, size: 0x8, addend: 0x0, symName: '__ZN4core6result19Result$LT$T$C$E$GT$3map17h9592172a5d800659E', symObjAddr: 0x3614, symBinAddr: 0x3745C, symSize: 0x9C }
  - { offset: 0x1352C2, size: 0x8, addend: 0x0, symName: '__ZN4core6result19Result$LT$T$C$E$GT$3map17hc5b8f6cc8ca0ddacE', symObjAddr: 0x38F0, symBinAddr: 0x374F8, symSize: 0x90 }
  - { offset: 0x135355, size: 0x8, addend: 0x0, symName: '__ZN4core6result19Result$LT$T$C$E$GT$3map17hda27a367fb2a6741E', symObjAddr: 0x3B88, symBinAddr: 0x37588, symSize: 0x90 }
  - { offset: 0x1353F5, size: 0x8, addend: 0x0, symName: '__ZN4core6result19Result$LT$T$C$E$GT$3map17he1f3aed3ce84a472E', symObjAddr: 0x3CA8, symBinAddr: 0x37618, symSize: 0x9C }
  - { offset: 0x1354A0, size: 0x8, addend: 0x0, symName: '__ZN4core6result19Result$LT$T$C$E$GT$3map17hf7e95cfb04039ddbE', symObjAddr: 0x3DD4, symBinAddr: 0x376B4, symSize: 0xA8 }
  - { offset: 0x135534, size: 0x8, addend: 0x0, symName: '__ZN4core6result19Result$LT$T$C$E$GT$3map17hfc8f050523fa1084E', symObjAddr: 0x3F0C, symBinAddr: 0x3775C, symSize: 0x90 }
  - { offset: 0x1355C7, size: 0x8, addend: 0x0, symName: '__ZN4core6result19Result$LT$T$C$E$GT$3map17hffd796af06185b55E', symObjAddr: 0x4010, symBinAddr: 0x377EC, symSize: 0x9C }
  - { offset: 0x135667, size: 0x8, addend: 0x0, symName: '__ZN4core6result19Result$LT$T$C$E$GT$6as_ref17hefce99134b446767E', symObjAddr: 0x40AC, symBinAddr: 0x37888, symSize: 0x68 }
  - { offset: 0x1356D8, size: 0x8, addend: 0x0, symName: '__ZN4core6result19Result$LT$T$C$E$GT$6expect17h16f04265427ff227E', symObjAddr: 0x4248, symBinAddr: 0x378F0, symSize: 0xB0 }
  - { offset: 0x135742, size: 0x8, addend: 0x0, symName: '__ZN4core6result19Result$LT$T$C$E$GT$6expect17h7f97826256b05996E', symObjAddr: 0x4508, symBinAddr: 0x379A0, symSize: 0x84 }
  - { offset: 0x1357A4, size: 0x8, addend: 0x0, symName: '__ZN4core6result19Result$LT$T$C$E$GT$6expect17hd114c547a94dfa7dE', symObjAddr: 0x46D4, symBinAddr: 0x37A24, symSize: 0x78 }
  - { offset: 0x135806, size: 0x8, addend: 0x0, symName: '__ZN4core6result19Result$LT$T$C$E$GT$6expect17hd98ce2ef2fbab89cE', symObjAddr: 0x474C, symBinAddr: 0x37A9C, symSize: 0xA4 }
  - { offset: 0x135869, size: 0x8, addend: 0x0, symName: '__ZN4core6result19Result$LT$T$C$E$GT$6expect17hed65b4e30336e9a2E', symObjAddr: 0x48A0, symBinAddr: 0x37B40, symSize: 0xB0 }
  - { offset: 0x1358F2, size: 0x8, addend: 0x0, symName: '__ZN4core6result19Result$LT$T$C$E$GT$7map_err17h1d1e22ef84173fc8E', symObjAddr: 0x4D58, symBinAddr: 0x37BF0, symSize: 0x84 }
  - { offset: 0x13598C, size: 0x8, addend: 0x0, symName: '__ZN4core6result19Result$LT$T$C$E$GT$7map_err17h367140abb02c96d0E', symObjAddr: 0x4F78, symBinAddr: 0x37C74, symSize: 0x7C }
  - { offset: 0x135A36, size: 0x8, addend: 0x0, symName: '__ZN4core6result19Result$LT$T$C$E$GT$7map_err17h4075b2c31f5e2944E', symObjAddr: 0x4FF4, symBinAddr: 0x37CF0, symSize: 0x30 }
  - { offset: 0x135ADE, size: 0x8, addend: 0x0, symName: '__ZN4core6result19Result$LT$T$C$E$GT$7map_err17h8dd40e314aa46ca1E', symObjAddr: 0x5568, symBinAddr: 0x37D20, symSize: 0x30 }
  - { offset: 0x135B54, size: 0x8, addend: 0x0, symName: '__ZN4core6result19Result$LT$T$C$E$GT$7map_err17h902a361c07089332E', symObjAddr: 0x5598, symBinAddr: 0x37D50, symSize: 0x98 }
  - { offset: 0x135BF4, size: 0x8, addend: 0x0, symName: '__ZN4core6result19Result$LT$T$C$E$GT$7map_err17hb820fe87f7bb5075E', symObjAddr: 0x591C, symBinAddr: 0x37DE8, symSize: 0x98 }
  - { offset: 0x135C87, size: 0x8, addend: 0x0, symName: '__ZN4core6result19Result$LT$T$C$E$GT$7map_err17hcba3f4f30dd854b0E', symObjAddr: 0x5B64, symBinAddr: 0x37E80, symSize: 0x84 }
  - { offset: 0x135D1A, size: 0x8, addend: 0x0, symName: '__ZN4core6result19Result$LT$T$C$E$GT$9is_ok_and17h83eb66abfbdcb95aE', symObjAddr: 0x62AC, symBinAddr: 0x37F04, symSize: 0xB0 }
  - { offset: 0x135D7E, size: 0x8, addend: 0x0, symName: '__ZN4core6result19Result$LT$T$C$E$GT$9is_ok_and17h8e74c7341034d0e1E', symObjAddr: 0x635C, symBinAddr: 0x37FB4, symSize: 0xB0 }
  - { offset: 0x135DE2, size: 0x8, addend: 0x0, symName: '__ZN4core6result19Result$LT$T$C$E$GT$9unwrap_or17h1d84d30d51dc22f9E', symObjAddr: 0x640C, symBinAddr: 0x38064, symSize: 0xF4 }
  - { offset: 0x135E28, size: 0x8, addend: 0x0, symName: '__ZN4core6result19Result$LT$T$C$E$GT$9unwrap_or17hd5555a1bb5b41a39E', symObjAddr: 0x6500, symBinAddr: 0x38158, symSize: 0x70 }
  - { offset: 0x135EA5, size: 0x8, addend: 0x0, symName: '__ZN118_$LT$$u5b$core..mem..maybe_uninit..MaybeUninit$LT$T$GT$$u5d$$u20$as$u20$core..array..iter..iter_inner..PartialDrop$GT$12partial_drop17h48d8b0562716ee92E', symObjAddr: 0x0, symBinAddr: 0x38F1C, symSize: 0xA0 }
  - { offset: 0x136704, size: 0x8, addend: 0x0, symName: '__ZN4core3num23_$LT$impl$u20$usize$GT$13unchecked_add18precondition_check17h6ef1b03aad77473eE', symObjAddr: 0x169C, symBinAddr: 0x39538, symSize: 0x64 }
  - { offset: 0x13786A, size: 0x8, addend: 0x0, symName: '__ZN118_$LT$$u5b$core..mem..maybe_uninit..MaybeUninit$LT$T$GT$$u5d$$u20$as$u20$core..array..iter..iter_inner..PartialDrop$GT$12partial_drop17h48d8b0562716ee92E', symObjAddr: 0x0, symBinAddr: 0x38F1C, symSize: 0xA0 }
  - { offset: 0x13796A, size: 0x8, addend: 0x0, symName: '__ZN129_$LT$$u5b$core..mem..maybe_uninit..MaybeUninit$LT$T$GT$$u3b$$u20$N$u5d$$u20$as$u20$core..array..iter..iter_inner..PartialDrop$GT$12partial_drop17h969b67bd6f18256eE', symObjAddr: 0x18C, symBinAddr: 0x38FBC, symSize: 0x4C }
  - { offset: 0x137D29, size: 0x8, addend: 0x0, symName: '__ZN50_$LT$T$u20$as$u20$core..convert..Into$LT$U$GT$$GT$4into17h8f853af0a075b563E', symObjAddr: 0x7370, symBinAddr: 0x3B27C, symSize: 0x30 }
  - { offset: 0x137D98, size: 0x8, addend: 0x0, symName: '__ZN4core7convert3num18ptr_try_from_impls69_$LT$impl$u20$core..convert..TryFrom$LT$u64$GT$$u20$for$u20$usize$GT$8try_from17hc21848de9c4929ddE', symObjAddr: 0x1A38, symBinAddr: 0x3959C, symSize: 0x18 }
  - { offset: 0x13890C, size: 0x8, addend: 0x0, symName: '__ZN4pyo33err5PyErr3new28_$u7b$$u7b$closure$u7d$$u7d$17h081bbc4efac4e758E', symObjAddr: 0x4658, symBinAddr: 0x3A4DC, symSize: 0xD4 }
  - { offset: 0x138965, size: 0x8, addend: 0x0, symName: '__ZN4pyo33err5PyErr3new28_$u7b$$u7b$closure$u7d$$u7d$17h25f662aa8c0bd4d1E', symObjAddr: 0x48C0, symBinAddr: 0x3A5B0, symSize: 0xD4 }
  - { offset: 0x1389BE, size: 0x8, addend: 0x0, symName: '__ZN4pyo33err5PyErr3new28_$u7b$$u7b$closure$u7d$$u7d$17h65ab213cb55f72a4E', symObjAddr: 0x525C, symBinAddr: 0x3A684, symSize: 0xC0 }
  - { offset: 0x138A16, size: 0x8, addend: 0x0, symName: '__ZN4pyo33err5PyErr3new28_$u7b$$u7b$closure$u7d$$u7d$17hb030462b498d94b6E', symObjAddr: 0x56F4, symBinAddr: 0x3A744, symSize: 0xC0 }
  - { offset: 0x138A6E, size: 0x8, addend: 0x0, symName: '__ZN4pyo33err5PyErr3new28_$u7b$$u7b$closure$u7d$$u7d$17hba376b387175124bE', symObjAddr: 0x57B4, symBinAddr: 0x3A804, symSize: 0xC0 }
  - { offset: 0x138AC6, size: 0x8, addend: 0x0, symName: '__ZN4pyo33err5PyErr3new28_$u7b$$u7b$closure$u7d$$u7d$17he1c9f3f62d3e1771E', symObjAddr: 0x5DD4, symBinAddr: 0x3A8C4, symSize: 0xC8 }
  - { offset: 0x138B1E, size: 0x8, addend: 0x0, symName: '__ZN4pyo33err5PyErr3new28_$u7b$$u7b$closure$u7d$$u7d$17hf8b1a5629099a434E', symObjAddr: 0x6198, symBinAddr: 0x3A98C, symSize: 0xD4 }
  - { offset: 0x138B7D, size: 0x8, addend: 0x0, symName: '__ZN4pyo33err5PyErr4take28_$u7b$$u7b$closure$u7d$$u7d$17h70bbd1c3202f6352E', symObjAddr: 0x64DC, symBinAddr: 0x3ACD0, symSize: 0x7C }
  - { offset: 0x138BB6, size: 0x8, addend: 0x0, symName: '__ZN4pyo33err5PyErr4take28_$u7b$$u7b$closure$u7d$$u7d$17h8e4ef63ecaabb54eE', symObjAddr: 0x6558, symBinAddr: 0x3AD4C, symSize: 0x64 }
  - { offset: 0x138C00, size: 0x8, addend: 0x0, symName: '__ZN4pyo33err5PyErr9set_cause28_$u7b$$u7b$closure$u7d$$u7d$17h3a227a497bf6e403E', symObjAddr: 0x6B48, symBinAddr: 0x3B21C, symSize: 0x38 }
  - { offset: 0x138CB1, size: 0x8, addend: 0x0, symName: '__ZN4pyo33err10cast_error106_$LT$impl$u20$core..convert..From$LT$pyo3..err..cast_error..CastError$GT$$u20$for$u20$pyo3..err..PyErr$GT$4from17hf5d31fc8c010a84fE', symObjAddr: 0x1B68, symBinAddr: 0x395B4, symSize: 0xF4 }
  - { offset: 0x138D00, size: 0x8, addend: 0x0, symName: '__ZN4pyo33err10cast_error110_$LT$impl$u20$core..convert..From$LT$pyo3..err..cast_error..CastIntoError$GT$$u20$for$u20$pyo3..err..PyErr$GT$4from17h837889fc830bddbfE', symObjAddr: 0x1C5C, symBinAddr: 0x396A8, symSize: 0xF8 }
  - { offset: 0x139896, size: 0x8, addend: 0x0, symName: '__ZN47_$LT$T$u20$as$u20$pyo3..err..PyErrArguments$GT$9arguments17h1e76a19d82faa532E', symObjAddr: 0xC48, symBinAddr: 0x393DC, symSize: 0x40 }
  - { offset: 0x139901, size: 0x8, addend: 0x0, symName: '__ZN47_$LT$T$u20$as$u20$pyo3..err..PyErrArguments$GT$9arguments17h5f35c10c11006beeE', symObjAddr: 0xC88, symBinAddr: 0x3941C, symSize: 0x11C }
  - { offset: 0x1399BA, size: 0x8, addend: 0x0, symName: __ZN4pyo33err17error_on_minusone17h44640d36a1c2dbc2E, symObjAddr: 0x1F30, symBinAddr: 0x397A0, symSize: 0xC8 }
  - { offset: 0x139A0C, size: 0x8, addend: 0x0, symName: __ZN4pyo33err17error_on_minusone17h4cdef1fb71aa3accE, symObjAddr: 0x1FF8, symBinAddr: 0x39868, symSize: 0xC8 }
  - { offset: 0x139A5E, size: 0x8, addend: 0x0, symName: __ZN4pyo33err17error_on_minusone17h84b7cc44f6a417b5E, symObjAddr: 0x20C0, symBinAddr: 0x39930, symSize: 0xC8 }
  - { offset: 0x139AB0, size: 0x8, addend: 0x0, symName: __ZN4pyo33err17panic_after_error17hc2427e2c864ee613E, symObjAddr: 0x2188, symBinAddr: 0x399F8, symSize: 0x30 }
  - { offset: 0x139AEB, size: 0x8, addend: 0x0, symName: '__ZN53_$LT$pyo3..err..PyErr$u20$as$u20$core..fmt..Debug$GT$3fmt17h999e7cff00021354E', symObjAddr: 0x73D8, symBinAddr: 0x3B2AC, symSize: 0x40 }
  - { offset: 0x139B2D, size: 0x8, addend: 0x0, symName: '__ZN53_$LT$pyo3..err..PyErr$u20$as$u20$core..fmt..Debug$GT$3fmt28_$u7b$$u7b$closure$u7d$$u7d$17hd0679dfecf96718fE', symObjAddr: 0x7418, symBinAddr: 0x3B2EC, symSize: 0x178 }
  - { offset: 0x139B91, size: 0x8, addend: 0x0, symName: '__ZN53_$LT$pyo3..err..PyErr$u20$as$u20$core..fmt..Debug$GT$3fmt28_$u7b$$u7b$closure$u7d$$u7d$28_$u7b$$u7b$closure$u7d$$u7d$17h941e6232d06b0006E', symObjAddr: 0x7590, symBinAddr: 0x3B464, symSize: 0x1AC }
  - { offset: 0x139C87, size: 0x8, addend: 0x0, symName: '__ZN55_$LT$pyo3..err..PyErr$u20$as$u20$core..fmt..Display$GT$3fmt17h553dc1efbf5b82b9E', symObjAddr: 0x773C, symBinAddr: 0x3B610, symSize: 0x34 }
  - { offset: 0x139CC9, size: 0x8, addend: 0x0, symName: '__ZN55_$LT$pyo3..err..PyErr$u20$as$u20$core..fmt..Display$GT$3fmt28_$u7b$$u7b$closure$u7d$$u7d$17h66c89df8a20d0212E', symObjAddr: 0x7770, symBinAddr: 0x3B644, symSize: 0x3B0 }
  - { offset: 0x139E32, size: 0x8, addend: 0x0, symName: '__ZN55_$LT$pyo3..err..PyErr$u20$as$u20$core..fmt..Display$GT$3fmt28_$u7b$$u7b$closure$u7d$$u7d$28_$u7b$$u7b$closure$u7d$$u7d$17hf0d301306413afc0E', symObjAddr: 0x7B20, symBinAddr: 0x3B9F4, symSize: 0x1C }
  - { offset: 0x13ABD4, size: 0x8, addend: 0x0, symName: '__ZN3std3sys4sync5mutex7pthread5Mutex3get28_$u7b$$u7b$closure$u7d$$u7d$17h23820c2298830cc7E', symObjAddr: 0x224, symBinAddr: 0x39008, symSize: 0xF4 }
  - { offset: 0x13B00A, size: 0x8, addend: 0x0, symName: __ZN3std4sync6poison10map_result17h51f9e73a5c8d17a8E, symObjAddr: 0x3DC, symBinAddr: 0x390FC, symSize: 0xC4 }
  - { offset: 0x13B09E, size: 0x8, addend: 0x0, symName: __ZN3std4sync6poison10map_result17hef02591f2a885464E, symObjAddr: 0x4A0, symBinAddr: 0x391C0, symSize: 0xC4 }
  - { offset: 0x13B2B7, size: 0x8, addend: 0x0, symName: '__ZN76_$LT$std..sync..poison..PoisonError$LT$T$GT$$u20$as$u20$core..fmt..Debug$GT$3fmt17h12ac5ce0563178d2E', symObjAddr: 0x7C54, symBinAddr: 0x3BA10, symSize: 0x50 }
  - { offset: 0x13B2FA, size: 0x8, addend: 0x0, symName: '__ZN76_$LT$std..sync..poison..PoisonError$LT$T$GT$$u20$as$u20$core..fmt..Debug$GT$3fmt17h52177a2030c7aefeE', symObjAddr: 0x7CA4, symBinAddr: 0x3BA60, symSize: 0x50 }
  - { offset: 0x13B653, size: 0x8, addend: 0x0, symName: __ZN3std4sync6poison4Flag4done17h17f061c3ab22f0fcE, symObjAddr: 0x564, symBinAddr: 0x39284, symSize: 0x8C }
  - { offset: 0x13B741, size: 0x8, addend: 0x0, symName: __ZN3std4sync6poison4Flag5guard17h690bec2b01d6b9e2E, symObjAddr: 0x5F0, symBinAddr: 0x39310, symSize: 0xCC }
  - { offset: 0x13B8CD, size: 0x8, addend: 0x0, symName: __ZN4pyo33err5PyErr10from_state17h1d8e8c39ea2433d0E, symObjAddr: 0x21B8, symBinAddr: 0x39A28, symSize: 0x30 }
  - { offset: 0x13B8F1, size: 0x8, addend: 0x0, symName: __ZN4pyo33err5PyErr10from_value17h8600059cc99e4bfcE, symObjAddr: 0x21E8, symBinAddr: 0x39A58, symSize: 0x1B4 }
  - { offset: 0x13B98E, size: 0x8, addend: 0x0, symName: __ZN4pyo33err5PyErr10into_value17h2c66862ec19e06b9E, symObjAddr: 0x239C, symBinAddr: 0x39C0C, symSize: 0x128 }
  - { offset: 0x13BA16, size: 0x8, addend: 0x0, symName: __ZN4pyo33err5PyErr10normalized17h1290b773d6a8d113E, symObjAddr: 0x24C4, symBinAddr: 0x39D34, symSize: 0x24 }
  - { offset: 0x13BA61, size: 0x8, addend: 0x0, symName: __ZN4pyo33err5PyErr11is_instance17h4f6014ff2cf722daE, symObjAddr: 0x24E8, symBinAddr: 0x39D58, symSize: 0xA0 }
  - { offset: 0x13BAEB, size: 0x8, addend: 0x0, symName: __ZN4pyo33err5PyErr14is_instance_of17h06ea68e9765a2001E, symObjAddr: 0x2724, symBinAddr: 0x39DF8, symSize: 0x84 }
  - { offset: 0x13BB32, size: 0x8, addend: 0x0, symName: __ZN4pyo33err5PyErr16write_unraisable17hebba46510a0af4e2E, symObjAddr: 0x2DD8, symBinAddr: 0x39E7C, symSize: 0x58 }
  - { offset: 0x13BB8D, size: 0x8, addend: 0x0, symName: __ZN4pyo33err5PyErr22print_panic_and_unwind17he72162432d4baf5dE, symObjAddr: 0x2E30, symBinAddr: 0x39ED4, symSize: 0x1AC }
  - { offset: 0x13BC07, size: 0x8, addend: 0x0, symName: __ZN4pyo33err5PyErr3new17h054b89247fa25418E, symObjAddr: 0x3018, symBinAddr: 0x3A080, symSize: 0x9C }
  - { offset: 0x13BC65, size: 0x8, addend: 0x0, symName: __ZN4pyo33err5PyErr3new17h5540b0abcd05af79E, symObjAddr: 0x34B0, symBinAddr: 0x3A11C, symSize: 0xA8 }
  - { offset: 0x13BCC3, size: 0x8, addend: 0x0, symName: __ZN4pyo33err5PyErr3new17h7e819e5cf32948feE, symObjAddr: 0x38B4, symBinAddr: 0x3A1C4, symSize: 0x9C }
  - { offset: 0x13BD21, size: 0x8, addend: 0x0, symName: __ZN4pyo33err5PyErr3new17h928ed326f095f28bE, symObjAddr: 0x3A70, symBinAddr: 0x3A260, symSize: 0x9C }
  - { offset: 0x13BD7F, size: 0x8, addend: 0x0, symName: __ZN4pyo33err5PyErr3new17ha5a8fe0ca316b1e2E, symObjAddr: 0x3E28, symBinAddr: 0x3A2FC, symSize: 0xA0 }
  - { offset: 0x13BDDE, size: 0x8, addend: 0x0, symName: __ZN4pyo33err5PyErr3new17hbd951264ee256ffcE, symObjAddr: 0x3F64, symBinAddr: 0x3A39C, symSize: 0xA0 }
  - { offset: 0x13BE3D, size: 0x8, addend: 0x0, symName: __ZN4pyo33err5PyErr3new17hc31d7f4050c4b173E, symObjAddr: 0x4114, symBinAddr: 0x3A43C, symSize: 0xA0 }
  - { offset: 0x13BE8F, size: 0x8, addend: 0x0, symName: __ZN4pyo33err5PyErr4take17h586f32de4fcf8f41E, symObjAddr: 0x626C, symBinAddr: 0x3AA60, symSize: 0x270 }
  - { offset: 0x13BF85, size: 0x8, addend: 0x0, symName: __ZN4pyo33err5PyErr5cause17h91c03426c94279b2E, symObjAddr: 0x6630, symBinAddr: 0x3ADB0, symSize: 0x44 }
  - { offset: 0x13C00C, size: 0x8, addend: 0x0, symName: __ZN4pyo33err5PyErr5fetch17h7d7c3812a13c4bf2E, symObjAddr: 0x6674, symBinAddr: 0x3ADF4, symSize: 0x5C }
  - { offset: 0x13C048, size: 0x8, addend: 0x0, symName: __ZN4pyo33err5PyErr5value17h98925edd5b29e73eE, symObjAddr: 0x670C, symBinAddr: 0x3AE50, symSize: 0x28 }
  - { offset: 0x13C083, size: 0x8, addend: 0x0, symName: __ZN4pyo33err5PyErr7restore17ha1ba8938601c5f27E, symObjAddr: 0x6760, symBinAddr: 0x3AE78, symSize: 0x38 }
  - { offset: 0x13C0C2, size: 0x8, addend: 0x0, symName: __ZN4pyo33err5PyErr8get_type17h9f00edd587b861cbE, symObjAddr: 0x6798, symBinAddr: 0x3AEB0, symSize: 0x28 }
  - { offset: 0x13C10A, size: 0x8, addend: 0x0, symName: __ZN4pyo33err5PyErr8new_type17he74c7da18a9c17e5E, symObjAddr: 0x67C0, symBinAddr: 0x3AED8, symSize: 0x1E0 }
  - { offset: 0x13C25E, size: 0x8, addend: 0x0, symName: __ZN4pyo33err5PyErr9set_cause17h4986f0e4d1739c45E, symObjAddr: 0x69E4, symBinAddr: 0x3B0B8, symSize: 0x164 }
  - { offset: 0x13C2EE, size: 0x8, addend: 0x0, symName: __ZN4pyo33err5PyErr9traceback17h4bf82306cb291809E, symObjAddr: 0x6B80, symBinAddr: 0x3B254, symSize: 0x28 }
  - { offset: 0x13C48A, size: 0x8, addend: 0x0, symName: '__ZN31_$LT$dyn$u20$core..any..Any$GT$12downcast_ref17h477d3726d4f23315E', symObjAddr: 0x0, symBinAddr: 0x3BAB0, symSize: 0xA4 }
  - { offset: 0x13C5E7, size: 0x8, addend: 0x0, symName: '__ZN4pyo34sync9once_lock19PyOnceLock$LT$T$GT$11get_or_init28_$u7b$$u7b$closure$u7d$$u7d$17h250a1fac00875b7dE', symObjAddr: 0x1400, symBinAddr: 0x3C284, symSize: 0x28 }
  - { offset: 0x13C646, size: 0x8, addend: 0x0, symName: '__ZN4pyo34sync9once_lock19PyOnceLock$LT$T$GT$11get_or_init28_$u7b$$u7b$closure$u7d$$u7d$17hf18b0b7fe6f20f45E', symObjAddr: 0x1428, symBinAddr: 0x3C2AC, symSize: 0x38 }
  - { offset: 0x13C6AB, size: 0x8, addend: 0x0, symName: '__ZN4pyo34sync9once_lock19PyOnceLock$LT$T$GT$15get_or_try_init28_$u7b$$u7b$closure$u7d$$u7d$17h0e7f9d56e821c21aE', symObjAddr: 0x17A0, symBinAddr: 0x3C43C, symSize: 0x2C }
  - { offset: 0x13C713, size: 0x8, addend: 0x0, symName: '__ZN4pyo34sync9once_lock19PyOnceLock$LT$T$GT$15get_or_try_init28_$u7b$$u7b$closure$u7d$$u7d$17he846e4da4dc92384E', symObjAddr: 0x1854, symBinAddr: 0x3C468, symSize: 0x38 }
  - { offset: 0x13C7B0, size: 0x8, addend: 0x0, symName: '__ZN4pyo34sync9once_lock45PyOnceLock$LT$pyo3..instance..Py$LT$T$GT$$GT$6import28_$u7b$$u7b$closure$u7d$$u7d$17h514be742ecf69862E', symObjAddr: 0x228C, symBinAddr: 0x3C734, symSize: 0x260 }
  - { offset: 0x13C8AB, size: 0x8, addend: 0x0, symName: '__ZN4pyo34sync9once_lock45PyOnceLock$LT$pyo3..instance..Py$LT$T$GT$$GT$6import28_$u7b$$u7b$closure$u7d$$u7d$17ha965a68ed6807821E', symObjAddr: 0x24EC, symBinAddr: 0x3C994, symSize: 0x30 }
  - { offset: 0x13C97F, size: 0x8, addend: 0x0, symName: __ZN4pyo34sync9once_lock26init_once_cell_py_attached17h6bec59fda1bc786bE, symObjAddr: 0x191C, symBinAddr: 0x8279C, symSize: 0xAC }
  - { offset: 0x13CA01, size: 0x8, addend: 0x0, symName: __ZN4pyo34sync9once_lock26init_once_cell_py_attached17h85c9d2fd53012502E, symObjAddr: 0x19C8, symBinAddr: 0x82848, symSize: 0xB4 }
  - { offset: 0x13CA89, size: 0x8, addend: 0x0, symName: '__ZN4pyo34sync9once_lock26init_once_cell_py_attached28_$u7b$$u7b$closure$u7d$$u7d$17h1956eed2158ce55fE', symObjAddr: 0x1A7C, symBinAddr: 0x3C4A0, symSize: 0x80 }
  - { offset: 0x13CAD9, size: 0x8, addend: 0x0, symName: '__ZN4pyo34sync9once_lock26init_once_cell_py_attached28_$u7b$$u7b$closure$u7d$$u7d$17h797c1ff448367250E', symObjAddr: 0x1AFC, symBinAddr: 0x3C520, symSize: 0x90 }
  - { offset: 0x13CB66, size: 0x8, addend: 0x0, symName: __ZN4pyo34sync9once_lock30try_init_once_cell_py_attached17hb029ad3afd02c361E, symObjAddr: 0x1C38, symBinAddr: 0x828FC, symSize: 0xB4 }
  - { offset: 0x13CBF2, size: 0x8, addend: 0x0, symName: __ZN4pyo34sync9once_lock30try_init_once_cell_py_attached17hbd8556a53b2cd4f3E, symObjAddr: 0x1CEC, symBinAddr: 0x829B0, symSize: 0xBC }
  - { offset: 0x13CC83, size: 0x8, addend: 0x0, symName: '__ZN4pyo34sync9once_lock30try_init_once_cell_py_attached28_$u7b$$u7b$closure$u7d$$u7d$17hb7282669bcc90f55E', symObjAddr: 0x1F88, symBinAddr: 0x3C5B0, symSize: 0x90 }
  - { offset: 0x13CCDC, size: 0x8, addend: 0x0, symName: '__ZN4pyo34sync9once_lock30try_init_once_cell_py_attached28_$u7b$$u7b$closure$u7d$$u7d$17hc9de36bec715aee0E', symObjAddr: 0x2098, symBinAddr: 0x3C640, symSize: 0x84 }
  - { offset: 0x13CFAE, size: 0x8, addend: 0x0, symName: __ZN4pyo321interpreter_lifecycle5START17ha2af3ebbe3d4fad2E, symObjAddr: 0x6048, symBinAddr: 0xD0B18, symSize: 0x0 }
  - { offset: 0x13CFBB, size: 0x8, addend: 0x0, symName: __ZN4pyo321interpreter_lifecycle10initialize17hf8c3ee31a4a7ffecE, symObjAddr: 0x118C, symBinAddr: 0x3C010, symSize: 0x1C }
  - { offset: 0x13CFD9, size: 0x8, addend: 0x0, symName: '__ZN4pyo321interpreter_lifecycle10initialize28_$u7b$$u7b$closure$u7d$$u7d$17h5d4388b64d7740c7E', symObjAddr: 0x11A8, symBinAddr: 0x3C02C, symSize: 0x38 }
  - { offset: 0x13D00F, size: 0x8, addend: 0x0, symName: __ZN4pyo321interpreter_lifecycle18ensure_initialized17h3f23b7b864de3377E, symObjAddr: 0x11E0, symBinAddr: 0x3C064, symSize: 0x38 }
  - { offset: 0x13D02D, size: 0x8, addend: 0x0, symName: '__ZN4pyo321interpreter_lifecycle18ensure_initialized28_$u7b$$u7b$closure$u7d$$u7d$17h1e37ccc7b2168cbcE', symObjAddr: 0x1218, symBinAddr: 0x3C09C, symSize: 0x90 }
  - { offset: 0x13ED82, size: 0x8, addend: 0x0, symName: '__ZN4core3ptr7mut_ptr31_$LT$impl$u20$$BP$mut$u20$T$GT$6as_ref17h57a3f4b62d821348E', symObjAddr: 0x178, symBinAddr: 0x3BC28, symSize: 0x34 }
  - { offset: 0x13EF16, size: 0x8, addend: 0x0, symName: '__ZN4core3ptr9const_ptr33_$LT$impl$u20$$BP$const$u20$T$GT$20offset_from_unsigned18precondition_check17h29c291b168989b77E', symObjAddr: 0x1C4, symBinAddr: 0x3BC5C, symSize: 0x60 }
  - { offset: 0x13EFFF, size: 0x8, addend: 0x0, symName: '__ZN4core3ptr9const_ptr33_$LT$impl$u20$$BP$const$u20$T$GT$6offset18precondition_check17h67c405d72c844f7bE', symObjAddr: 0x224, symBinAddr: 0x3BCBC, symSize: 0xC4 }
  - { offset: 0x13F1E1, size: 0x8, addend: 0x0, symName: '__ZN4core3ptr9const_ptr33_$LT$impl$u20$$BP$const$u20$T$GT$7is_null17h2c0033df5ea31e32E', symObjAddr: 0x2E8, symBinAddr: 0x3BD80, symSize: 0x18 }
  - { offset: 0x13F6FE, size: 0x8, addend: 0x0, symName: '__ZN31_$LT$dyn$u20$core..any..Any$GT$12downcast_ref17h477d3726d4f23315E', symObjAddr: 0x0, symBinAddr: 0x3BAB0, symSize: 0xA4 }
  - { offset: 0x13F7EF, size: 0x8, addend: 0x0, symName: '__ZN31_$LT$dyn$u20$core..any..Any$GT$12downcast_ref17hd676d76ae764e858E', symObjAddr: 0xA4, symBinAddr: 0x3BB54, symSize: 0xA4 }
  - { offset: 0x13F95A, size: 0x8, addend: 0x0, symName: '__ZN54_$LT$dyn$u20$core..any..Any$u2b$core..marker..Send$GT$12downcast_ref17h830eecb0eb0b0d0aE', symObjAddr: 0x28B0, symBinAddr: 0x3CAC8, symSize: 0x2C }
  - { offset: 0x13F991, size: 0x8, addend: 0x0, symName: '__ZN54_$LT$dyn$u20$core..any..Any$u2b$core..marker..Send$GT$12downcast_ref17hb8505af63e5943c2E', symObjAddr: 0x28DC, symBinAddr: 0x3CAF4, symSize: 0x2C }
  - { offset: 0x13F9D4, size: 0x8, addend: 0x0, symName: '__ZN42_$LT$$RF$T$u20$as$u20$core..fmt..Debug$GT$3fmt17h6049c686ed7ebebdE', symObjAddr: 0x148, symBinAddr: 0x3BBF8, symSize: 0x30 }
  - { offset: 0x13FAAF, size: 0x8, addend: 0x0, symName: '__ZN50_$LT$$BP$mut$u20$T$u20$as$u20$core..fmt..Debug$GT$3fmt17h35ef6206cde68dceE', symObjAddr: 0x27AC, symBinAddr: 0x3C9C4, symSize: 0x38 }
  - { offset: 0x13FB21, size: 0x8, addend: 0x0, symName: '__ZN54_$LT$$BP$const$u20$T$u20$as$u20$core..fmt..Pointer$GT$3fmt17h3df254d8b7a7328fE', symObjAddr: 0x27E4, symBinAddr: 0x3C9FC, symSize: 0xCC }
  - { offset: 0x13FBA1, size: 0x8, addend: 0x0, symName: __ZN4core4iter6traits8iterator8Iterator3zip17h2eafffa76db6b775E, symObjAddr: 0x350, symBinAddr: 0x3BD98, symSize: 0xC8 }
  - { offset: 0x13FC17, size: 0x8, addend: 0x0, symName: __ZN4core4iter6traits8iterator8Iterator4take17h591193e17b64a379E, symObjAddr: 0x4E0, symBinAddr: 0x3BE60, symSize: 0x2C }
  - { offset: 0x13FC72, size: 0x8, addend: 0x0, symName: __ZN4core4iter6traits8iterator8Iterator9enumerate17h514621d08a711c1bE, symObjAddr: 0x7B4, symBinAddr: 0x3BE8C, symSize: 0x28 }
  - { offset: 0x13FD47, size: 0x8, addend: 0x0, symName: __ZN4core4iter8adapters3zip27TrustedRandomAccessNoCoerce4size17hc8fa20312a73efe4E, symObjAddr: 0x834, symBinAddr: 0x3BEB4, symSize: 0x2C }
  - { offset: 0x13FD7E, size: 0x8, addend: 0x0, symName: __ZN4core4iter8adapters3zip27TrustedRandomAccessNoCoerce4size17hf84a2372a0858cd8E, symObjAddr: 0x860, symBinAddr: 0x3BEE0, symSize: 0x2C }
  - { offset: 0x13FF47, size: 0x8, addend: 0x0, symName: '__ZN91_$LT$core..slice..iter..Iter$LT$T$GT$$u20$as$u20$core..iter..traits..iterator..Iterator$GT$24__iterator_get_unchecked17hc3127131c99ffe67E', symObjAddr: 0x3678, symBinAddr: 0x3CC48, symSize: 0x20 }
  - { offset: 0x13FFA2, size: 0x8, addend: 0x0, symName: '__ZN91_$LT$core..slice..iter..Iter$LT$T$GT$$u20$as$u20$core..iter..traits..iterator..Iterator$GT$24__iterator_get_unchecked17he63da3ad0f18c8a5E', symObjAddr: 0x36B8, symBinAddr: 0x3CC68, symSize: 0x28 }
  - { offset: 0x13FFFD, size: 0x8, addend: 0x0, symName: '__ZN91_$LT$core..slice..iter..Iter$LT$T$GT$$u20$as$u20$core..iter..traits..iterator..Iterator$GT$4next17h112ec5d69ba9f642E', symObjAddr: 0x3964, symBinAddr: 0x3CC90, symSize: 0x84 }
  - { offset: 0x1400B3, size: 0x8, addend: 0x0, symName: '__ZN91_$LT$core..slice..iter..Iter$LT$T$GT$$u20$as$u20$core..iter..traits..iterator..Iterator$GT$4next17h42943311d10c61d2E', symObjAddr: 0x3AF0, symBinAddr: 0x3CD14, symSize: 0x84 }
  - { offset: 0x140169, size: 0x8, addend: 0x0, symName: '__ZN91_$LT$core..slice..iter..Iter$LT$T$GT$$u20$as$u20$core..iter..traits..iterator..Iterator$GT$9size_hint17h45f4eebf7820ea55E', symObjAddr: 0x3DE4, symBinAddr: 0x3CD98, symSize: 0xB4 }
  - { offset: 0x140296, size: 0x8, addend: 0x0, symName: '__ZN91_$LT$core..slice..iter..Iter$LT$T$GT$$u20$as$u20$core..iter..traits..iterator..Iterator$GT$9size_hint17h5796c8aee4568b1aE', symObjAddr: 0x3E98, symBinAddr: 0x3CE4C, symSize: 0xB4 }
  - { offset: 0x1403C3, size: 0x8, addend: 0x0, symName: '__ZN91_$LT$core..slice..iter..Iter$LT$T$GT$$u20$as$u20$core..iter..traits..iterator..Iterator$GT$9size_hint17h92a6abca20867604E', symObjAddr: 0x4000, symBinAddr: 0x3CF00, symSize: 0xB4 }
  - { offset: 0x140502, size: 0x8, addend: 0x0, symName: '__ZN4core7convert3num71_$LT$impl$u20$core..convert..TryFrom$LT$usize$GT$$u20$for$u20$isize$GT$8try_from17h965d5a60c7c55e34E', symObjAddr: 0xEBC, symBinAddr: 0x3BFB4, symSize: 0x5C }
  - { offset: 0x141826, size: 0x8, addend: 0x0, symName: __ZN8pyo3_ffi10boolobject12PyBool_Check17h1b7f4c4f7267c369E, symObjAddr: 0x3540, symBinAddr: 0x3CC08, symSize: 0x34 }
  - { offset: 0x141852, size: 0x8, addend: 0x0, symName: __ZN8pyo3_ffi10boolobject7Py_True17hb536eda811ae95f5E, symObjAddr: 0x3574, symBinAddr: 0x3CC3C, symSize: 0xC }
  - { offset: 0x141F86, size: 0x8, addend: 0x0, symName: '__ZN9once_cell4sync17OnceCell$LT$T$GT$11get_or_init28_$u7b$$u7b$closure$u7d$$u7d$17hac991dc00b3ca3f1E', symObjAddr: 0x44C0, symBinAddr: 0x3D040, symSize: 0x38 }
  - { offset: 0x141FC8, size: 0x8, addend: 0x0, symName: '__ZN9once_cell4sync17OnceCell$LT$T$GT$11get_or_init28_$u7b$$u7b$closure$u7d$$u7d$17hce2921a823ca113bE', symObjAddr: 0x44F8, symBinAddr: 0x3D078, symSize: 0x34 }
  - { offset: 0x1425AC, size: 0x8, addend: 0x0, symName: '__ZN77_$LT$alloc..raw_vec..RawVec$LT$T$C$A$GT$$u20$as$u20$core..ops..drop..Drop$GT$4drop17h7343988e95f1ae8eE', symObjAddr: 0x3374, symBinAddr: 0x3CBA4, symSize: 0x30 }
  - { offset: 0x1425E8, size: 0x8, addend: 0x0, symName: '__ZN77_$LT$alloc..raw_vec..RawVec$LT$T$C$A$GT$$u20$as$u20$core..ops..drop..Drop$GT$4drop17hfd72324f188474c7E', symObjAddr: 0x350C, symBinAddr: 0x3CBD4, symSize: 0x34 }
  - { offset: 0x14297B, size: 0x8, addend: 0x0, symName: '__ZN4core5slice4iter13Iter$LT$T$GT$3new17h48f26a6b994f793aE', symObjAddr: 0x88C, symBinAddr: 0x3BF0C, symSize: 0x50 }
  - { offset: 0x142B2B, size: 0x8, addend: 0x0, symName: '__ZN4core5slice4iter13Iter$LT$T$GT$3new17hae4e2e2d2b0961adE', symObjAddr: 0x8DC, symBinAddr: 0x3BF5C, symSize: 0x58 }
  - { offset: 0x142C53, size: 0x8, addend: 0x0, symName: '__ZN4pyo34sync9once_lock19PyOnceLock$LT$T$GT$11get_or_init17h6c6daaa9ebf9357fE', symObjAddr: 0x12A8, symBinAddr: 0x3C12C, symSize: 0xB0 }
  - { offset: 0x142CC9, size: 0x8, addend: 0x0, symName: '__ZN4pyo34sync9once_lock19PyOnceLock$LT$T$GT$11get_or_init17h86bca40431bc9730E', symObjAddr: 0x1358, symBinAddr: 0x3C1DC, symSize: 0xA8 }
  - { offset: 0x142E22, size: 0x8, addend: 0x0, symName: '__ZN4pyo34sync9once_lock19PyOnceLock$LT$T$GT$15get_or_try_init17h8e666ce246e16d6dE', symObjAddr: 0x1508, symBinAddr: 0x3C2E4, symSize: 0xB0 }
  - { offset: 0x142E86, size: 0x8, addend: 0x0, symName: '__ZN4pyo34sync9once_lock19PyOnceLock$LT$T$GT$15get_or_try_init17ha0bde4908fb687dfE', symObjAddr: 0x1658, symBinAddr: 0x3C394, symSize: 0xA8 }
  - { offset: 0x142EF8, size: 0x8, addend: 0x0, symName: '__ZN4pyo34sync9once_lock45PyOnceLock$LT$pyo3..instance..Py$LT$T$GT$$GT$6import17he0690d2298f4a116E', symObjAddr: 0x21AC, symBinAddr: 0x3C6C4, symSize: 0x70 }
  - { offset: 0x14300C, size: 0x8, addend: 0x0, symName: '__ZN5alloc7raw_vec19RawVec$LT$T$C$A$GT$8grow_one17hb2117965e5ec0207E', symObjAddr: 0x2B24, symBinAddr: 0x3CB20, symSize: 0x84 }
  - { offset: 0x1432F5, size: 0x8, addend: 0x0, symName: '__ZN9once_cell4sync17OnceCell$LT$T$GT$11get_or_init17h39e143571d5e79ddE', symObjAddr: 0x4434, symBinAddr: 0x3CFB4, symSize: 0x44 }
  - { offset: 0x143347, size: 0x8, addend: 0x0, symName: '__ZN9once_cell4sync17OnceCell$LT$T$GT$11get_or_init17h47f94827b8d78f23E', symObjAddr: 0x4478, symBinAddr: 0x3CFF8, symSize: 0x48 }
  - { offset: 0x14338C, size: 0x8, addend: 0x0, symName: '__ZN9once_cell4sync17OnceCell$LT$T$GT$13get_unchecked17h05b39b1dea8667d8E', symObjAddr: 0x452C, symBinAddr: 0x3D0AC, symSize: 0x24 }
  - { offset: 0x1433B8, size: 0x8, addend: 0x0, symName: '__ZN9once_cell4sync17OnceCell$LT$T$GT$13get_unchecked17hbdb826e621e3394eE', symObjAddr: 0x4574, symBinAddr: 0x3D0D0, symSize: 0x24 }
  - { offset: 0x1433F1, size: 0x8, addend: 0x0, symName: '__ZN9once_cell4sync17OnceCell$LT$T$GT$13get_unchecked17he9d701b6b513fa91E', symObjAddr: 0x45BC, symBinAddr: 0x3D0F4, symSize: 0x24 }
  - { offset: 0x14341D, size: 0x8, addend: 0x0, symName: '__ZN9once_cell4sync17OnceCell$LT$T$GT$15get_or_try_init17h3efc01edf20b71e5E', symObjAddr: 0x4970, symBinAddr: 0x3D118, symSize: 0x1D4 }
  - { offset: 0x14349A, size: 0x8, addend: 0x0, symName: '__ZN9once_cell4sync17OnceCell$LT$T$GT$15get_or_try_init17h80783649d620c5eaE', symObjAddr: 0x4B44, symBinAddr: 0x3D2EC, symSize: 0x150 }
  - { offset: 0x1434FE, size: 0x8, addend: 0x0, symName: '__ZN9once_cell4sync17OnceCell$LT$T$GT$15get_or_try_init17hb74577d700d84fcaE', symObjAddr: 0x4E60, symBinAddr: 0x3D43C, symSize: 0x14C }
  - { offset: 0x143562, size: 0x8, addend: 0x0, symName: '__ZN9once_cell4sync17OnceCell$LT$T$GT$15get_or_try_init17hcf9e4e760ca6b1daE', symObjAddr: 0x4FAC, symBinAddr: 0x3D588, symSize: 0x1CC }
  - { offset: 0x1435DF, size: 0x8, addend: 0x0, symName: '__ZN9once_cell4sync17OnceCell$LT$T$GT$3get17h147f8b1f34a8edcdE', symObjAddr: 0x5178, symBinAddr: 0x3D754, symSize: 0x4C }
  - { offset: 0x14360B, size: 0x8, addend: 0x0, symName: '__ZN9once_cell4sync17OnceCell$LT$T$GT$3get17h8fbf7725f08df9fdE', symObjAddr: 0x51C4, symBinAddr: 0x3D7A0, symSize: 0x4C }
  - { offset: 0x143637, size: 0x8, addend: 0x0, symName: '__ZN9once_cell4sync17OnceCell$LT$T$GT$3get17ha5c63966eeea0aefE', symObjAddr: 0x525C, symBinAddr: 0x3D7EC, symSize: 0x4C }
  - { offset: 0x14380F, size: 0x8, addend: 0x0, symName: '__ZN4pyo35types5tuple74_$LT$impl$u20$pyo3..conversion..IntoPyObject$u20$for$u20$$LP$T0$C$$RP$$GT$13into_pyobject17hcaf31ca86274b0b9E', symObjAddr: 0x36AC, symBinAddr: 0x3DEB8, symSize: 0xD8 }
  - { offset: 0x143B7C, size: 0x8, addend: 0x0, symName: '__ZN47_$LT$T$u20$as$u20$pyo3..err..PyErrArguments$GT$9arguments17h5802c73c9530ab65E', symObjAddr: 0xC90, symBinAddr: 0x3D8D0, symSize: 0x4C }
  - { offset: 0x143BEA, size: 0x8, addend: 0x0, symName: '__ZN47_$LT$T$u20$as$u20$pyo3..err..PyErrArguments$GT$9arguments17ha33c70cd981f91e1E', symObjAddr: 0xCDC, symBinAddr: 0x3D91C, symSize: 0x128 }
  - { offset: 0x143D38, size: 0x8, addend: 0x0, symName: '__ZN78_$LT$pyo3..err..cast_error..DisplayClassInfo$u20$as$u20$core..fmt..Display$GT$3fmt17h78b04ac5f9e2f3adE', symObjAddr: 0x4C78, symBinAddr: 0x3E6C8, symSize: 0x4A4 }
  - { offset: 0x143E71, size: 0x8, addend: 0x0, symName: '__ZN78_$LT$pyo3..err..cast_error..DisplayClassInfo$u20$as$u20$core..fmt..Display$GT$3fmt28_$u7b$$u7b$closure$u7d$$u7d$17h8d9fa80632255101E', symObjAddr: 0x511C, symBinAddr: 0x3EB6C, symSize: 0x1C }
  - { offset: 0x143EAE, size: 0x8, addend: 0x0, symName: '__ZN82_$LT$pyo3..err..cast_error..DisplayDowncastError$u20$as$u20$core..fmt..Display$GT$3fmt17hd93a1bd8778e0939E', symObjAddr: 0x51A4, symBinAddr: 0x3EB88, symSize: 0x178 }
  - { offset: 0x143F62, size: 0x8, addend: 0x0, symName: '__ZN82_$LT$pyo3..err..cast_error..DisplayDowncastError$u20$as$u20$core..fmt..Display$GT$3fmt28_$u7b$$u7b$closure$u7d$$u7d$17h054a434821207dbfE', symObjAddr: 0x531C, symBinAddr: 0x3ED00, symSize: 0x24 }
  - { offset: 0x143FA6, size: 0x8, addend: 0x0, symName: '__ZN87_$LT$pyo3..err..cast_error..CastErrorArguments$u20$as$u20$pyo3..err..PyErrArguments$GT$9arguments17h536bc23b85bf83f4E', symObjAddr: 0x53F4, symBinAddr: 0x3ED24, symSize: 0x1A0 }
  - { offset: 0x14417E, size: 0x8, addend: 0x0, symName: __ZN4pyo310conversion15IntoPyObjectExt11into_py_any17h4202310bf87b2c74E, symObjAddr: 0x20F4, symBinAddr: 0x3DC7C, symSize: 0x60 }
  - { offset: 0x1441EA, size: 0x8, addend: 0x0, symName: __ZN4pyo310conversion15IntoPyObjectExt17into_bound_py_any17h04f19b92dda418a4E, symObjAddr: 0x2154, symBinAddr: 0x3DCDC, symSize: 0x60 }
  - { offset: 0x14426C, size: 0x8, addend: 0x0, symName: '__ZN4pyo311conversions3std6string82_$LT$impl$u20$pyo3..conversion..FromPyObject$u20$for$u20$alloc..string..String$GT$7extract17hdb2a654697ea1729E', symObjAddr: 0x28B8, symBinAddr: 0x3DD3C, symSize: 0x98 }
  - { offset: 0x1442BB, size: 0x8, addend: 0x0, symName: '__ZN4pyo311conversions3std6string82_$LT$impl$u20$pyo3..conversion..IntoPyObject$u20$for$u20$alloc..string..String$GT$13into_pyobject17h49e7237da085740eE', symObjAddr: 0x2950, symBinAddr: 0x3DDD4, symSize: 0x74 }
  - { offset: 0x1457EF, size: 0x8, addend: 0x0, symName: '__ZN70_$LT$core..num..error..TryFromIntError$u20$as$u20$core..fmt..Debug$GT$3fmt17h61f5a0ea9846b078E', symObjAddr: 0x4210, symBinAddr: 0x3E354, symSize: 0x54 }
  - { offset: 0x145895, size: 0x8, addend: 0x0, symName: '__ZN50_$LT$T$u20$as$u20$core..convert..Into$LT$U$GT$$GT$4into17h0a7d0369707dc0a1E', symObjAddr: 0x3784, symBinAddr: 0x3DF90, symSize: 0x2C }
  - { offset: 0x1458D5, size: 0x8, addend: 0x0, symName: '__ZN50_$LT$T$u20$as$u20$core..convert..Into$LT$U$GT$$GT$4into17hb6d1670aa95c8e5aE', symObjAddr: 0x37B0, symBinAddr: 0x3DFBC, symSize: 0x2C }
  - { offset: 0x145BA5, size: 0x8, addend: 0x0, symName: '__ZN36_$LT$T$u20$as$u20$core..any..Any$GT$7type_id17hf44791abf571e866E', symObjAddr: 0x16C, symBinAddr: 0x3D838, symSize: 0x20 }
  - { offset: 0x145D9F, size: 0x8, addend: 0x0, symName: __ZN4core5alloc6layout6Layout25from_size_align_unchecked18precondition_check17h50104a4fb24238adE, symObjAddr: 0x1F3C, symBinAddr: 0x3DBC0, symSize: 0xBC }
  - { offset: 0x1464FD, size: 0x8, addend: 0x0, symName: '__ZN42_$LT$$RF$T$u20$as$u20$core..fmt..Debug$GT$3fmt17h1ef53b6472410c55E', symObjAddr: 0x9A8, symBinAddr: 0x3D858, symSize: 0x30 }
  - { offset: 0x1465C2, size: 0x8, addend: 0x0, symName: __ZN4core3fmt5Write9write_fmt17h8624181bcfff396eE, symObjAddr: 0x1CCC, symBinAddr: 0x3DB50, symSize: 0x34 }
  - { offset: 0x14660F, size: 0x8, addend: 0x0, symName: '__ZN75_$LT$$RF$mut$u20$W$u20$as$u20$core..fmt..Write..write_fmt..SpecWriteFmt$GT$14spec_write_fmt17hf33965eac3cb48dcE', symObjAddr: 0x4A44, symBinAddr: 0x3E5E0, symSize: 0x98 }
  - { offset: 0x1468E7, size: 0x8, addend: 0x0, symName: __ZN4core4hint21unreachable_unchecked18precondition_check17hae42758322e87b88E, symObjAddr: 0x1E38, symBinAddr: 0x3DB84, symSize: 0x3C }
  - { offset: 0x147186, size: 0x8, addend: 0x0, symName: __ZN8pyo3_ffi12moduleobject14PyModule_Check17h7571b9a94ac755b5E, symObjAddr: 0x585C, symBinAddr: 0x3EEC4, symSize: 0x2C }
  - { offset: 0x14796D, size: 0x8, addend: 0x0, symName: '__ZN45_$LT$T$u20$as$u20$alloc..string..ToString$GT$9to_string17ha69bf26933c97801E', symObjAddr: 0xB70, symBinAddr: 0x3D888, symSize: 0x24 }
  - { offset: 0x1479A4, size: 0x8, addend: 0x0, symName: '__ZN45_$LT$T$u20$as$u20$alloc..string..ToString$GT$9to_string17hc8e4d439dca4b84dE', symObjAddr: 0xBDC, symBinAddr: 0x3D8AC, symSize: 0x24 }
  - { offset: 0x1479E1, size: 0x8, addend: 0x0, symName: '__ZN49_$LT$T$u20$as$u20$alloc..string..SpecToString$GT$14spec_to_string17h214bba80bc80d15cE', symObjAddr: 0xE04, symBinAddr: 0x3DA44, symSize: 0xF4 }
  - { offset: 0x147ACF, size: 0x8, addend: 0x0, symName: '__ZN76_$LT$alloc..string..String$u20$as$u20$core..convert..From$LT$$RF$str$GT$$GT$4from17h4c2afff88ed61593E', symObjAddr: 0x4B68, symBinAddr: 0x3E678, symSize: 0x50 }
  - { offset: 0x147BBC, size: 0x8, addend: 0x0, symName: '__ZN55_$LT$$RF$str$u20$as$u20$alloc..string..SpecToString$GT$14spec_to_string17ha9e7a6b64b8d9284E', symObjAddr: 0x37F0, symBinAddr: 0x3DFE8, symSize: 0x5C }
  - { offset: 0x147D21, size: 0x8, addend: 0x0, symName: '__ZN65_$LT$alloc..string..String$u20$as$u20$core..ops..deref..Deref$GT$5deref17h3f00e6f307e3dd4cE', symObjAddr: 0x3E8C, symBinAddr: 0x3E334, symSize: 0x20 }
  - { offset: 0x147DE0, size: 0x8, addend: 0x0, symName: '__ZN58_$LT$alloc..string..String$u20$as$u20$core..fmt..Debug$GT$3fmt17h22038fc55933eef8E', symObjAddr: 0x384C, symBinAddr: 0x3E044, symSize: 0x3C }
  - { offset: 0x147ECC, size: 0x8, addend: 0x0, symName: '__ZN58_$LT$alloc..string..String$u20$as$u20$core..fmt..Write$GT$10write_char17hb050c5bafbd94064E', symObjAddr: 0x3888, symBinAddr: 0x3E080, symSize: 0x30 }
  - { offset: 0x147F09, size: 0x8, addend: 0x0, symName: '__ZN58_$LT$alloc..string..String$u20$as$u20$core..fmt..Write$GT$9write_str17h71bc2122637f4694E', symObjAddr: 0x38B8, symBinAddr: 0x3E0B0, symSize: 0x38 }
  - { offset: 0x147F79, size: 0x8, addend: 0x0, symName: '__ZN60_$LT$alloc..string..String$u20$as$u20$core..fmt..Display$GT$3fmt17h3e4ea5560eaa6fefE', symObjAddr: 0x3D7C, symBinAddr: 0x3E2F8, symSize: 0x3C }
  - { offset: 0x14839B, size: 0x8, addend: 0x0, symName: '__ZN72_$LT$alloc..boxed..Box$LT$T$C$A$GT$$u20$as$u20$core..ops..drop..Drop$GT$4drop17h8c13485c143f6234E', symObjAddr: 0x4474, symBinAddr: 0x3E3A8, symSize: 0xC4 }
  - { offset: 0x1484D4, size: 0x8, addend: 0x0, symName: '__ZN72_$LT$alloc..boxed..Box$LT$T$C$A$GT$$u20$as$u20$core..ops..drop..Drop$GT$4drop17he9012915e692d88eE', symObjAddr: 0x475C, symBinAddr: 0x3E46C, symSize: 0xB0 }
  - { offset: 0x14860D, size: 0x8, addend: 0x0, symName: '__ZN72_$LT$alloc..boxed..Box$LT$T$C$A$GT$$u20$as$u20$core..ops..drop..Drop$GT$4drop17hfc69eaeed6f88869E', symObjAddr: 0x4980, symBinAddr: 0x3E51C, symSize: 0xC4 }
  - { offset: 0x148796, size: 0x8, addend: 0x0, symName: '__ZN90_$LT$alloc..boxed..Box$LT$F$C$A$GT$$u20$as$u20$core..ops..function..FnOnce$LT$Args$GT$$GT$9call_once17h548bd31e3759c8f0E', symObjAddr: 0x5928, symBinAddr: 0x3EEF0, symSize: 0x138 }
  - { offset: 0x1489BB, size: 0x8, addend: 0x0, symName: '__ZN5alloc3str83_$LT$impl$u20$core..borrow..Borrow$LT$str$GT$$u20$for$u20$alloc..string..String$GT$6borrow17hfd2ba93f68a81c4bE', symObjAddr: 0x395C, symBinAddr: 0x3E0E8, symSize: 0x20 }
  - { offset: 0x148EAB, size: 0x8, addend: 0x0, symName: __ZN4core3ffi5c_str4CStr6as_ptr17h8f60474e1ad6b998E, symObjAddr: 0x1BA0, symBinAddr: 0x3DB38, symSize: 0x18 }
  - { offset: 0x148F73, size: 0x8, addend: 0x0, symName: __ZN4pyo33err10cast_error13CastIntoError10into_inner17h2acb019a1282544bE, symObjAddr: 0x2C8C, symBinAddr: 0x3DE48, symSize: 0x38 }
  - { offset: 0x148F95, size: 0x8, addend: 0x0, symName: __ZN4pyo33err10cast_error13CastIntoError3new17h1709178da752c88dE, symObjAddr: 0x2CC4, symBinAddr: 0x3DE80, symSize: 0x1C }
  - { offset: 0x148FC5, size: 0x8, addend: 0x0, symName: __ZN4pyo33err10cast_error9CastError3new17hc23b119e99a6b2a1E, symObjAddr: 0x2CE0, symBinAddr: 0x3DE9C, symSize: 0x1C }
  - { offset: 0x14934A, size: 0x8, addend: 0x0, symName: __ZN5alloc6string6String4push17h77945273d2ac6ef5E, symObjAddr: 0x3B6C, symBinAddr: 0x3E108, symSize: 0x114 }
  - { offset: 0x1496CE, size: 0x8, addend: 0x0, symName: __ZN5alloc6string6String8push_str17hd2f0de94d8c676daE, symObjAddr: 0x3CA0, symBinAddr: 0x3E21C, symSize: 0xDC }
  - { offset: 0x149FB0, size: 0x8, addend: 0x0, symName: '__ZN100_$LT$core..iter..adapters..take..Take$LT$I$GT$$u20$as$u20$core..iter..traits..iterator..Iterator$GT$4next17h8ab7c1f56f9a2bfaE', symObjAddr: 0x0, symBinAddr: 0x3F028, symSize: 0x58 }
  - { offset: 0x14BC50, size: 0x8, addend: 0x0, symName: '__ZN100_$LT$core..iter..adapters..take..Take$LT$I$GT$$u20$as$u20$core..iter..traits..iterator..Iterator$GT$4next17h8ab7c1f56f9a2bfaE', symObjAddr: 0x0, symBinAddr: 0x3F028, symSize: 0x58 }
  - { offset: 0x14BC85, size: 0x8, addend: 0x0, symName: '__ZN100_$LT$core..iter..adapters..take..Take$LT$I$GT$$u20$as$u20$core..iter..traits..iterator..Iterator$GT$9size_hint17h7b7d0bb102a15bc8E', symObjAddr: 0x178, symBinAddr: 0x3F080, symSize: 0x100 }
  - { offset: 0x14BDEE, size: 0x8, addend: 0x0, symName: __ZN4core4iter6traits8iterator8Iterator3zip17h7b0f13c2202e87a3E, symObjAddr: 0x1780, symBinAddr: 0x3F75C, symSize: 0xB0 }
  - { offset: 0x14BF3C, size: 0x8, addend: 0x0, symName: '__ZN4core3fmt8builders11DebugStruct10field_with28_$u7b$$u7b$closure$u7d$$u7d$17hcc9373bac41c058dE', symObjAddr: 0xEF0, symBinAddr: 0x3F280, symSize: 0x354 }
  - { offset: 0x14C43F, size: 0x8, addend: 0x0, symName: __ZN4core10intrinsics11rotate_left17ha1e5803bcc0ab87aE, symObjAddr: 0xD3C, symBinAddr: 0x3F180, symSize: 0x54 }
  - { offset: 0x14C526, size: 0x8, addend: 0x0, symName: '__ZN53_$LT$T$u20$as$u20$core..convert..TryInto$LT$U$GT$$GT$8try_into17h9098f3f83e328f3bE', symObjAddr: 0x38BC, symBinAddr: 0x3F9E8, symSize: 0x20 }
  - { offset: 0x14C590, size: 0x8, addend: 0x0, symName: __ZN4core4char7methods25encode_utf8_raw_unchecked17h01ebdd38786e6329E, symObjAddr: 0x15F8, symBinAddr: 0x3F5D4, symSize: 0x188 }
  - { offset: 0x14CD52, size: 0x8, addend: 0x0, symName: '__ZN95_$LT$pyo3..impl_..pyfunction..PyFunctionDef$u20$as$u20$pyo3..impl_..pymodule..PyAddToModule$GT$13add_to_module17h4e8a5f5e7b01e020E', symObjAddr: 0x4C8C, symBinAddr: 0x3FA28, symSize: 0xD4 }
  - { offset: 0x14CE11, size: 0x8, addend: 0x0, symName: __ZN4pyo35impl_10pyfunction20create_py_c_function17h633579f60b490740E, symObjAddr: 0x1AA4, symBinAddr: 0x3F840, symSize: 0x1A8 }
  - { offset: 0x14D098, size: 0x8, addend: 0x0, symName: '__ZN71_$LT$pyo3..impl_..panic..PanicTrap$u20$as$u20$core..ops..drop..Drop$GT$4drop17h53fade58411bdef7E', symObjAddr: 0x3A44, symBinAddr: 0x3FA08, symSize: 0x20 }
  - { offset: 0x14E21A, size: 0x8, addend: 0x0, symName: '__ZN9once_cell3imp17OnceCell$LT$T$GT$10initialize28_$u7b$$u7b$closure$u7d$$u7d$17h4f87df48cb490480E', symObjAddr: 0x551C, symBinAddr: 0x3FAFC, symSize: 0x248 }
  - { offset: 0x14E2CE, size: 0x8, addend: 0x0, symName: '__ZN9once_cell3imp17OnceCell$LT$T$GT$10initialize28_$u7b$$u7b$closure$u7d$$u7d$17h6330a1b7ebf56feaE', symObjAddr: 0x5764, symBinAddr: 0x3FD44, symSize: 0x180 }
  - { offset: 0x14E369, size: 0x8, addend: 0x0, symName: '__ZN9once_cell3imp17OnceCell$LT$T$GT$10initialize28_$u7b$$u7b$closure$u7d$$u7d$17h91209e2e1c7f2eaeE', symObjAddr: 0x58E4, symBinAddr: 0x3FEC4, symSize: 0x1A8 }
  - { offset: 0x14E407, size: 0x8, addend: 0x0, symName: '__ZN9once_cell3imp17OnceCell$LT$T$GT$10initialize28_$u7b$$u7b$closure$u7d$$u7d$17hb7a26c88c25af7e1E', symObjAddr: 0x5CD4, symBinAddr: 0x4006C, symSize: 0x250 }
  - { offset: 0x14E853, size: 0x8, addend: 0x0, symName: __ZN4core3fmt8builders11DebugStruct10field_with17h6b88cdf9afd1cc1cE, symObjAddr: 0xE44, symBinAddr: 0x3F1D4, symSize: 0xAC }
  - { offset: 0x14E9A2, size: 0x8, addend: 0x0, symName: __ZN4pyo35impl_10pyfunction13PyFunctionDef20create_py_c_function17h775fa7f6917af852E, symObjAddr: 0x1A34, symBinAddr: 0x3F80C, symSize: 0x34 }
  - { offset: 0x14EA28, size: 0x8, addend: 0x0, symName: '__ZN9once_cell3imp17OnceCell$LT$T$GT$10initialize17hb6202d8605679d16E', symObjAddr: 0x4F00, symBinAddr: 0x82A6C, symSize: 0xAC }
  - { offset: 0x14EB0F, size: 0x8, addend: 0x0, symName: '__ZN9once_cell3imp17OnceCell$LT$T$GT$10initialize17hc0cede0a193c8ba1E', symObjAddr: 0x5080, symBinAddr: 0x82B18, symSize: 0xD4 }
  - { offset: 0x14EBC8, size: 0x8, addend: 0x0, symName: '__ZN9once_cell3imp17OnceCell$LT$T$GT$10initialize17hc506f12a2632f6ffE', symObjAddr: 0x5154, symBinAddr: 0x82BEC, symSize: 0xA8 }
  - { offset: 0x14ECAE, size: 0x8, addend: 0x0, symName: '__ZN9once_cell3imp17OnceCell$LT$T$GT$10initialize17hd429d8153a2e1b68E', symObjAddr: 0x51FC, symBinAddr: 0x82C94, symSize: 0xD0 }
  - { offset: 0x14ED73, size: 0x8, addend: 0x0, symName: '__ZN9once_cell3imp17OnceCell$LT$T$GT$13get_unchecked17h2b59759aa60eb20fE', symObjAddr: 0x616C, symBinAddr: 0x402BC, symSize: 0xC0 }
  - { offset: 0x14EDC8, size: 0x8, addend: 0x0, symName: '__ZN9once_cell3imp17OnceCell$LT$T$GT$13get_unchecked17h9efd5261a27d41b4E', symObjAddr: 0x62EC, symBinAddr: 0x4037C, symSize: 0xC0 }
  - { offset: 0x14EE1D, size: 0x8, addend: 0x0, symName: '__ZN9once_cell3imp17OnceCell$LT$T$GT$13get_unchecked17hf74abb7531002195E', symObjAddr: 0x646C, symBinAddr: 0x4043C, symSize: 0xC0 }
  - { offset: 0x14EE65, size: 0x8, addend: 0x0, symName: '__ZN9once_cell3imp17OnceCell$LT$T$GT$14is_initialized17h318fe70a918ebe40E', symObjAddr: 0x658C, symBinAddr: 0x404FC, symSize: 0x30 }
  - { offset: 0x14EE90, size: 0x8, addend: 0x0, symName: '__ZN9once_cell3imp17OnceCell$LT$T$GT$14is_initialized17h56ff38cdb9ba4869E', symObjAddr: 0x65BC, symBinAddr: 0x4052C, symSize: 0x30 }
  - { offset: 0x14EEBB, size: 0x8, addend: 0x0, symName: '__ZN9once_cell3imp17OnceCell$LT$T$GT$14is_initialized17h9d11cd2efcef5e94E', symObjAddr: 0x65EC, symBinAddr: 0x4055C, symSize: 0x30 }
  - { offset: 0x14EFDF, size: 0x8, addend: 0x0, symName: '__ZN127_$LT$pyo3..instance..Bound$LT$pyo3..types..traceback..PyTraceback$GT$$u20$as$u20$pyo3..types..traceback..PyTracebackMethods$GT$6format8INTERNED17h1669a23b86eca797E', symObjAddr: 0x3628, symBinAddr: 0xD0B20, symSize: 0x0 }
  - { offset: 0x14EFFA, size: 0x8, addend: 0x0, symName: '__ZN127_$LT$pyo3..instance..Bound$LT$pyo3..types..traceback..PyTraceback$GT$$u20$as$u20$pyo3..types..traceback..PyTracebackMethods$GT$6format8INTERNED17haca784ae3748dfd5E', symObjAddr: 0x3648, symBinAddr: 0xD0B40, symSize: 0x0 }
  - { offset: 0x14F015, size: 0x8, addend: 0x0, symName: '__ZN127_$LT$pyo3..instance..Bound$LT$pyo3..types..traceback..PyTraceback$GT$$u20$as$u20$pyo3..types..traceback..PyTracebackMethods$GT$6format8INTERNED17hf6cb8b861df70a54E', symObjAddr: 0x3668, symBinAddr: 0xD0B60, symSize: 0x0 }
  - { offset: 0x151F37, size: 0x8, addend: 0x0, symName: __ZN8pyo3_ffi8pyerrors22PyExceptionClass_Check17h4b75aa3a9ff16a79E, symObjAddr: 0x70C, symBinAddr: 0x4058C, symSize: 0x60 }
  - { offset: 0x151F63, size: 0x8, addend: 0x0, symName: __ZN8pyo3_ffi8pyerrors25PyExceptionInstance_Check17h741f28b8acbf10beE, symObjAddr: 0x76C, symBinAddr: 0x405EC, symSize: 0x30 }
  - { offset: 0x152E64, size: 0x8, addend: 0x0, symName: '__ZN9hashbrown3raw13RawTableInner14prepare_resize28_$u7b$$u7b$closure$u7d$$u7d$17habc9251494a935dbE', symObjAddr: 0xBC8, symBinAddr: 0x4083C, symSize: 0xB0 }
  - { offset: 0x153018, size: 0x8, addend: 0x0, symName: '__ZN9hashbrown3raw13RawTableInner15rehash_in_place28_$u7b$$u7b$closure$u7d$$u7d$17h8dc73fe746744df7E', symObjAddr: 0x1094, symBinAddr: 0x408EC, symSize: 0x1F8 }
  - { offset: 0x153486, size: 0x8, addend: 0x0, symName: __ZN9hashbrown3raw19capacity_to_buckets17h977b8b045909c897E, symObjAddr: 0x1D28, symBinAddr: 0x40FB0, symSize: 0x2C8 }
  - { offset: 0x153BFB, size: 0x8, addend: 0x0, symName: __ZN9hashbrown3raw11TableLayout20calculate_layout_for17hbfef964d8e274f1dE, symObjAddr: 0x978, symBinAddr: 0x4061C, symSize: 0x220 }
  - { offset: 0x154232, size: 0x8, addend: 0x0, symName: __ZN9hashbrown3raw13RawTableInner17new_uninitialized17h04cb0fd4b116f1bdE, symObjAddr: 0x1538, symBinAddr: 0x40AE4, symSize: 0x2AC }
  - { offset: 0x15455F, size: 0x8, addend: 0x0, symName: __ZN9hashbrown3raw13RawTableInner22fallible_with_capacity17hc9f0469cc852b293E, symObjAddr: 0x17E4, symBinAddr: 0x40D90, symSize: 0x220 }
  - { offset: 0x1553CD, size: 0x8, addend: 0x0, symName: '__ZN4pyo34sync8Interned3get28_$u7b$$u7b$closure$u7d$$u7d$17h0c49b8086777b6f4E', symObjAddr: 0x7AE8, symBinAddr: 0x43E60, symSize: 0x34 }
  - { offset: 0x1558A3, size: 0x8, addend: 0x0, symName: '__ZN84_$LT$std..sys..sync..once_box..OnceBox$LT$T$GT$$u20$as$u20$core..ops..drop..Drop$GT$4drop17hdd37bc02b3629f68E', symObjAddr: 0x886C, symBinAddr: 0x43F7C, symSize: 0x74 }
  - { offset: 0x155A01, size: 0x8, addend: 0x0, symName: '__ZN66_$LT$std..thread..id..ThreadId$u20$as$u20$core..cmp..PartialEq$GT$2eq17hb3f2b5385ffab9b5E', symObjAddr: 0x87B0, symBinAddr: 0x43F50, symSize: 0x2C }
  - { offset: 0x155CD3, size: 0x8, addend: 0x0, symName: __ZN4core4sync6atomic11atomic_load17h08d7bca8c02f8afcE, symObjAddr: 0x57B4, symBinAddr: 0x4312C, symSize: 0xF8 }
  - { offset: 0x155D19, size: 0x8, addend: 0x0, symName: __ZN4core4sync6atomic11atomic_load17hc3dbf62c1b6e1fdbE, symObjAddr: 0x58AC, symBinAddr: 0x43224, symSize: 0xF8 }
  - { offset: 0x155D5F, size: 0x8, addend: 0x0, symName: __ZN4core4sync6atomic23atomic_compare_exchange17h580ecd512da38c04E, symObjAddr: 0x5F70, symBinAddr: 0x4331C, symSize: 0x4B4 }
  - { offset: 0x155DFA, size: 0x8, addend: 0x0, symName: __ZN4core4sync6atomic23atomic_compare_exchange17h68ce96c83f19000aE, symObjAddr: 0x6424, symBinAddr: 0x437D0, symSize: 0x4B4 }
  - { offset: 0x157A3B, size: 0x8, addend: 0x0, symName: '__ZN4core3ptr7mut_ptr31_$LT$impl$u20$$BP$mut$u20$T$GT$6offset18precondition_check17hd31827afb1a7605aE', symObjAddr: 0x4BB4, symBinAddr: 0x42C20, symSize: 0xC4 }
  - { offset: 0x157BFA, size: 0x8, addend: 0x0, symName: '__ZN4core3ptr101drop_in_place$LT$core..result..Result$LT$alloc..borrow..Cow$LT$str$GT$$C$$RF$pyo3..err..PyErr$GT$$GT$17hf663366a85068acbE', symObjAddr: 0x2108, symBinAddr: 0x41BFC, symSize: 0x4C }
  - { offset: 0x157C29, size: 0x8, addend: 0x0, symName: '__ZN4core3ptr101drop_in_place$LT$std..sys..sync..once_box..OnceBox$LT$std..sys..pal..unix..sync..mutex..Mutex$GT$$GT$17hdc6244740b5c5433E', symObjAddr: 0x21C0, symBinAddr: 0x41C48, symSize: 0x24 }
  - { offset: 0x157C58, size: 0x8, addend: 0x0, symName: '__ZN4core3ptr104drop_in_place$LT$core..option..Option$LT$pyo3..instance..Py$LT$pyo3..types..module..PyModule$GT$$GT$$GT$17hceca4e53c0bcf4ceE', symObjAddr: 0x2250, symBinAddr: 0x41C6C, symSize: 0x44 }
  - { offset: 0x157C87, size: 0x8, addend: 0x0, symName: '__ZN4core3ptr104drop_in_place$LT$core..option..Option$LT$pyo3..instance..Py$LT$pyo3..types..string..PyString$GT$$GT$$GT$17hd15cf703ef301fa3E', symObjAddr: 0x2294, symBinAddr: 0x41CB0, symSize: 0x44 }
  - { offset: 0x157CB6, size: 0x8, addend: 0x0, symName: '__ZN4core3ptr106drop_in_place$LT$alloc..vec..Vec$LT$core..ptr..non_null..NonNull$LT$pyo3_ffi..object..PyObject$GT$$GT$$GT$17h4620de12cb8890b5E', symObjAddr: 0x22FC, symBinAddr: 0x41CF4, symSize: 0x5C }
  - { offset: 0x157CE5, size: 0x8, addend: 0x0, symName: '__ZN4core3ptr106drop_in_place$LT$core..option..Option$LT$pyo3..instance..Py$LT$pyo3..types..typeobject..PyType$GT$$GT$$GT$17he8c4ac9b10f747eaE', symObjAddr: 0x2358, symBinAddr: 0x41D50, symSize: 0x44 }
  - { offset: 0x157D14, size: 0x8, addend: 0x0, symName: '__ZN4core3ptr107drop_in_place$LT$core..option..Option$LT$pyo3..instance..Bound$LT$pyo3..types..string..PyString$GT$$GT$$GT$17hd49f95bf345a3197E', symObjAddr: 0x23C0, symBinAddr: 0x41D94, symSize: 0x44 }
  - { offset: 0x157D43, size: 0x8, addend: 0x0, symName: '__ZN4core3ptr107drop_in_place$LT$core..pin..Pin$LT$alloc..boxed..Box$LT$std..sys..pal..unix..sync..mutex..Mutex$GT$$GT$$GT$17h4f3795b173a0dcf0E', symObjAddr: 0x2404, symBinAddr: 0x41DD8, symSize: 0x24 }
  - { offset: 0x157D72, size: 0x8, addend: 0x0, symName: '__ZN4core3ptr108drop_in_place$LT$core..option..Option$LT$pyo3..instance..Py$LT$pyo3..exceptions..PyBaseException$GT$$GT$$GT$17h42e6d74b27f808b3E', symObjAddr: 0x2468, symBinAddr: 0x41DFC, symSize: 0x44 }
  - { offset: 0x157DA1, size: 0x8, addend: 0x0, symName: '__ZN4core3ptr109drop_in_place$LT$core..iter..adapters..enumerate..Enumerate$LT$pyo3..types..tuple..BoundTupleIterator$GT$$GT$17hfb48656e651619a5E', symObjAddr: 0x2538, symBinAddr: 0x41E40, symSize: 0x24 }
  - { offset: 0x157DD0, size: 0x8, addend: 0x0, symName: '__ZN4core3ptr113drop_in_place$LT$alloc..raw_vec..RawVec$LT$core..ptr..non_null..NonNull$LT$pyo3_ffi..object..PyObject$GT$$GT$$GT$17h2f19eecc9039417eE', symObjAddr: 0x267C, symBinAddr: 0x41E64, symSize: 0x24 }
  - { offset: 0x157DFF, size: 0x8, addend: 0x0, symName: '__ZN4core3ptr113drop_in_place$LT$std..sync..poison..mutex..Mutex$LT$core..option..Option$LT$std..thread..id..ThreadId$GT$$GT$$GT$17h27d47383f31a4085E', symObjAddr: 0x26C4, symBinAddr: 0x41E88, symSize: 0x24 }
  - { offset: 0x157E2E, size: 0x8, addend: 0x0, symName: '__ZN4core3ptr116drop_in_place$LT$core..cell..UnsafeCell$LT$core..option..Option$LT$pyo3..err..err_state..PyErrStateInner$GT$$GT$$GT$17h89f5685598f80bccE', symObjAddr: 0x2730, symBinAddr: 0x41EAC, symSize: 0x24 }
  - { offset: 0x157E5D, size: 0x8, addend: 0x0, symName: '__ZN4core3ptr118drop_in_place$LT$core..array..iter..IntoIter$LT$pyo3..instance..Bound$LT$pyo3..types..any..PyAny$GT$$C$1_usize$GT$$GT$17hc9b0a9234b21b3afE', symObjAddr: 0x2924, symBinAddr: 0x41ED0, symSize: 0x24 }
  - { offset: 0x157E8C, size: 0x8, addend: 0x0, symName: '__ZN4core3ptr118drop_in_place$LT$std..sync..poison..mutex..MutexGuard$LT$core..option..Option$LT$std..thread..id..ThreadId$GT$$GT$$GT$17hb2c34d2a65b505f9E', symObjAddr: 0x296C, symBinAddr: 0x41EF4, symSize: 0x24 }
  - { offset: 0x157EBB, size: 0x8, addend: 0x0, symName: '__ZN4core3ptr120drop_in_place$LT$core..result..Result$LT$pyo3..instance..Bound$LT$pyo3..types..any..PyAny$GT$$C$pyo3..err..PyErr$GT$$GT$17h0ad45e63d36ef651E', symObjAddr: 0x29B4, symBinAddr: 0x41F18, symSize: 0x50 }
  - { offset: 0x157EEA, size: 0x8, addend: 0x0, symName: '__ZN4core3ptr122drop_in_place$LT$alloc..vec..into_iter..IntoIter$LT$core..ptr..non_null..NonNull$LT$pyo3_ffi..object..PyObject$GT$$GT$$GT$17hf7faf57a36f7308fE', symObjAddr: 0x2A68, symBinAddr: 0x41F68, symSize: 0x24 }
  - { offset: 0x157F19, size: 0x8, addend: 0x0, symName: '__ZN4core3ptr126drop_in_place$LT$core..result..Result$LT$pyo3..instance..Bound$LT$pyo3..types..string..PyString$GT$$C$pyo3..err..PyErr$GT$$GT$17hfc6341fc214a281eE', symObjAddr: 0x2B10, symBinAddr: 0x41F8C, symSize: 0x50 }
  - { offset: 0x157F48, size: 0x8, addend: 0x0, symName: '__ZN4core3ptr132drop_in_place$LT$pyo3..err..PyErr..new$LT$pyo3..exceptions..PyTypeError$C$alloc..string..String$GT$..$u7b$$u7b$closure$u7d$$u7d$$GT$17hba89feca6bf9d4d9E', symObjAddr: 0x2C28, symBinAddr: 0x41FDC, symSize: 0x24 }
  - { offset: 0x157F77, size: 0x8, addend: 0x0, symName: '__ZN4core3ptr135drop_in_place$LT$core..option..Option$LT$core..pin..Pin$LT$alloc..boxed..Box$LT$std..sys..pal..unix..sync..mutex..Mutex$GT$$GT$$GT$$GT$17hddbbf1a1afb49dbdE', symObjAddr: 0x2CDC, symBinAddr: 0x42000, symSize: 0x44 }
  - { offset: 0x157FA6, size: 0x8, addend: 0x0, symName: '__ZN4core3ptr136drop_in_place$LT$pyo3..err..PyErr..new$LT$pyo3..exceptions..PyOverflowError$C$alloc..string..String$GT$..$u7b$$u7b$closure$u7d$$u7d$$GT$17h40cb1673ac738250E', symObjAddr: 0x2DB0, symBinAddr: 0x42044, symSize: 0x24 }
  - { offset: 0x157FD5, size: 0x8, addend: 0x0, symName: '__ZN4core3ptr139drop_in_place$LT$core..result..Result$LT$pyo3..instance..Borrowed$LT$pyo3..types..num..PyInt$GT$$C$pyo3..err..cast_error..CastError$GT$$GT$17h03b103942e4c8ac1E', symObjAddr: 0x2EAC, symBinAddr: 0x42068, symSize: 0x44 }
  - { offset: 0x158004, size: 0x8, addend: 0x0, symName: '__ZN4core3ptr141drop_in_place$LT$pyo3..err..PyErr..new$LT$pyo3..panic..PanicException$C$$LP$alloc..string..String$C$$RP$$GT$..$u7b$$u7b$closure$u7d$$u7d$$GT$17haab38e4207eef5eeE', symObjAddr: 0x2FC8, symBinAddr: 0x420AC, symSize: 0x24 }
  - { offset: 0x158033, size: 0x8, addend: 0x0, symName: '__ZN4core3ptr144drop_in_place$LT$core..result..Result$LT$$RF$pyo3..instance..Bound$LT$pyo3..types..tuple..PyTuple$GT$$C$pyo3..err..cast_error..CastError$GT$$GT$17h31a095c0b1a420a7E', symObjAddr: 0x3098, symBinAddr: 0x420D0, symSize: 0x44 }
  - { offset: 0x158062, size: 0x8, addend: 0x0, symName: '__ZN4core3ptr148drop_in_place$LT$core..option..Option$LT$core..result..Result$LT$pyo3..instance..Bound$LT$pyo3..types..any..PyAny$GT$$C$pyo3..err..PyErr$GT$$GT$$GT$17h7a117f5fc51a0465E', symObjAddr: 0x31CC, symBinAddr: 0x42114, symSize: 0x44 }
  - { offset: 0x158091, size: 0x8, addend: 0x0, symName: '__ZN4core3ptr148drop_in_place$LT$core..result..Result$LT$$RF$pyo3..instance..Bound$LT$pyo3..types..typeobject..PyType$GT$$C$pyo3..err..cast_error..CastError$GT$$GT$17hbd5cc3a04301cb3aE', symObjAddr: 0x3210, symBinAddr: 0x42158, symSize: 0x44 }
  - { offset: 0x1580C0, size: 0x8, addend: 0x0, symName: '__ZN4core3ptr150drop_in_place$LT$std..sync..poison..mutex..MutexGuard$LT$alloc..vec..Vec$LT$core..ptr..non_null..NonNull$LT$pyo3_ffi..object..PyObject$GT$$GT$$GT$$GT$17hcef103bb37064333E', symObjAddr: 0x3278, symBinAddr: 0x4219C, symSize: 0x24 }
  - { offset: 0x1580EF, size: 0x8, addend: 0x0, symName: '__ZN4core3ptr152drop_in_place$LT$pyo3..err..PyErr..new$LT$pyo3..exceptions..PyTypeError$C$pyo3..err..cast_error..CastErrorArguments$GT$..$u7b$$u7b$closure$u7d$$u7d$$GT$17ha2c1011aca4f8721E', symObjAddr: 0x3304, symBinAddr: 0x421C0, symSize: 0x24 }
  - { offset: 0x15811E, size: 0x8, addend: 0x0, symName: '__ZN4core3ptr155drop_in_place$LT$pyo3..err..err_state..PyErrState..lazy_arguments$LT$pyo3..instance..Py$LT$pyo3..types..any..PyAny$GT$$GT$..$u7b$$u7b$closure$u7d$$u7d$$GT$17h08ea251b45a28fd5E', symObjAddr: 0x334C, symBinAddr: 0x421E4, symSize: 0x60 }
  - { offset: 0x15814D, size: 0x8, addend: 0x0, symName: '__ZN4core3ptr156drop_in_place$LT$std..sync..poison..PoisonError$LT$std..sync..poison..mutex..MutexGuard$LT$core..option..Option$LT$std..thread..id..ThreadId$GT$$GT$$GT$$GT$17h028a59e9670cc7eaE', symObjAddr: 0x33AC, symBinAddr: 0x42244, symSize: 0x24 }
  - { offset: 0x15817C, size: 0x8, addend: 0x0, symName: '__ZN4core3ptr157drop_in_place$LT$pyo3..err..err_state..PyErrState..make_normalized..$u7b$$u7b$closure$u7d$$u7d$..$u7b$$u7b$closure$u7d$$u7d$..$u7b$$u7b$closure$u7d$$u7d$$GT$17ha949299ad191f64dE', symObjAddr: 0x33D0, symBinAddr: 0x42268, symSize: 0x24 }
  - { offset: 0x1581AB, size: 0x8, addend: 0x0, symName: '__ZN4core3ptr168drop_in_place$LT$core..iter..adapters..enumerate..Enumerate$LT$core..array..iter..IntoIter$LT$pyo3..instance..Bound$LT$pyo3..types..any..PyAny$GT$$C$1_usize$GT$$GT$$GT$17h410a1c04328d9325E', symObjAddr: 0x343C, symBinAddr: 0x4228C, symSize: 0x24 }
  - { offset: 0x1581DA, size: 0x8, addend: 0x0, symName: '__ZN4core3ptr181drop_in_place$LT$hashbrown..scopeguard..ScopeGuard$LT$$RF$mut$u20$hashbrown..raw..RawTableInner$C$hashbrown..raw..RawTableInner..rehash_in_place..$u7b$$u7b$closure$u7d$$u7d$$GT$$GT$17h05302e0e0583199cE', symObjAddr: 0x3484, symBinAddr: 0x422B0, symSize: 0x24 }
  - { offset: 0x158209, size: 0x8, addend: 0x0, symName: '__ZN4core3ptr188drop_in_place$LT$std..sync..poison..PoisonError$LT$std..sync..poison..mutex..MutexGuard$LT$alloc..vec..Vec$LT$core..ptr..non_null..NonNull$LT$pyo3_ffi..object..PyObject$GT$$GT$$GT$$GT$$GT$17hab8acb3f9aa96251E', symObjAddr: 0x34A8, symBinAddr: 0x422D4, symSize: 0x24 }
  - { offset: 0x158238, size: 0x8, addend: 0x0, symName: '__ZN4core3ptr192drop_in_place$LT$core..array..iter..iter_inner..PolymorphicIter$LT$$u5b$core..mem..maybe_uninit..MaybeUninit$LT$pyo3..instance..Bound$LT$pyo3..types..any..PyAny$GT$$GT$$u3b$$u20$1$u5d$$GT$$GT$17h92e7f4a3da3e1a94E', symObjAddr: 0x34CC, symBinAddr: 0x422F8, symSize: 0x24 }
  - { offset: 0x158267, size: 0x8, addend: 0x0, symName: '__ZN4core3ptr196drop_in_place$LT$hashbrown..scopeguard..ScopeGuard$LT$hashbrown..raw..RawTableInner$C$hashbrown..raw..RawTableInner..prepare_resize$LT$alloc..alloc..Global$GT$..$u7b$$u7b$closure$u7d$$u7d$$GT$$GT$17hf18e9d4826c8c1efE', symObjAddr: 0x3514, symBinAddr: 0x4231C, symSize: 0x24 }
  - { offset: 0x158296, size: 0x8, addend: 0x0, symName: '__ZN4core3ptr216drop_in_place$LT$$LT$alloc..vec..into_iter..IntoIter$LT$T$C$A$GT$$u20$as$u20$core..ops..drop..Drop$GT$..drop..DropGuard$LT$core..ptr..non_null..NonNull$LT$pyo3_ffi..object..PyObject$GT$$C$alloc..alloc..Global$GT$$GT$17hb80e38476eb88ceeE', symObjAddr: 0x35EC, symBinAddr: 0x42340, symSize: 0x24 }
  - { offset: 0x1582C5, size: 0x8, addend: 0x0, symName: '__ZN4core3ptr219drop_in_place$LT$pyo3..sync..once_lock..init_once_cell_py_attached$LT$pyo3..sync..Interned..get..$u7b$$u7b$closure$u7d$$u7d$$C$pyo3..instance..Py$LT$pyo3..types..string..PyString$GT$$GT$..$u7b$$u7b$closure$u7d$$u7d$$GT$17hc7c354a9bfab9898E', symObjAddr: 0x3610, symBinAddr: 0x42364, symSize: 0x24 }
  - { offset: 0x1582F4, size: 0x8, addend: 0x0, symName: '__ZN4core3ptr236drop_in_place$LT$alloc..boxed..Box$LT$dyn$u20$core..ops..function..FnOnce$LT$$LP$pyo3..marker..Python$C$$RP$$GT$$u2b$Output$u20$$u3d$$u20$pyo3..err..err_state..PyErrStateLazyFnOutput$u2b$core..marker..Send$u2b$core..marker..Sync$GT$$GT$17hb5fde93cd1e846d7E', symObjAddr: 0x36B4, symBinAddr: 0x42388, symSize: 0x80 }
  - { offset: 0x158323, size: 0x8, addend: 0x0, symName: '__ZN4core3ptr240drop_in_place$LT$pyo3..sync..once_lock..init_once_cell_py_attached$LT$pyo3..panic..PanicException..type_object_raw..$u7b$$u7b$closure$u7d$$u7d$$C$pyo3..instance..Py$LT$pyo3..types..typeobject..PyType$GT$$GT$..$u7b$$u7b$closure$u7d$$u7d$$GT$17hbd243995b5c0b545E', symObjAddr: 0x3758, symBinAddr: 0x42408, symSize: 0x24 }
  - { offset: 0x158352, size: 0x8, addend: 0x0, symName: '__ZN4core3ptr262drop_in_place$LT$pyo3..sync..once_lock..try_init_once_cell_py_attached$LT$pyo3..impl_..pymodule..ModuleDef..make_module..$u7b$$u7b$closure$u7d$$u7d$$C$pyo3..instance..Py$LT$pyo3..types..module..PyModule$GT$$C$pyo3..err..PyErr$GT$..$u7b$$u7b$closure$u7d$$u7d$$GT$17h3fba3d2bac475785E', symObjAddr: 0x38B0, symBinAddr: 0x4242C, symSize: 0x24 }
  - { offset: 0x158381, size: 0x8, addend: 0x0, symName: '__ZN4core3ptr290drop_in_place$LT$core..option..Option$LT$pyo3..sync..once_lock..try_init_once_cell_py_attached$LT$pyo3..impl_..pymodule..ModuleDef..make_module..$u7b$$u7b$closure$u7d$$u7d$$C$pyo3..instance..Py$LT$pyo3..types..module..PyModule$GT$$C$pyo3..err..PyErr$GT$..$u7b$$u7b$closure$u7d$$u7d$$GT$$GT$17h614556d17684b613E', symObjAddr: 0x3940, symBinAddr: 0x42450, symSize: 0x44 }
  - { offset: 0x1583B0, size: 0x8, addend: 0x0, symName: '__ZN4core3ptr325drop_in_place$LT$pyo3..sync..once_lock..try_init_once_cell_py_attached$LT$pyo3..sync..once_lock..PyOnceLock$LT$pyo3..instance..Py$LT$pyo3..types..typeobject..PyType$GT$$GT$..import..$u7b$$u7b$closure$u7d$$u7d$$C$pyo3..instance..Py$LT$pyo3..types..typeobject..PyType$GT$$C$pyo3..err..PyErr$GT$..$u7b$$u7b$closure$u7d$$u7d$$GT$17hacadb25e20f99c75E', symObjAddr: 0x3A34, symBinAddr: 0x42494, symSize: 0x24 }
  - { offset: 0x1583DF, size: 0x8, addend: 0x0, symName: '__ZN4core3ptr353drop_in_place$LT$core..option..Option$LT$pyo3..sync..once_lock..try_init_once_cell_py_attached$LT$pyo3..sync..once_lock..PyOnceLock$LT$pyo3..instance..Py$LT$pyo3..types..typeobject..PyType$GT$$GT$..import..$u7b$$u7b$closure$u7d$$u7d$$C$pyo3..instance..Py$LT$pyo3..types..typeobject..PyType$GT$$C$pyo3..err..PyErr$GT$..$u7b$$u7b$closure$u7d$$u7d$$GT$$GT$17h9a53654a7b74c20bE', symObjAddr: 0x3AE0, symBinAddr: 0x424B8, symSize: 0x44 }
  - { offset: 0x15840E, size: 0x8, addend: 0x0, symName: '__ZN4core3ptr357drop_in_place$LT$once_cell..sync..OnceCell$LT$pyo3..instance..Py$LT$pyo3..types..string..PyString$GT$$GT$..get_or_init$LT$pyo3..sync..once_lock..init_once_cell_py_attached$LT$pyo3..sync..Interned..get..$u7b$$u7b$closure$u7d$$u7d$$C$pyo3..instance..Py$LT$pyo3..types..string..PyString$GT$$GT$..$u7b$$u7b$closure$u7d$$u7d$$GT$..$u7b$$u7b$closure$u7d$$u7d$$GT$17h830355801b5b46bbE', symObjAddr: 0x3B24, symBinAddr: 0x424FC, symSize: 0x24 }
  - { offset: 0x15843D, size: 0x8, addend: 0x0, symName: '__ZN4core3ptr37drop_in_place$LT$pyo3..err..PyErr$GT$17h9b19a06b76f9baebE', symObjAddr: 0x3B6C, symBinAddr: 0x42520, symSize: 0x24 }
  - { offset: 0x15846C, size: 0x8, addend: 0x0, symName: '__ZN4core3ptr380drop_in_place$LT$once_cell..sync..OnceCell$LT$pyo3..instance..Py$LT$pyo3..types..typeobject..PyType$GT$$GT$..get_or_init$LT$pyo3..sync..once_lock..init_once_cell_py_attached$LT$pyo3..panic..PanicException..type_object_raw..$u7b$$u7b$closure$u7d$$u7d$$C$pyo3..instance..Py$LT$pyo3..types..typeobject..PyType$GT$$GT$..$u7b$$u7b$closure$u7d$$u7d$$GT$..$u7b$$u7b$closure$u7d$$u7d$$GT$17h2dd6ddc57539c7e3E', symObjAddr: 0x3B90, symBinAddr: 0x42544, symSize: 0x24 }
  - { offset: 0x15849B, size: 0x8, addend: 0x0, symName: '__ZN4core3ptr385drop_in_place$LT$core..option..Option$LT$once_cell..sync..OnceCell$LT$pyo3..instance..Py$LT$pyo3..types..string..PyString$GT$$GT$..get_or_init$LT$pyo3..sync..once_lock..init_once_cell_py_attached$LT$pyo3..sync..Interned..get..$u7b$$u7b$closure$u7d$$u7d$$C$pyo3..instance..Py$LT$pyo3..types..string..PyString$GT$$GT$..$u7b$$u7b$closure$u7d$$u7d$$GT$..$u7b$$u7b$closure$u7d$$u7d$$GT$$GT$17he984eeeeec5103caE', symObjAddr: 0x3BB4, symBinAddr: 0x42568, symSize: 0x44 }
  - { offset: 0x1584CA, size: 0x8, addend: 0x0, symName: '__ZN4core3ptr408drop_in_place$LT$core..option..Option$LT$once_cell..sync..OnceCell$LT$pyo3..instance..Py$LT$pyo3..types..typeobject..PyType$GT$$GT$..get_or_init$LT$pyo3..sync..once_lock..init_once_cell_py_attached$LT$pyo3..panic..PanicException..type_object_raw..$u7b$$u7b$closure$u7d$$u7d$$C$pyo3..instance..Py$LT$pyo3..types..typeobject..PyType$GT$$GT$..$u7b$$u7b$closure$u7d$$u7d$$GT$..$u7b$$u7b$closure$u7d$$u7d$$GT$$GT$17h65a44fd1ae1f2f4bE', symObjAddr: 0x3BF8, symBinAddr: 0x425AC, symSize: 0x44 }
  - { offset: 0x1584F9, size: 0x8, addend: 0x0, symName: '__ZN4core3ptr42drop_in_place$LT$alloc..string..String$GT$17h59e41794c9ea5ad2E', symObjAddr: 0x3C84, symBinAddr: 0x425F0, symSize: 0x24 }
  - { offset: 0x158528, size: 0x8, addend: 0x0, symName: '__ZN4core3ptr50drop_in_place$LT$alloc..borrow..Cow$LT$str$GT$$GT$17hbb4fc2014be7231cE', symObjAddr: 0x3E00, symBinAddr: 0x42614, symSize: 0x48 }
  - { offset: 0x158557, size: 0x8, addend: 0x0, symName: '__ZN4core3ptr50drop_in_place$LT$pyo3..impl_..panic..PanicTrap$GT$17h6cb18362d624afc5E', symObjAddr: 0x3E48, symBinAddr: 0x4265C, symSize: 0x24 }
  - { offset: 0x158586, size: 0x8, addend: 0x0, symName: '__ZN4core3ptr51drop_in_place$LT$alloc..vec..Vec$LT$$RF$str$GT$$GT$17hf118a0677d664f32E', symObjAddr: 0x3E6C, symBinAddr: 0x42680, symSize: 0x5C }
  - { offset: 0x1585B5, size: 0x8, addend: 0x0, symName: '__ZN4core3ptr53drop_in_place$LT$$LP$alloc..string..String$C$$RP$$GT$17h5de39cfff5d5e7ceE', symObjAddr: 0x3EC8, symBinAddr: 0x426DC, symSize: 0x24 }
  - { offset: 0x1585E4, size: 0x8, addend: 0x0, symName: '__ZN4core3ptr53drop_in_place$LT$pyo3..err..cast_error..CastError$GT$17he5a000030c235b10E', symObjAddr: 0x3EEC, symBinAddr: 0x42700, symSize: 0x24 }
  - { offset: 0x158613, size: 0x8, addend: 0x0, symName: '__ZN4core3ptr53drop_in_place$LT$pyo3..err..err_state..PyErrState$GT$17h477350a8c1e0ac05E', symObjAddr: 0x3F10, symBinAddr: 0x42724, symSize: 0x64 }
  - { offset: 0x158642, size: 0x8, addend: 0x0, symName: '__ZN4core3ptr55drop_in_place$LT$pyo3..internal..state..AttachGuard$GT$17h29f649d581e08bdbE', symObjAddr: 0x3F98, symBinAddr: 0x42788, symSize: 0x60 }
  - { offset: 0x158671, size: 0x8, addend: 0x0, symName: '__ZN4core3ptr57drop_in_place$LT$pyo3..internal..state..SuspendAttach$GT$17h5f7db75e09ca70c4E', symObjAddr: 0x4040, symBinAddr: 0x427E8, symSize: 0x24 }
  - { offset: 0x1586A0, size: 0x8, addend: 0x0, symName: '__ZN4core3ptr58drop_in_place$LT$alloc..raw_vec..RawVec$LT$$RF$str$GT$$GT$17hcef525c1d8c0a477E', symObjAddr: 0x40B4, symBinAddr: 0x4280C, symSize: 0x24 }
  - { offset: 0x1586CF, size: 0x8, addend: 0x0, symName: '__ZN4core3ptr58drop_in_place$LT$pyo3..err..err_state..PyErrStateInner$GT$17h8fb9d932fbc1acadE', symObjAddr: 0x40D8, symBinAddr: 0x42830, symSize: 0x58 }
  - { offset: 0x1586FE, size: 0x8, addend: 0x0, symName: '__ZN4core3ptr58drop_in_place$LT$std..sys..sync..mutex..pthread..Mutex$GT$17h6362b7eb037b21eaE', symObjAddr: 0x4130, symBinAddr: 0x42888, symSize: 0x5C }
  - { offset: 0x15872D, size: 0x8, addend: 0x0, symName: '__ZN4core3ptr59drop_in_place$LT$pyo3..types..tuple..BoundTupleIterator$GT$17h3bce70282b59ae82E', symObjAddr: 0x418C, symBinAddr: 0x428E4, symSize: 0x24 }
  - { offset: 0x15875C, size: 0x8, addend: 0x0, symName: '__ZN4core3ptr60drop_in_place$LT$std..sys..pal..unix..sync..mutex..Mutex$GT$17h04dd2b347feb650bE', symObjAddr: 0x41B0, symBinAddr: 0x42908, symSize: 0x24 }
  - { offset: 0x15878B, size: 0x8, addend: 0x0, symName: '__ZN4core3ptr62drop_in_place$LT$pyo3..err..cast_error..CastErrorArguments$GT$17h4729edfdb44c0851E', symObjAddr: 0x41F8, symBinAddr: 0x4292C, symSize: 0x60 }
  - { offset: 0x1587BA, size: 0x8, addend: 0x0, symName: '__ZN4core3ptr63drop_in_place$LT$pyo3..err..err_state..PyErrStateNormalized$GT$17h49e7b0d9f88b355dE', symObjAddr: 0x427C, symBinAddr: 0x4298C, symSize: 0x24 }
  - { offset: 0x1587E9, size: 0x8, addend: 0x0, symName: '__ZN4core3ptr65drop_in_place$LT$core..option..Option$LT$pyo3..err..PyErr$GT$$GT$17he9e907f67fc2f81bE', symObjAddr: 0x42A0, symBinAddr: 0x429B0, symSize: 0x40 }
  - { offset: 0x158818, size: 0x8, addend: 0x0, symName: '__ZN4core3ptr70drop_in_place$LT$core..option..Option$LT$alloc..string..String$GT$$GT$17h6311d9b950691b7fE', symObjAddr: 0x4528, symBinAddr: 0x429F0, symSize: 0x48 }
  - { offset: 0x158847, size: 0x8, addend: 0x0, symName: '__ZN4core3ptr70drop_in_place$LT$pyo3..instance..Py$LT$pyo3..types..any..PyAny$GT$$GT$17ha917628a4e85deedE', symObjAddr: 0x45CC, symBinAddr: 0x42A38, symSize: 0x24 }
  - { offset: 0x158876, size: 0x8, addend: 0x0, symName: '__ZN4core3ptr73drop_in_place$LT$pyo3..instance..Bound$LT$pyo3..types..any..PyAny$GT$$GT$17h49cca287a16d6c7aE', symObjAddr: 0x474C, symBinAddr: 0x42A5C, symSize: 0x24 }
  - { offset: 0x1588A5, size: 0x8, addend: 0x0, symName: '__ZN4core3ptr75drop_in_place$LT$core..result..Result$LT$$RF$str$C$pyo3..err..PyErr$GT$$GT$17h5d3628140defe989E', symObjAddr: 0x4814, symBinAddr: 0x42A80, symSize: 0x40 }
  - { offset: 0x1588D4, size: 0x8, addend: 0x0, symName: '__ZN4core3ptr75drop_in_place$LT$pyo3..instance..Bound$LT$pyo3..types..list..PyList$GT$$GT$17h7001f6d02e7e4ebaE', symObjAddr: 0x489C, symBinAddr: 0x42AC0, symSize: 0x24 }
  - { offset: 0x158903, size: 0x8, addend: 0x0, symName: '__ZN4core3ptr76drop_in_place$LT$core..result..Result$LT$$LP$$RP$$C$pyo3..err..PyErr$GT$$GT$17h8ecd279a278c6216E', symObjAddr: 0x48E4, symBinAddr: 0x42AE4, symSize: 0x40 }
  - { offset: 0x158932, size: 0x8, addend: 0x0, symName: '__ZN4core3ptr76drop_in_place$LT$pyo3..instance..Py$LT$pyo3..types..module..PyModule$GT$$GT$17h6ff0a33cfe6ef4b6E', symObjAddr: 0x4924, symBinAddr: 0x42B24, symSize: 0x24 }
  - { offset: 0x158961, size: 0x8, addend: 0x0, symName: '__ZN4core3ptr76drop_in_place$LT$pyo3..instance..Py$LT$pyo3..types..string..PyString$GT$$GT$17h70c303fc65e3027cE', symObjAddr: 0x4948, symBinAddr: 0x42B48, symSize: 0x24 }
  - { offset: 0x158990, size: 0x8, addend: 0x0, symName: '__ZN4core3ptr77drop_in_place$LT$pyo3..instance..Bound$LT$pyo3..types..bytes..PyBytes$GT$$GT$17hce634893f8aeec31E', symObjAddr: 0x496C, symBinAddr: 0x42B6C, symSize: 0x24 }
  - { offset: 0x1589BF, size: 0x8, addend: 0x0, symName: '__ZN4core3ptr77drop_in_place$LT$pyo3..instance..Bound$LT$pyo3..types..tuple..PyTuple$GT$$GT$17h6ba0d54d51cecf59E', symObjAddr: 0x49B4, symBinAddr: 0x42B90, symSize: 0x24 }
  - { offset: 0x1589EE, size: 0x8, addend: 0x0, symName: '__ZN4core3ptr78drop_in_place$LT$pyo3..instance..Py$LT$pyo3..types..typeobject..PyType$GT$$GT$17h7c3ae57563654549E', symObjAddr: 0x4A90, symBinAddr: 0x42BB4, symSize: 0x24 }
  - { offset: 0x158A1D, size: 0x8, addend: 0x0, symName: '__ZN4core3ptr79drop_in_place$LT$pyo3..instance..Bound$LT$pyo3..types..module..PyModule$GT$$GT$17h3b119e81fa5454beE', symObjAddr: 0x4B6C, symBinAddr: 0x42BD8, symSize: 0x24 }
  - { offset: 0x158A4C, size: 0x8, addend: 0x0, symName: '__ZN4core3ptr79drop_in_place$LT$pyo3..instance..Bound$LT$pyo3..types..string..PyString$GT$$GT$17hcc5c4f1189850736E', symObjAddr: 0x4B90, symBinAddr: 0x42BFC, symSize: 0x24 }
  - { offset: 0x158AAC, size: 0x8, addend: 0x0, symName: '__ZN4core3ptr80drop_in_place$LT$pyo3..instance..Py$LT$pyo3..exceptions..PyBaseException$GT$$GT$17hae5122aa5f03bc07E', symObjAddr: 0x4CE4, symBinAddr: 0x42CE4, symSize: 0x24 }
  - { offset: 0x158ADB, size: 0x8, addend: 0x0, symName: '__ZN4core3ptr81drop_in_place$LT$pyo3..instance..Bound$LT$pyo3..types..typeobject..PyType$GT$$GT$17hf4ebc8b6d00e2772E', symObjAddr: 0x4D50, symBinAddr: 0x42D08, symSize: 0x24 }
  - { offset: 0x158B0A, size: 0x8, addend: 0x0, symName: '__ZN4core3ptr83drop_in_place$LT$$u5b$pyo3..instance..Bound$LT$pyo3..types..any..PyAny$GT$$u5d$$GT$17hdb649b4db0b38d61E', symObjAddr: 0x4D74, symBinAddr: 0x42D2C, symSize: 0xB4 }
  - { offset: 0x158B39, size: 0x8, addend: 0x0, symName: '__ZN4core3ptr83drop_in_place$LT$pyo3..instance..Bound$LT$pyo3..exceptions..PyBaseException$GT$$GT$17h9ac83a696ff090c9E', symObjAddr: 0x4E28, symBinAddr: 0x42DE0, symSize: 0x24 }
  - { offset: 0x158B68, size: 0x8, addend: 0x0, symName: '__ZN4core3ptr83drop_in_place$LT$pyo3..instance..Bound$LT$pyo3..types..iterator..PyIterator$GT$$GT$17h7444d498deeddb16E', symObjAddr: 0x4E4C, symBinAddr: 0x42E04, symSize: 0x24 }
  - { offset: 0x158B97, size: 0x8, addend: 0x0, symName: '__ZN4core3ptr84drop_in_place$LT$pyo3..instance..Bound$LT$pyo3..types..function..PyCFunction$GT$$GT$17hffe303ca39ee2f6fE', symObjAddr: 0x4E70, symBinAddr: 0x42E28, symSize: 0x24 }
  - { offset: 0x158BC6, size: 0x8, addend: 0x0, symName: '__ZN4core3ptr85drop_in_place$LT$alloc..boxed..Box$LT$std..sys..pal..unix..sync..mutex..Mutex$GT$$GT$17h55811a1d4e06b62dE', symObjAddr: 0x4F48, symBinAddr: 0x42E4C, symSize: 0x60 }
  - { offset: 0x158BF5, size: 0x8, addend: 0x0, symName: '__ZN4core3ptr85drop_in_place$LT$pyo3..instance..Bound$LT$pyo3..types..traceback..PyTraceback$GT$$GT$17hd75f130878f7033aE', symObjAddr: 0x505C, symBinAddr: 0x42EAC, symSize: 0x24 }
  - { offset: 0x158C24, size: 0x8, addend: 0x0, symName: '__ZN4core3ptr86drop_in_place$LT$core..option..Option$LT$pyo3..err..err_state..PyErrStateInner$GT$$GT$17he3efea888d20e8a7E', symObjAddr: 0x50C8, symBinAddr: 0x42ED0, symSize: 0x40 }
  - { offset: 0x158C53, size: 0x8, addend: 0x0, symName: '__ZN4core3ptr91drop_in_place$LT$alloc..boxed..Box$LT$dyn$u20$core..any..Any$u2b$core..marker..Send$GT$$GT$17h2f18d8a5496bc0d9E', symObjAddr: 0x51BC, symBinAddr: 0x42F10, symSize: 0x80 }
  - { offset: 0x158C82, size: 0x8, addend: 0x0, symName: '__ZN4core3ptr94drop_in_place$LT$$u5b$pyo3..instance..Bound$LT$pyo3..types..any..PyAny$GT$$u3b$$u20$1$u5d$$GT$17h3e1e320951a70b0fE', symObjAddr: 0x5304, symBinAddr: 0x42F90, symSize: 0xA4 }
  - { offset: 0x158CB1, size: 0x8, addend: 0x0, symName: '__ZN4core3ptr94drop_in_place$LT$$u5b$pyo3..instance..Bound$LT$pyo3..types..any..PyAny$GT$$u3b$$u20$3$u5d$$GT$17hd40b26766a2f4104E', symObjAddr: 0x544C, symBinAddr: 0x43034, symSize: 0xA4 }
  - { offset: 0x158F7E, size: 0x8, addend: 0x0, symName: '__ZN115_$LT$core..iter..adapters..filter_map..FilterMap$LT$I$C$F$GT$$u20$as$u20$core..iter..traits..iterator..Iterator$GT$4next17h89fa0f7a211b8caeE', symObjAddr: 0xCC, symBinAddr: 0x41278, symSize: 0x2C }
  - { offset: 0x158FC5, size: 0x8, addend: 0x0, symName: '__ZN115_$LT$core..iter..adapters..filter_map..FilterMap$LT$I$C$F$GT$$u20$as$u20$core..iter..traits..iterator..Iterator$GT$4next17h8feadeaa96249fbcE', symObjAddr: 0xF8, symBinAddr: 0x412A4, symSize: 0x2C }
  - { offset: 0x15900C, size: 0x8, addend: 0x0, symName: '__ZN115_$LT$core..iter..adapters..filter_map..FilterMap$LT$I$C$F$GT$$u20$as$u20$core..iter..traits..iterator..Iterator$GT$9size_hint17hc51e6c758ace87d0E', symObjAddr: 0x124, symBinAddr: 0x412D0, symSize: 0x4C }
  - { offset: 0x159070, size: 0x8, addend: 0x0, symName: '__ZN115_$LT$core..iter..adapters..filter_map..FilterMap$LT$I$C$F$GT$$u20$as$u20$core..iter..traits..iterator..Iterator$GT$9size_hint17hfb7191a3e6e07816E', symObjAddr: 0x170, symBinAddr: 0x4131C, symSize: 0x4C }
  - { offset: 0x159272, size: 0x8, addend: 0x0, symName: __ZN4core4iter6traits8iterator8Iterator7collect17h5328ba6e7b09683bE, symObjAddr: 0x55E0, symBinAddr: 0x430D8, symSize: 0x14 }
  - { offset: 0x1592B3, size: 0x8, addend: 0x0, symName: __ZN4core4iter6traits8iterator8Iterator7collect17hb1ac2beb355ba4e2E, symObjAddr: 0x55F4, symBinAddr: 0x430EC, symSize: 0x14 }
  - { offset: 0x159300, size: 0x8, addend: 0x0, symName: '__ZN63_$LT$I$u20$as$u20$core..iter..traits..collect..IntoIterator$GT$9into_iter17h4cf99857dace96dbE', symObjAddr: 0x85F8, symBinAddr: 0x43EF0, symSize: 0x30 }
  - { offset: 0x159338, size: 0x8, addend: 0x0, symName: '__ZN63_$LT$I$u20$as$u20$core..iter..traits..collect..IntoIterator$GT$9into_iter17hf482f136e8eafc7fE', symObjAddr: 0x8628, symBinAddr: 0x43F20, symSize: 0x30 }
  - { offset: 0x15A025, size: 0x8, addend: 0x0, symName: '__ZN4core3ops8function6FnOnce40call_once$u7b$$u7b$vtable.shim$u7d$$u7d$17h2efcde6225a84b8bE', symObjAddr: 0xDF8, symBinAddr: 0x4141C, symSize: 0x30 }
  - { offset: 0x15A065, size: 0x8, addend: 0x0, symName: '__ZN4core3ops8function6FnOnce40call_once$u7b$$u7b$vtable.shim$u7d$$u7d$17h3d3fe9b3ef947aadE', symObjAddr: 0xEC8, symBinAddr: 0x4144C, symSize: 0x24 }
  - { offset: 0x15A0A9, size: 0x8, addend: 0x0, symName: '__ZN4core3ops8function6FnOnce40call_once$u7b$$u7b$vtable.shim$u7d$$u7d$17h4c7c780bcc0f25beE', symObjAddr: 0xF1C, symBinAddr: 0x41470, symSize: 0x24 }
  - { offset: 0x15A0ED, size: 0x8, addend: 0x0, symName: '__ZN4core3ops8function6FnOnce40call_once$u7b$$u7b$vtable.shim$u7d$$u7d$17h557d3ceb8981891fE', symObjAddr: 0xF68, symBinAddr: 0x41494, symSize: 0x30 }
  - { offset: 0x15A131, size: 0x8, addend: 0x0, symName: '__ZN4core3ops8function6FnOnce40call_once$u7b$$u7b$vtable.shim$u7d$$u7d$17h7de7d78ec561dbcaE', symObjAddr: 0x108C, symBinAddr: 0x414C4, symSize: 0x24 }
  - { offset: 0x15A175, size: 0x8, addend: 0x0, symName: '__ZN4core3ops8function6FnOnce40call_once$u7b$$u7b$vtable.shim$u7d$$u7d$17h99354570678aa800E', symObjAddr: 0x1150, symBinAddr: 0x414E8, symSize: 0x24 }
  - { offset: 0x15A1B9, size: 0x8, addend: 0x0, symName: '__ZN4core3ops8function6FnOnce40call_once$u7b$$u7b$vtable.shim$u7d$$u7d$17h9cda20d77d8986bfE', symObjAddr: 0x1194, symBinAddr: 0x4150C, symSize: 0x24 }
  - { offset: 0x15A1FD, size: 0x8, addend: 0x0, symName: '__ZN4core3ops8function6FnOnce40call_once$u7b$$u7b$vtable.shim$u7d$$u7d$17ha83c48bf831367d4E', symObjAddr: 0x1288, symBinAddr: 0x41530, symSize: 0x30 }
  - { offset: 0x15A23D, size: 0x8, addend: 0x0, symName: '__ZN4core3ops8function6FnOnce40call_once$u7b$$u7b$vtable.shim$u7d$$u7d$17hc160b669da67a090E', symObjAddr: 0x131C, symBinAddr: 0x41560, symSize: 0x30 }
  - { offset: 0x15A281, size: 0x8, addend: 0x0, symName: '__ZN4core3ops8function6FnOnce40call_once$u7b$$u7b$vtable.shim$u7d$$u7d$17hd9b23d9ec60945eeE', symObjAddr: 0x13C0, symBinAddr: 0x41590, symSize: 0x24 }
  - { offset: 0x15A2C5, size: 0x8, addend: 0x0, symName: '__ZN4core3ops8function6FnOnce40call_once$u7b$$u7b$vtable.shim$u7d$$u7d$17hdf7b9eee3c9b81a7E', symObjAddr: 0x13E4, symBinAddr: 0x415B4, symSize: 0x30 }
  - { offset: 0x15A305, size: 0x8, addend: 0x0, symName: '__ZN4core3ops8function6FnOnce40call_once$u7b$$u7b$vtable.shim$u7d$$u7d$17heb2e2d489f2e2aa8E', symObjAddr: 0x1464, symBinAddr: 0x415E4, symSize: 0x30 }
  - { offset: 0x15A349, size: 0x8, addend: 0x0, symName: '__ZN4core3ops8function6FnOnce40call_once$u7b$$u7b$vtable.shim$u7d$$u7d$17hf00ee03c0a75cc24E', symObjAddr: 0x1518, symBinAddr: 0x41614, symSize: 0x30 }
  - { offset: 0x15A389, size: 0x8, addend: 0x0, symName: '__ZN4core3ops8function6FnOnce40call_once$u7b$$u7b$vtable.shim$u7d$$u7d$17hf25079be6124debeE', symObjAddr: 0x1548, symBinAddr: 0x41644, symSize: 0x24 }
  - { offset: 0x15A3CD, size: 0x8, addend: 0x0, symName: '__ZN4core3ops8function6FnOnce40call_once$u7b$$u7b$vtable.shim$u7d$$u7d$17hf28cf1abf2e533bfE', symObjAddr: 0x156C, symBinAddr: 0x41668, symSize: 0x30 }
  - { offset: 0x15A411, size: 0x8, addend: 0x0, symName: '__ZN4core3ops8function6FnOnce40call_once$u7b$$u7b$vtable.shim$u7d$$u7d$17hf853e536bed089f0E', symObjAddr: 0x15C4, symBinAddr: 0x41698, symSize: 0x30 }
  - { offset: 0x15A451, size: 0x8, addend: 0x0, symName: '__ZN4core3ops8function6FnOnce40call_once$u7b$$u7b$vtable.shim$u7d$$u7d$17hfa1014c1de7bc7c0E', symObjAddr: 0x1618, symBinAddr: 0x416C8, symSize: 0x30 }
  - { offset: 0x15A495, size: 0x8, addend: 0x0, symName: __ZN4core3ops8function6FnOnce9call_once17h0a29a9fe70b81ffeE, symObjAddr: 0x16BC, symBinAddr: 0x416F8, symSize: 0x4C }
  - { offset: 0x15A4D5, size: 0x8, addend: 0x0, symName: __ZN4core3ops8function6FnOnce9call_once17h22616d79217119acE, symObjAddr: 0x172C, symBinAddr: 0x41744, symSize: 0x2C }
  - { offset: 0x15A519, size: 0x8, addend: 0x0, symName: __ZN4core3ops8function6FnOnce9call_once17h355b914e954698f4E, symObjAddr: 0x17FC, symBinAddr: 0x41770, symSize: 0x24 }
  - { offset: 0x15A55D, size: 0x8, addend: 0x0, symName: __ZN4core3ops8function6FnOnce9call_once17h37def2f199dbd4adE, symObjAddr: 0x1820, symBinAddr: 0x41794, symSize: 0x24 }
  - { offset: 0x15A5A1, size: 0x8, addend: 0x0, symName: __ZN4core3ops8function6FnOnce9call_once17h402d116c39ed72c9E, symObjAddr: 0x1844, symBinAddr: 0x417B8, symSize: 0x24 }
  - { offset: 0x15A5E5, size: 0x8, addend: 0x0, symName: __ZN4core3ops8function6FnOnce9call_once17h40b38ff8802028ceE, symObjAddr: 0x1868, symBinAddr: 0x417DC, symSize: 0x1C }
  - { offset: 0x15A629, size: 0x8, addend: 0x0, symName: __ZN4core3ops8function6FnOnce9call_once17h414388d8e4c5fadeE, symObjAddr: 0x1884, symBinAddr: 0x417F8, symSize: 0x4C }
  - { offset: 0x15A669, size: 0x8, addend: 0x0, symName: __ZN4core3ops8function6FnOnce9call_once17h4e3afed02bf23932E, symObjAddr: 0x1918, symBinAddr: 0x41844, symSize: 0x2C }
  - { offset: 0x15A6AD, size: 0x8, addend: 0x0, symName: __ZN4core3ops8function6FnOnce9call_once17h51d1964b08c9ecceE, symObjAddr: 0x1990, symBinAddr: 0x41870, symSize: 0x34 }
  - { offset: 0x15A6F1, size: 0x8, addend: 0x0, symName: __ZN4core3ops8function6FnOnce9call_once17h55e2d8ec98d3d780E, symObjAddr: 0x19C4, symBinAddr: 0x418A4, symSize: 0x24 }
  - { offset: 0x15A735, size: 0x8, addend: 0x0, symName: __ZN4core3ops8function6FnOnce9call_once17h6cd709924f09dc1eE, symObjAddr: 0x1A0C, symBinAddr: 0x418C8, symSize: 0x4C }
  - { offset: 0x15A779, size: 0x8, addend: 0x0, symName: __ZN4core3ops8function6FnOnce9call_once17h7cb557352490b52dE, symObjAddr: 0x1AA0, symBinAddr: 0x41914, symSize: 0x40 }
  - { offset: 0x15A7BE, size: 0x8, addend: 0x0, symName: __ZN4core3ops8function6FnOnce9call_once17h7f7cfd1a59cfcb6bE, symObjAddr: 0x1AE0, symBinAddr: 0x41954, symSize: 0x2C }
  - { offset: 0x15A802, size: 0x8, addend: 0x0, symName: __ZN4core3ops8function6FnOnce9call_once17h9e42a722d8832b96E, symObjAddr: 0x1BF0, symBinAddr: 0x41980, symSize: 0x40 }
  - { offset: 0x15A847, size: 0x8, addend: 0x0, symName: __ZN4core3ops8function6FnOnce9call_once17hab13d4c0306cd964E, symObjAddr: 0x1C98, symBinAddr: 0x419C0, symSize: 0x34 }
  - { offset: 0x15A88B, size: 0x8, addend: 0x0, symName: __ZN4core3ops8function6FnOnce9call_once17haf1ccd2a3da93c1eE, symObjAddr: 0x1CCC, symBinAddr: 0x419F4, symSize: 0x1C }
  - { offset: 0x15A8CF, size: 0x8, addend: 0x0, symName: __ZN4core3ops8function6FnOnce9call_once17hc6fd4c0c24af064cE, symObjAddr: 0x1D64, symBinAddr: 0x41A10, symSize: 0x40 }
  - { offset: 0x15A914, size: 0x8, addend: 0x0, symName: __ZN4core3ops8function6FnOnce9call_once17hd1725ea167205869E, symObjAddr: 0x1DA4, symBinAddr: 0x41A50, symSize: 0x24 }
  - { offset: 0x15A958, size: 0x8, addend: 0x0, symName: __ZN4core3ops8function6FnOnce9call_once17hd3a82e59e8d1b6a3E, symObjAddr: 0x1DC8, symBinAddr: 0x41A74, symSize: 0x4C }
  - { offset: 0x15A998, size: 0x8, addend: 0x0, symName: __ZN4core3ops8function6FnOnce9call_once17heca0561845283aafE, symObjAddr: 0x1ED4, symBinAddr: 0x41AC0, symSize: 0x4C }
  - { offset: 0x15A9D8, size: 0x8, addend: 0x0, symName: __ZN4core3ops8function6FnOnce9call_once17hecb428492cbec1d5E, symObjAddr: 0x1F20, symBinAddr: 0x41B0C, symSize: 0x24 }
  - { offset: 0x15AA1C, size: 0x8, addend: 0x0, symName: __ZN4core3ops8function6FnOnce9call_once17hecce5d63924da13dE, symObjAddr: 0x1F44, symBinAddr: 0x41B30, symSize: 0x40 }
  - { offset: 0x15AA60, size: 0x8, addend: 0x0, symName: __ZN4core3ops8function6FnOnce9call_once17hf42621094ecdb64bE, symObjAddr: 0x2034, symBinAddr: 0x41B70, symSize: 0x40 }
  - { offset: 0x15AAA5, size: 0x8, addend: 0x0, symName: __ZN4core3ops8function6FnOnce9call_once17hfdc15bfaea078797E, symObjAddr: 0x2074, symBinAddr: 0x41BB0, symSize: 0x4C }
  - { offset: 0x15AB3D, size: 0x8, addend: 0x0, symName: __ZN4core5slice3raw14from_raw_parts17h39447690abff7c51E, symObjAddr: 0x6A18, symBinAddr: 0x43CB4, symSize: 0x58 }
  - { offset: 0x15AB85, size: 0x8, addend: 0x0, symName: __ZN4core5slice3raw14from_raw_parts18precondition_check17ha2fa7fb4b9fcfbb2E, symObjAddr: 0x6B78, symBinAddr: 0x43D0C, symSize: 0x10C }
  - { offset: 0x15B73F, size: 0x8, addend: 0x0, symName: __ZN8pyo3_ffi10listobject12PyList_Check17h1fab3861fe88b7ddE, symObjAddr: 0x88E0, symBinAddr: 0x43FF0, symSize: 0x30 }
  - { offset: 0x15B771, size: 0x8, addend: 0x0, symName: __ZN8pyo3_ffi13unicodeobject15PyUnicode_Check17hc531ed8d366ae531E, symObjAddr: 0x8910, symBinAddr: 0x44020, symSize: 0x30 }
  - { offset: 0x15C45F, size: 0x8, addend: 0x0, symName: '__ZN3std3sys4sync8once_box16OnceBox$LT$T$GT$10initialize17h3ed83327b1d7c8fbE', symObjAddr: 0x1BC, symBinAddr: 0x82D64, symSize: 0xD8 }
  - { offset: 0x15C636, size: 0x8, addend: 0x0, symName: '__ZN3std3sys4sync8once_box16OnceBox$LT$T$GT$11get_or_init17he944fe3c68db0f2eE', symObjAddr: 0x294, symBinAddr: 0x41368, symSize: 0xB4 }
  - { offset: 0x15C764, size: 0x8, addend: 0x0, symName: __ZN4core4sync6atomic10AtomicBool4load17hb33f33addda0e942E, symObjAddr: 0x5620, symBinAddr: 0x43100, symSize: 0x2C }
  - { offset: 0x15C7CA, size: 0x8, addend: 0x0, symName: __ZN4core4sync6atomic9AtomicI6416compare_exchange17h095c7d2701dfe1e1E, symObjAddr: 0x6988, symBinAddr: 0x43C84, symSize: 0x30 }
  - { offset: 0x15C877, size: 0x8, addend: 0x0, symName: __ZN4pyo34sync8Interned3get17h27316930bea48405E, symObjAddr: 0x7AA0, symBinAddr: 0x43E18, symSize: 0x48 }
  - { offset: 0x15C8C2, size: 0x8, addend: 0x0, symName: __ZN4pyo35types8iterator10PyIterator11from_object17hed18e5cb8e4e6dc1E, symObjAddr: 0x7B6C, symBinAddr: 0x43E94, symSize: 0x5C }
  - { offset: 0x15E466, size: 0x8, addend: 0x0, symName: '__ZN4core3ptr7mut_ptr31_$LT$impl$u20$$BP$mut$u20$T$GT$7is_null17h1a5989cc2a2f1aa1E', symObjAddr: 0xF48, symBinAddr: 0x443A8, symSize: 0x18 }
  - { offset: 0x15EFA8, size: 0x8, addend: 0x0, symName: '__ZN4core3ops8function5impls79_$LT$impl$u20$core..ops..function..FnMut$LT$A$GT$$u20$for$u20$$RF$mut$u20$F$GT$8call_mut17h72755527f300d43cE', symObjAddr: 0xED8, symBinAddr: 0x44338, symSize: 0x38 }
  - { offset: 0x15EFF7, size: 0x8, addend: 0x0, symName: '__ZN4core3ops8function5impls79_$LT$impl$u20$core..ops..function..FnMut$LT$A$GT$$u20$for$u20$$RF$mut$u20$F$GT$8call_mut17hbaf45cdc7912d8baE', symObjAddr: 0xF10, symBinAddr: 0x44370, symSize: 0x38 }
  - { offset: 0x15F084, size: 0x8, addend: 0x0, symName: '__ZN4core5slice29_$LT$impl$u20$$u5b$T$u5d$$GT$4iter17h64814c54f2d442f1E', symObjAddr: 0x1444, symBinAddr: 0x444F8, symSize: 0x28 }
  - { offset: 0x15F4AE, size: 0x8, addend: 0x0, symName: '__ZN3std4sync9once_lock17OnceLock$LT$T$GT$11get_or_init28_$u7b$$u7b$closure$u7d$$u7d$17h4dad74c6159688b2E', symObjAddr: 0xC88, symBinAddr: 0x441C4, symSize: 0x3C }
  - { offset: 0x15F4F5, size: 0x8, addend: 0x0, symName: '__ZN3std4sync9once_lock17OnceLock$LT$T$GT$10initialize28_$u7b$$u7b$closure$u7d$$u7d$17hf006421ae5ed0888E', symObjAddr: 0xBA4, symBinAddr: 0x440E0, symSize: 0xB8 }
  - { offset: 0x15FA3B, size: 0x8, addend: 0x0, symName: __ZN5alloc3fmt6format17hb95965d7827e6608E, symObjAddr: 0x6C78, symBinAddr: 0x448B8, symSize: 0xD8 }
  - { offset: 0x15FAFF, size: 0x8, addend: 0x0, symName: '__ZN5alloc3fmt6format28_$u7b$$u7b$closure$u7d$$u7d$17he828135d69855b4eE', symObjAddr: 0x6D50, symBinAddr: 0x44990, symSize: 0x30 }
  - { offset: 0x15FC80, size: 0x8, addend: 0x0, symName: __ZN8pyo3_ffi6object10Py_IS_TYPE17haee12f8ec02e6b61E, symObjAddr: 0x738C, symBinAddr: 0x44AA8, symSize: 0x38 }
  - { offset: 0x15FCBA, size: 0x8, addend: 0x0, symName: __ZN8pyo3_ffi6object12PyType_Check17hd1c6c6e4f58d811eE, symObjAddr: 0x73C4, symBinAddr: 0x44AE0, symSize: 0x30 }
  - { offset: 0x15FCE8, size: 0x8, addend: 0x0, symName: __ZN8pyo3_ffi6object17PyType_HasFeature17h7ad5b3a8ba5242c5E, symObjAddr: 0x73F4, symBinAddr: 0x44B10, symSize: 0x8C }
  - { offset: 0x15FD43, size: 0x8, addend: 0x0, symName: __ZN8pyo3_ffi6object18PyObject_TypeCheck17h44957916ba3a1d11E, symObjAddr: 0x748C, symBinAddr: 0x44B9C, symSize: 0x70 }
  - { offset: 0x15FD80, size: 0x8, addend: 0x0, symName: __ZN8pyo3_ffi6object19PyType_FastSubclass17hb8caf55cd6e1ac76E, symObjAddr: 0x74FC, symBinAddr: 0x44C0C, symSize: 0x28 }
  - { offset: 0x15FDBD, size: 0x8, addend: 0x0, symName: __ZN8pyo3_ffi6object7Py_None17h7292ddf0874bd5d7E, symObjAddr: 0x7558, symBinAddr: 0x44C34, symSize: 0xC }
  - { offset: 0x15FDDB, size: 0x8, addend: 0x0, symName: __ZN8pyo3_ffi6object7Py_SIZE17h2f48a4b0153b0942E, symObjAddr: 0x7564, symBinAddr: 0x44C40, symSize: 0x1D4 }
  - { offset: 0x1605B7, size: 0x8, addend: 0x0, symName: __ZN8pyo3_ffi10modsupport15PyModule_Create17h4552b6a2a369b1b8E, symObjAddr: 0x7334, symBinAddr: 0x44A50, symSize: 0x28 }
  - { offset: 0x1605E9, size: 0x8, addend: 0x0, symName: __ZN8pyo3_ffi11tupleobject13PyTuple_Check17hff215f104174539cE, symObjAddr: 0x735C, symBinAddr: 0x44A78, symSize: 0x30 }
  - { offset: 0x160D39, size: 0x8, addend: 0x0, symName: '__ZN4pyo35impl_16extract_argument19FunctionDescription34missing_required_keyword_arguments28_$u7b$$u7b$closure$u7d$$u7d$17h9bba7dd69d4cc771E', symObjAddr: 0x2C7C, symBinAddr: 0x44520, symSize: 0x84 }
  - { offset: 0x160DA9, size: 0x8, addend: 0x0, symName: '__ZN4pyo35impl_16extract_argument19FunctionDescription37missing_required_positional_arguments28_$u7b$$u7b$closure$u7d$$u7d$17hdd8539d96dd50bc9E', symObjAddr: 0x2E48, symBinAddr: 0x445A4, symSize: 0x78 }
  - { offset: 0x160E15, size: 0x8, addend: 0x0, symName: __ZN4pyo35impl_16extract_argument19push_parameter_list17ha03dc595ab1770ecE, symObjAddr: 0x2FCC, symBinAddr: 0x44728, symSize: 0x16C }
  - { offset: 0x160EA1, size: 0x8, addend: 0x0, symName: __ZN4pyo35impl_16extract_argument25argument_extraction_error17h124a5bbfdbd99ab8E, symObjAddr: 0x3138, symBinAddr: 0x839D0, symSize: 0x230 }
  - { offset: 0x160F7F, size: 0x8, addend: 0x0, symName: '__ZN152_$LT$core..result..Result$LT$pyo3..instance..Bound$LT$pyo3..types..any..PyAny$GT$$C$pyo3..err..PyErr$GT$$u20$as$u20$pyo3..py_result_ext..PyResultExt$GT$19cast_into_unchecked28_$u7b$$u7b$closure$u7d$$u7d$17h8ea3c93c210ebaebE', symObjAddr: 0x5EC, symBinAddr: 0x44050, symSize: 0x24 }
  - { offset: 0x160FBE, size: 0x8, addend: 0x0, symName: '__ZN152_$LT$core..result..Result$LT$pyo3..instance..Bound$LT$pyo3..types..any..PyAny$GT$$C$pyo3..err..PyErr$GT$$u20$as$u20$pyo3..py_result_ext..PyResultExt$GT$19cast_into_unchecked28_$u7b$$u7b$closure$u7d$$u7d$17hac24b3099414aee8E', symObjAddr: 0x658, symBinAddr: 0x44074, symSize: 0x24 }
  - { offset: 0x160FFD, size: 0x8, addend: 0x0, symName: '__ZN152_$LT$core..result..Result$LT$pyo3..instance..Bound$LT$pyo3..types..any..PyAny$GT$$C$pyo3..err..PyErr$GT$$u20$as$u20$pyo3..py_result_ext..PyResultExt$GT$19cast_into_unchecked28_$u7b$$u7b$closure$u7d$$u7d$17had8e955e2101b12eE', symObjAddr: 0x67C, symBinAddr: 0x44098, symSize: 0x24 }
  - { offset: 0x16103C, size: 0x8, addend: 0x0, symName: '__ZN152_$LT$core..result..Result$LT$pyo3..instance..Bound$LT$pyo3..types..any..PyAny$GT$$C$pyo3..err..PyErr$GT$$u20$as$u20$pyo3..py_result_ext..PyResultExt$GT$19cast_into_unchecked28_$u7b$$u7b$closure$u7d$$u7d$17hf4756491cb355bb6E', symObjAddr: 0x730, symBinAddr: 0x440BC, symSize: 0x24 }
  - { offset: 0x1610A4, size: 0x8, addend: 0x0, symName: '__ZN87_$LT$$BP$mut$u20$pyo3_ffi..object..PyObject$u20$as$u20$pyo3..ffi_ptr_ext..FfiPtrExt$GT$12assume_owned17h0c43620af7b3140fE', symObjAddr: 0x7238, symBinAddr: 0x449C0, symSize: 0x24 }
  - { offset: 0x1610E9, size: 0x8, addend: 0x0, symName: '__ZN87_$LT$$BP$mut$u20$pyo3_ffi..object..PyObject$u20$as$u20$pyo3..ffi_ptr_ext..FfiPtrExt$GT$19assume_owned_or_err17hbb66f2a608f4162dE', symObjAddr: 0x7280, symBinAddr: 0x449E4, symSize: 0x24 }
  - { offset: 0x16112E, size: 0x8, addend: 0x0, symName: '__ZN87_$LT$$BP$mut$u20$pyo3_ffi..object..PyObject$u20$as$u20$pyo3..ffi_ptr_ext..FfiPtrExt$GT$19assume_owned_or_opt17h8855aa8b986ae1a3E', symObjAddr: 0x72A4, symBinAddr: 0x44A08, symSize: 0x24 }
  - { offset: 0x161173, size: 0x8, addend: 0x0, symName: '__ZN87_$LT$$BP$mut$u20$pyo3_ffi..object..PyObject$u20$as$u20$pyo3..ffi_ptr_ext..FfiPtrExt$GT$25assume_borrowed_unchecked17h60ae5e8dfff85b5fE', symObjAddr: 0x7310, symBinAddr: 0x44A2C, symSize: 0x24 }
  - { offset: 0x161753, size: 0x8, addend: 0x0, symName: '__ZN3std4sync9once_lock17OnceLock$LT$T$GT$10initialize17h2318e751c7ba6df2E', symObjAddr: 0xB54, symBinAddr: 0x82E3C, symSize: 0x50 }
  - { offset: 0x16189D, size: 0x8, addend: 0x0, symName: '__ZN3std4sync9once_lock17OnceLock$LT$T$GT$11get_or_init17he00ef1089e4c1549E', symObjAddr: 0xC5C, symBinAddr: 0x44198, symSize: 0x2C }
  - { offset: 0x1619C5, size: 0x8, addend: 0x0, symName: '__ZN3std4sync9once_lock17OnceLock$LT$T$GT$15get_or_try_init17h19c500e6ec9411d4E', symObjAddr: 0xCC4, symBinAddr: 0x44200, symSize: 0xD4 }
  - { offset: 0x161CBD, size: 0x8, addend: 0x0, symName: '__ZN3std4sync9once_lock17OnceLock$LT$T$GT$3get17h2596c77daf7d436eE', symObjAddr: 0xE44, symBinAddr: 0x442D4, symSize: 0x64 }
  - { offset: 0x161E0E, size: 0x8, addend: 0x0, symName: '__ZN4core4cell13Cell$LT$T$GT$3get17hea51ee7fcb217d06E', symObjAddr: 0x1160, symBinAddr: 0x443C0, symSize: 0x18 }
  - { offset: 0x161E62, size: 0x8, addend: 0x0, symName: '__ZN4core4cell13Cell$LT$T$GT$3set17ha8b5972d18018708E', symObjAddr: 0x1178, symBinAddr: 0x443D8, symSize: 0x1C }
  - { offset: 0x161ED8, size: 0x8, addend: 0x0, symName: '__ZN4core4cell13Cell$LT$T$GT$7replace17hb52853bdc3816de4E', symObjAddr: 0x1194, symBinAddr: 0x443F4, symSize: 0x24 }
  - { offset: 0x161F28, size: 0x8, addend: 0x0, symName: '__ZN4core4iter8adapters7step_by15StepBy$LT$I$GT$3new17hf9a1002f2b3766b0E', symObjAddr: 0x1208, symBinAddr: 0x44418, symSize: 0xE0 }
  - { offset: 0x161FD9, size: 0x8, addend: 0x0, symName: __ZN4pyo35impl_16extract_argument19FunctionDescription26missing_required_arguments17hafc5dd9c63c9485eE, symObjAddr: 0x2280, symBinAddr: 0x82E8C, symSize: 0x1F8 }
  - { offset: 0x1620AB, size: 0x8, addend: 0x0, symName: __ZN4pyo35impl_16extract_argument19FunctionDescription27unexpected_keyword_argument17h9eaca899a51bae0fE, symObjAddr: 0x2478, symBinAddr: 0x83084, symSize: 0x124 }
  - { offset: 0x162139, size: 0x8, addend: 0x0, symName: __ZN4pyo35impl_16extract_argument19FunctionDescription28multiple_values_for_argument17hbb5dc20b90193cceE, symObjAddr: 0x259C, symBinAddr: 0x831A8, symSize: 0x110 }
  - { offset: 0x1621BF, size: 0x8, addend: 0x0, symName: __ZN4pyo35impl_16extract_argument19FunctionDescription29too_many_positional_arguments17h523a434dab9ab882E, symObjAddr: 0x26AC, symBinAddr: 0x832B8, symSize: 0x304 }
  - { offset: 0x1622D2, size: 0x8, addend: 0x0, symName: __ZN4pyo35impl_16extract_argument19FunctionDescription33positional_only_keyword_arguments17he69bbeb2b7ce9b90E, symObjAddr: 0x29B0, symBinAddr: 0x835BC, symSize: 0x148 }
  - { offset: 0x162395, size: 0x8, addend: 0x0, symName: __ZN4pyo35impl_16extract_argument19FunctionDescription34missing_required_keyword_arguments17hb989103e50cd4796E, symObjAddr: 0x2AF8, symBinAddr: 0x83704, symSize: 0x184 }
  - { offset: 0x16242C, size: 0x8, addend: 0x0, symName: __ZN4pyo35impl_16extract_argument19FunctionDescription37missing_required_positional_arguments17hf23666aebe283a42E, symObjAddr: 0x2D00, symBinAddr: 0x83888, symSize: 0x148 }
  - { offset: 0x162475, size: 0x8, addend: 0x0, symName: __ZN4pyo35impl_16extract_argument19FunctionDescription9full_name17heeddccf70758f432E, symObjAddr: 0x2EC0, symBinAddr: 0x4461C, symSize: 0x10C }
  - { offset: 0x162579, size: 0x8, addend: 0x0, symName: __ZN4pyo35types4none6PyNone3get17h6fe00a2cc8d518edE, symObjAddr: 0x4624, symBinAddr: 0x44894, symSize: 0x24 }
  - { offset: 0x1629CF, size: 0x8, addend: 0x0, symName: '__ZN3std4sync4once4Once15call_once_force28_$u7b$$u7b$closure$u7d$$u7d$17h13f7e57f212330b4E', symObjAddr: 0xEE4, symBinAddr: 0x450E0, symSize: 0x68 }
  - { offset: 0x162A61, size: 0x8, addend: 0x0, symName: '__ZN3std4sync4once4Once15call_once_force28_$u7b$$u7b$closure$u7d$$u7d$17h22612aec8e429e5aE', symObjAddr: 0xF4C, symBinAddr: 0x45148, symSize: 0x84 }
  - { offset: 0x162AF3, size: 0x8, addend: 0x0, symName: '__ZN3std4sync4once4Once15call_once_force28_$u7b$$u7b$closure$u7d$$u7d$17h868f8ceb576cca61E', symObjAddr: 0xFD0, symBinAddr: 0x451CC, symSize: 0x68 }
  - { offset: 0x162B8B, size: 0x8, addend: 0x0, symName: '__ZN3std4sync4once4Once9call_once28_$u7b$$u7b$closure$u7d$$u7d$17h34fe452f6103786cE', symObjAddr: 0x1318, symBinAddr: 0x4540C, symSize: 0x60 }
  - { offset: 0x162C19, size: 0x8, addend: 0x0, symName: '__ZN3std4sync4once4Once9call_once28_$u7b$$u7b$closure$u7d$$u7d$17h6150c8f357db89edE', symObjAddr: 0x1378, symBinAddr: 0x4546C, symSize: 0x68 }
  - { offset: 0x165FA4, size: 0x8, addend: 0x0, symName: __ZN4core4hash3sip9u8to64_le17hc62c7e57379ef255E, symObjAddr: 0x209C, symBinAddr: 0x45C1C, symSize: 0x240 }
  - { offset: 0x166161, size: 0x8, addend: 0x0, symName: '__ZN69_$LT$core..hash..sip..Sip13Rounds$u20$as$u20$core..hash..sip..Sip$GT$8c_rounds17h904bc63c6d395f06E', symObjAddr: 0x36E0, symBinAddr: 0x461E0, symSize: 0x1A0 }
  - { offset: 0x1662D6, size: 0x8, addend: 0x0, symName: '__ZN69_$LT$core..hash..sip..Sip13Rounds$u20$as$u20$core..hash..sip..Sip$GT$8d_rounds17hc815a018bb75a1dbE', symObjAddr: 0x3880, symBinAddr: 0x46380, symSize: 0x46C }
  - { offset: 0x166713, size: 0x8, addend: 0x0, symName: '__ZN71_$LT$core..hash..sip..Hasher$LT$S$GT$$u20$as$u20$core..hash..Hasher$GT$5write17h526cfb1efdd4a9c4E', symObjAddr: 0x3D7C, symBinAddr: 0x467EC, symSize: 0x230 }
  - { offset: 0x16688C, size: 0x8, addend: 0x0, symName: '__ZN71_$LT$core..hash..sip..Hasher$LT$S$GT$$u20$as$u20$core..hash..Hasher$GT$6finish17h8b0b90bf81b15bb2E', symObjAddr: 0x3FAC, symBinAddr: 0x46A1C, symSize: 0xA0 }
  - { offset: 0x166FFB, size: 0x8, addend: 0x0, symName: '__ZN4pyo311conversions3std6string68_$LT$impl$u20$pyo3..conversion..IntoPyObject$u20$for$u20$$RF$str$GT$13into_pyobject17he03f4244cf655211E', symObjAddr: 0x2B88, symBinAddr: 0x45E5C, symSize: 0x28 }
  - { offset: 0x1670F0, size: 0x8, addend: 0x0, symName: '__ZN4pyo35impl_8pymodule9ModuleDef11make_module28_$u7b$$u7b$closure$u7d$$u7d$17h449d0392a1104071E', symObjAddr: 0x2ED0, symBinAddr: 0x46010, symSize: 0x1A0 }
  - { offset: 0x1671A1, size: 0x8, addend: 0x0, symName: '__ZN4pyo35impl_8pymodule9ModuleDef11make_module28_$u7b$$u7b$closure$u7d$$u7d$17h85d9cdf747122f88E', symObjAddr: 0x3070, symBinAddr: 0x461B0, symSize: 0x30 }
  - { offset: 0x167200, size: 0x8, addend: 0x0, symName: '__ZN89_$LT$pyo3..impl_..pymodule..ModuleDef$u20$as$u20$pyo3..impl_..pymodule..PyAddToModule$GT$13add_to_module17hc5126fed21fdd65bE', symObjAddr: 0x48B0, symBinAddr: 0x46BB0, symSize: 0x13C }
  - { offset: 0x167649, size: 0x8, addend: 0x0, symName: '__ZN87_$LT$T$u20$as$u20$alloc..slice..$LT$impl$u20$$u5b$T$u5d$$GT$..to_vec_in..ConvertVec$GT$6to_vec17h983016644dbacc5fE', symObjAddr: 0x478C, symBinAddr: 0x46ABC, symSize: 0xF4 }
  - { offset: 0x1688D9, size: 0x8, addend: 0x0, symName: __ZN3std4sync4once4Once12is_completed17hfc122f58b6e450e0E, symObjAddr: 0xA40, symBinAddr: 0x44E14, symSize: 0x38 }
  - { offset: 0x16897C, size: 0x8, addend: 0x0, symName: __ZN3std4sync4once4Once15call_once_force17h4771aa78dae5ed02E, symObjAddr: 0xA78, symBinAddr: 0x44E4C, symSize: 0xEC }
  - { offset: 0x168A41, size: 0x8, addend: 0x0, symName: __ZN3std4sync4once4Once15call_once_force17hb4c98bb54814a392E, symObjAddr: 0xC50, symBinAddr: 0x44F38, symSize: 0xD4 }
  - { offset: 0x168B06, size: 0x8, addend: 0x0, symName: __ZN3std4sync4once4Once15call_once_force17hfe348ce185f4f560E, symObjAddr: 0xE10, symBinAddr: 0x4500C, symSize: 0xD4 }
  - { offset: 0x168CA6, size: 0x8, addend: 0x0, symName: __ZN3std4sync4once4Once3new17hb438f98c97fb910fE, symObjAddr: 0x1140, symBinAddr: 0x45234, symSize: 0x28 }
  - { offset: 0x168D1E, size: 0x8, addend: 0x0, symName: __ZN3std4sync4once4Once9call_once17h6aa4cba40c0ff494E, symObjAddr: 0x1168, symBinAddr: 0x4525C, symSize: 0xD4 }
  - { offset: 0x168DE3, size: 0x8, addend: 0x0, symName: __ZN3std4sync4once4Once9call_once17h8078e9b48babee3dE, symObjAddr: 0x123C, symBinAddr: 0x45330, symSize: 0xDC }
  - { offset: 0x168F3A, size: 0x8, addend: 0x0, symName: '__ZN3std6thread5local17LocalKey$LT$T$GT$4with17h356d64e6aefdbd1fE', symObjAddr: 0x13E0, symBinAddr: 0x454D4, symSize: 0x4C }
  - { offset: 0x168FB2, size: 0x8, addend: 0x0, symName: '__ZN3std6thread5local17LocalKey$LT$T$GT$4with17h39373abae0310fd9E', symObjAddr: 0x142C, symBinAddr: 0x45520, symSize: 0x48 }
  - { offset: 0x16907A, size: 0x8, addend: 0x0, symName: '__ZN3std6thread5local17LocalKey$LT$T$GT$4with17h965e79ff3f7d5daeE', symObjAddr: 0x1510, symBinAddr: 0x45568, symSize: 0x50 }
  - { offset: 0x169133, size: 0x8, addend: 0x0, symName: '__ZN3std6thread5local17LocalKey$LT$T$GT$8try_with17h2bea5389a979cd0cE', symObjAddr: 0x1560, symBinAddr: 0x455B8, symSize: 0xCC }
  - { offset: 0x1692B4, size: 0x8, addend: 0x0, symName: '__ZN3std6thread5local17LocalKey$LT$T$GT$8try_with17h60af60b31edf6feeE', symObjAddr: 0x162C, symBinAddr: 0x45684, symSize: 0xD8 }
  - { offset: 0x169436, size: 0x8, addend: 0x0, symName: '__ZN3std6thread5local17LocalKey$LT$T$GT$8try_with17h939f83632feffb0cE', symObjAddr: 0x17DC, symBinAddr: 0x4575C, symSize: 0xD0 }
  - { offset: 0x1695B8, size: 0x8, addend: 0x0, symName: '__ZN3std6thread5local17LocalKey$LT$T$GT$8try_with17h93d4f735cb21b11cE', symObjAddr: 0x18AC, symBinAddr: 0x4582C, symSize: 0xCC }
  - { offset: 0x169739, size: 0x8, addend: 0x0, symName: '__ZN3std6thread5local17LocalKey$LT$T$GT$8try_with17hebd3cd2ee6910f58E', symObjAddr: 0x1A5C, symBinAddr: 0x458F8, symSize: 0xD8 }
  - { offset: 0x1698C8, size: 0x8, addend: 0x0, symName: '__ZN3std6thread5local17LocalKey$LT$T$GT$8try_with17hfba021844f8e5492E', symObjAddr: 0x1C04, symBinAddr: 0x459D0, symSize: 0xE8 }
  - { offset: 0x169A4A, size: 0x8, addend: 0x0, symName: '__ZN3std6thread5local17LocalKey$LT$T$GT$8try_with17hfbe69c066ec2810dE', symObjAddr: 0x1CEC, symBinAddr: 0x45AB8, symSize: 0xD8 }
  - { offset: 0x169BA5, size: 0x8, addend: 0x0, symName: '__ZN4core4hash3sip15Hasher$LT$S$GT$5reset17h9f8ab3d0004848dcE', symObjAddr: 0x2010, symBinAddr: 0x45B90, symSize: 0x8C }
  - { offset: 0x169C4C, size: 0x8, addend: 0x0, symName: __ZN4pyo35impl_8pymodule9ModuleDef11make_module17h1032c41ccd8fb0a2E, symObjAddr: 0x2D44, symBinAddr: 0x45E84, symSize: 0x18C }
  - { offset: 0x169F0C, size: 0x8, addend: 0x0, symName: '__ZN104_$LT$core..ops..index_range..IndexRange$u20$as$u20$core..slice..index..SliceIndex$LT$$u5b$T$u5d$$GT$$GT$17get_unchecked_mut18precondition_check17h5b407490cd33b277E', symObjAddr: 0x0, symBinAddr: 0x46CEC, symSize: 0x60 }
  - { offset: 0x16A8C9, size: 0x8, addend: 0x0, symName: __ZN4pyo311conversions3std3num20err_if_invalid_value17h0960564b3a6c03d3E, symObjAddr: 0x3638, symBinAddr: 0x48248, symSize: 0xD8 }
  - { offset: 0x16A94E, size: 0x8, addend: 0x0, symName: '__ZN4pyo311conversions3std3num64_$LT$impl$u20$pyo3..conversion..FromPyObject$u20$for$u20$u64$GT$7extract17hf204a0105354116eE', symObjAddr: 0x4290, symBinAddr: 0x48320, symSize: 0x20C }
  - { offset: 0x16A9E9, size: 0x8, addend: 0x0, symName: '__ZN4pyo311conversions3std3num64_$LT$impl$u20$pyo3..conversion..IntoPyObject$u20$for$u20$i32$GT$13into_pyobject17h988c7a8a9794a19aE', symObjAddr: 0x44D4, symBinAddr: 0x4852C, symSize: 0x38 }
  - { offset: 0x16AA34, size: 0x8, addend: 0x0, symName: '__ZN4pyo311conversions3std3num64_$LT$impl$u20$pyo3..conversion..IntoPyObject$u20$for$u20$u64$GT$13into_pyobject17hdadeb7c64876bd37E', symObjAddr: 0x45AC, symBinAddr: 0x48564, symSize: 0x30 }
  - { offset: 0x16AA7F, size: 0x8, addend: 0x0, symName: '__ZN4pyo311conversions3std3num66_$LT$impl$u20$pyo3..conversion..FromPyObject$u20$for$u20$usize$GT$7extract17hd7535d36cb67b38cE', symObjAddr: 0x46E8, symBinAddr: 0x48594, symSize: 0xB4 }
  - { offset: 0x16AAED, size: 0x8, addend: 0x0, symName: '__ZN4pyo311conversions3std3num66_$LT$impl$u20$pyo3..conversion..FromPyObject$u20$for$u20$usize$GT$7extract28_$u7b$$u7b$closure$u7d$$u7d$17h5b58b8d0483b1584E', symObjAddr: 0x479C, symBinAddr: 0x48648, symSize: 0x38 }
  - { offset: 0x16AB3C, size: 0x8, addend: 0x0, symName: '__ZN4pyo311conversions3std3num66_$LT$impl$u20$pyo3..conversion..IntoPyObject$u20$for$u20$usize$GT$13into_pyobject17hfda8b100ad5c3794E', symObjAddr: 0x4804, symBinAddr: 0x48680, symSize: 0x20 }
  - { offset: 0x16B31B, size: 0x8, addend: 0x0, symName: '__ZN3std4hash6random11RandomState3new28_$u7b$$u7b$closure$u7d$$u7d$17h881c2d057c30a93eE', symObjAddr: 0x57C, symBinAddr: 0x46D5C, symSize: 0x2C }
  - { offset: 0x16B3D8, size: 0x8, addend: 0x0, symName: __ZN3std4hash6random11RandomState3new4KEYS27__rust_std_internal_init_fn17hb8245bb970f065a9E, symObjAddr: 0x5A8, symBinAddr: 0x46D88, symSize: 0x24 }
  - { offset: 0x16B3FA, size: 0x8, addend: 0x0, symName: '__ZN3std4hash6random11RandomState3new4KEYS29_$u7b$$u7b$constant$u7d$$u7d$28_$u7b$$u7b$closure$u7d$$u7d$17hda6062a2fe6b85abE', symObjAddr: 0x5CC, symBinAddr: 0x46DAC, symSize: 0x34 }
  - { offset: 0x16B447, size: 0x8, addend: 0x0, symName: '__ZN71_$LT$std..hash..random..DefaultHasher$u20$as$u20$core..hash..Hasher$GT$5write17h17cad7e8f4736cffE', symObjAddr: 0x65B4, symBinAddr: 0x48BD8, symSize: 0x2C }
  - { offset: 0x16C45B, size: 0x8, addend: 0x0, symName: '__ZN145_$LT$core..option..Option$LT$T$GT$$u20$as$u20$core..ops..try_trait..FromResidual$LT$core..option..Option$LT$core..convert..Infallible$GT$$GT$$GT$13from_residual17h5532872c2a0d0c70E', symObjAddr: 0x51C, symBinAddr: 0x46D4C, symSize: 0x10 }
  - { offset: 0x16DA7B, size: 0x8, addend: 0x0, symName: '__ZN66_$LT$core..option..Option$LT$T$GT$$u20$as$u20$core..fmt..Debug$GT$3fmt17hf08f48bd52376b51E', symObjAddr: 0x6514, symBinAddr: 0x48B38, symSize: 0xA0 }
  - { offset: 0x16DAE5, size: 0x8, addend: 0x0, symName: '__ZN75_$LT$core..option..Option$LT$T$GT$$u20$as$u20$core..ops..try_trait..Try$GT$6branch17hb66792f95a1c6528E', symObjAddr: 0x6764, symBinAddr: 0x48C04, symSize: 0x40 }
  - { offset: 0x16E0EC, size: 0x8, addend: 0x0, symName: '__ZN104_$LT$core..ops..index_range..IndexRange$u20$as$u20$core..slice..index..SliceIndex$LT$$u5b$T$u5d$$GT$$GT$17get_unchecked_mut18precondition_check17h5b407490cd33b277E', symObjAddr: 0x0, symBinAddr: 0x46CEC, symSize: 0x60 }
  - { offset: 0x16E14B, size: 0x8, addend: 0x0, symName: '__ZN75_$LT$usize$u20$as$u20$core..slice..index..SliceIndex$LT$$u5b$T$u5d$$GT$$GT$13get_unchecked18precondition_check17h6b15d8e1f9a80adbE', symObjAddr: 0x6830, symBinAddr: 0x48C44, symSize: 0x60 }
  - { offset: 0x16E1FF, size: 0x8, addend: 0x0, symName: '__ZN4core5slice4iter87_$LT$impl$u20$core..iter..traits..collect..IntoIterator$u20$for$u20$$RF$$u5b$T$u5d$$GT$9into_iter17h01c02b8d03e01a8aE', symObjAddr: 0x1480, symBinAddr: 0x472BC, symSize: 0x50 }
  - { offset: 0x16E4E7, size: 0x8, addend: 0x0, symName: '__ZN42_$LT$$RF$T$u20$as$u20$core..fmt..Debug$GT$3fmt17h92b98398e3b313e2E', symObjAddr: 0x630, symBinAddr: 0x46DE0, symSize: 0x30 }
  - { offset: 0x16E533, size: 0x8, addend: 0x0, symName: '__ZN45_$LT$$LP$$RP$$u20$as$u20$core..fmt..Debug$GT$3fmt17ha122ce96ba417dbfE', symObjAddr: 0x690, symBinAddr: 0x46E10, symSize: 0x40 }
  - { offset: 0x16E57B, size: 0x8, addend: 0x0, symName: '__ZN4core3fmt3num52_$LT$impl$u20$core..fmt..Debug$u20$for$u20$isize$GT$3fmt17h27a5202c78caf7daE', symObjAddr: 0x83C, symBinAddr: 0x46E50, symSize: 0x90 }
  - { offset: 0x16E963, size: 0x8, addend: 0x0, symName: '__ZN53_$LT$core..fmt..Error$u20$as$u20$core..fmt..Debug$GT$3fmt17h6d2caf9bfc3c1e9eE', symObjAddr: 0x64A0, symBinAddr: 0x48AC4, symSize: 0x40 }
  - { offset: 0x16E9A8, size: 0x8, addend: 0x0, symName: '__ZN54_$LT$$BP$const$u20$T$u20$as$u20$core..fmt..Pointer$GT$3fmt28_$u7b$$u7b$closure$u7d$$u7d$17h8f4135ffc53ac6faE', symObjAddr: 0x64E0, symBinAddr: 0x48B04, symSize: 0x34 }
  - { offset: 0x16F3A5, size: 0x8, addend: 0x0, symName: '__ZN4core3str21_$LT$impl$u20$str$GT$3len17he7c6be341176e89cE', symObjAddr: 0x1040, symBinAddr: 0x4724C, symSize: 0x1C }
  - { offset: 0x16F3D7, size: 0x8, addend: 0x0, symName: __ZN4core3str8converts19from_utf8_unchecked17h789b8a0bd46b64adE, symObjAddr: 0x1380, symBinAddr: 0x47268, symSize: 0x18 }
  - { offset: 0x16F40F, size: 0x8, addend: 0x0, symName: __ZN4core4hash6Hasher11write_usize17h54c36d97e4ecb9b0E, symObjAddr: 0x141C, symBinAddr: 0x47280, symSize: 0x3C }
  - { offset: 0x1709FE, size: 0x8, addend: 0x0, symName: __ZN4core3fmt9Arguments23as_statically_known_str17he94f0f07a6acc488E, symObjAddr: 0x984, symBinAddr: 0x46EE0, symSize: 0x104 }
  - { offset: 0x170B67, size: 0x8, addend: 0x0, symName: __ZN4core3fmt9Arguments3new17h285e34cf5db3bb51E, symObjAddr: 0xADC, symBinAddr: 0x46FE4, symSize: 0x1C }
  - { offset: 0x170BB3, size: 0x8, addend: 0x0, symName: __ZN4core3fmt9Arguments3new17h36f507ff52619c77E, symObjAddr: 0xAF8, symBinAddr: 0x47000, symSize: 0x1C }
  - { offset: 0x170C19, size: 0x8, addend: 0x0, symName: __ZN4core3fmt9Arguments3new17h3929d881b295b303E, symObjAddr: 0xB14, symBinAddr: 0x4701C, symSize: 0x1C }
  - { offset: 0x170CB3, size: 0x8, addend: 0x0, symName: __ZN4core3fmt9Arguments3new17h6fcfe19a8b96f4ceE, symObjAddr: 0xB68, symBinAddr: 0x47038, symSize: 0x1C }
  - { offset: 0x170D4D, size: 0x8, addend: 0x0, symName: __ZN4core3fmt9Arguments3new17h76c2b97b81db871aE, symObjAddr: 0xBBC, symBinAddr: 0x47054, symSize: 0x1C }
  - { offset: 0x170D7F, size: 0x8, addend: 0x0, symName: __ZN4core3fmt9Arguments3new17h77c0aff6701fe607E, symObjAddr: 0xBD8, symBinAddr: 0x47070, symSize: 0x1C }
  - { offset: 0x170DFF, size: 0x8, addend: 0x0, symName: __ZN4core3fmt9Arguments3new17h91061bfc1da51d77E, symObjAddr: 0xC2C, symBinAddr: 0x4708C, symSize: 0x1C }
  - { offset: 0x170E4B, size: 0x8, addend: 0x0, symName: __ZN4core3fmt9Arguments3new17h986d8463adb0c1ddE, symObjAddr: 0xC48, symBinAddr: 0x470A8, symSize: 0x1C }
  - { offset: 0x170E97, size: 0x8, addend: 0x0, symName: __ZN4core3fmt9Arguments3new17h9a89b2b2f53057baE, symObjAddr: 0xC64, symBinAddr: 0x470C4, symSize: 0x1C }
  - { offset: 0x170EE3, size: 0x8, addend: 0x0, symName: __ZN4core3fmt9Arguments3new17ha66f58a56d32b825E, symObjAddr: 0xC80, symBinAddr: 0x470E0, symSize: 0x1C }
  - { offset: 0x170F49, size: 0x8, addend: 0x0, symName: __ZN4core3fmt9Arguments3new17hb7ff905249c8e20cE, symObjAddr: 0xCB8, symBinAddr: 0x470FC, symSize: 0x1C }
  - { offset: 0x170F95, size: 0x8, addend: 0x0, symName: __ZN4core3fmt9Arguments3new17hc98cb3501ace3729E, symObjAddr: 0xCD4, symBinAddr: 0x47118, symSize: 0x1C }
  - { offset: 0x170FE1, size: 0x8, addend: 0x0, symName: __ZN4core3fmt9Arguments3new17hd454b5e45c456d6dE, symObjAddr: 0xCF0, symBinAddr: 0x47134, symSize: 0x1C }
  - { offset: 0x171047, size: 0x8, addend: 0x0, symName: __ZN4core3fmt9Arguments3new17he10142009dd82d30E, symObjAddr: 0xD28, symBinAddr: 0x47150, symSize: 0x1C }
  - { offset: 0x171093, size: 0x8, addend: 0x0, symName: __ZN4core3fmt9Arguments3new17hf3c58a22877309dbE, symObjAddr: 0xD60, symBinAddr: 0x4716C, symSize: 0x1C }
  - { offset: 0x1710D2, size: 0x8, addend: 0x0, symName: __ZN4core3fmt9Arguments8from_str17h37a3e24f70d16c3dE, symObjAddr: 0xD98, symBinAddr: 0x47188, symSize: 0x20 }
  - { offset: 0x1710F5, size: 0x8, addend: 0x0, symName: __ZN4core3fmt9Formatter9write_fmt17h86b2cb144ec3f4a7E, symObjAddr: 0xDB8, symBinAddr: 0x471A8, symSize: 0xA4 }
  - { offset: 0x171312, size: 0x8, addend: 0x0, symName: '__ZN4core6option15Option$LT$T$GT$11map_or_else17h03c6c23c88805df9E', symObjAddr: 0x1860, symBinAddr: 0x4730C, symSize: 0xC4 }
  - { offset: 0x1713D5, size: 0x8, addend: 0x0, symName: '__ZN4core6option15Option$LT$T$GT$11map_or_else17h23c44c1a44cd4955E', symObjAddr: 0x1924, symBinAddr: 0x473D0, symSize: 0xC8 }
  - { offset: 0x171496, size: 0x8, addend: 0x0, symName: '__ZN4core6option15Option$LT$T$GT$11map_or_else17hf300e023c0a3ec80E', symObjAddr: 0x1DCC, symBinAddr: 0x47498, symSize: 0xC0 }
  - { offset: 0x171533, size: 0x8, addend: 0x0, symName: '__ZN4core6option15Option$LT$T$GT$14unwrap_or_else17h72c1f443f170ab43E', symObjAddr: 0x1E8C, symBinAddr: 0x47558, symSize: 0x6C }
  - { offset: 0x171578, size: 0x8, addend: 0x0, symName: '__ZN4core6option15Option$LT$T$GT$14unwrap_or_else17hd8d6432dd5a30ab8E', symObjAddr: 0x1EF8, symBinAddr: 0x475C4, symSize: 0x68 }
  - { offset: 0x1715BD, size: 0x8, addend: 0x0, symName: '__ZN4core6option15Option$LT$T$GT$16unwrap_unchecked17h037d4d9fafa83492E', symObjAddr: 0x1FB8, symBinAddr: 0x4762C, symSize: 0x4C }
  - { offset: 0x171618, size: 0x8, addend: 0x0, symName: '__ZN4core6option15Option$LT$T$GT$16unwrap_unchecked17h21399e51509380a8E', symObjAddr: 0x2064, symBinAddr: 0x47678, symSize: 0x5C }
  - { offset: 0x17165A, size: 0x8, addend: 0x0, symName: '__ZN4core6option15Option$LT$T$GT$16unwrap_unchecked17h50f6aa68f447a307E', symObjAddr: 0x20C0, symBinAddr: 0x476D4, symSize: 0x4C }
  - { offset: 0x17169B, size: 0x8, addend: 0x0, symName: '__ZN4core6option15Option$LT$T$GT$16unwrap_unchecked17h63770ceb022956c6E', symObjAddr: 0x210C, symBinAddr: 0x47720, symSize: 0x60 }
  - { offset: 0x1716DD, size: 0x8, addend: 0x0, symName: '__ZN4core6option15Option$LT$T$GT$16unwrap_unchecked17h6393b17973b77989E', symObjAddr: 0x216C, symBinAddr: 0x47780, symSize: 0x4C }
  - { offset: 0x17171E, size: 0x8, addend: 0x0, symName: '__ZN4core6option15Option$LT$T$GT$16unwrap_unchecked17hd07c32945564c940E', symObjAddr: 0x230C, symBinAddr: 0x477CC, symSize: 0x60 }
  - { offset: 0x171760, size: 0x8, addend: 0x0, symName: '__ZN4core6option15Option$LT$T$GT$16unwrap_unchecked17hf0cd21dd4ad68ab7E', symObjAddr: 0x236C, symBinAddr: 0x4782C, symSize: 0x5C }
  - { offset: 0x1717C0, size: 0x8, addend: 0x0, symName: '__ZN4core6option15Option$LT$T$GT$3map17h332a5c75ef3863ebE', symObjAddr: 0x241C, symBinAddr: 0x47888, symSize: 0x50 }
  - { offset: 0x171868, size: 0x8, addend: 0x0, symName: '__ZN4core6option15Option$LT$T$GT$3map17h5abc8657e8ccc127E', symObjAddr: 0x24BC, symBinAddr: 0x478D8, symSize: 0xA0 }
  - { offset: 0x1718D4, size: 0x8, addend: 0x0, symName: '__ZN4core6option15Option$LT$T$GT$3map17h6990d02188fc2618E', symObjAddr: 0x255C, symBinAddr: 0x47978, symSize: 0x84 }
  - { offset: 0x171958, size: 0x8, addend: 0x0, symName: '__ZN4core6option15Option$LT$T$GT$3map17h7e00d65d519827fcE', symObjAddr: 0x265C, symBinAddr: 0x479FC, symSize: 0x50 }
  - { offset: 0x1719C3, size: 0x8, addend: 0x0, symName: '__ZN4core6option15Option$LT$T$GT$3map17h903a209eccf3965dE', symObjAddr: 0x26AC, symBinAddr: 0x47A4C, symSize: 0x50 }
  - { offset: 0x171A46, size: 0x8, addend: 0x0, symName: '__ZN4core6option15Option$LT$T$GT$3map17hac04bf5085540b95E', symObjAddr: 0x26FC, symBinAddr: 0x47A9C, symSize: 0x7C }
  - { offset: 0x171AB1, size: 0x8, addend: 0x0, symName: '__ZN4core6option15Option$LT$T$GT$3map17hb535f304c37c334aE', symObjAddr: 0x2778, symBinAddr: 0x47B18, symSize: 0x5C }
  - { offset: 0x171B1C, size: 0x8, addend: 0x0, symName: '__ZN4core6option15Option$LT$T$GT$3map17he48da107f86e6359E', symObjAddr: 0x27D4, symBinAddr: 0x47B74, symSize: 0x78 }
  - { offset: 0x171BAC, size: 0x8, addend: 0x0, symName: '__ZN4core6option15Option$LT$T$GT$4take17h25b5a4c3c0b4da09E', symObjAddr: 0x2960, symBinAddr: 0x47BEC, symSize: 0x5C }
  - { offset: 0x171C03, size: 0x8, addend: 0x0, symName: '__ZN4core6option15Option$LT$T$GT$4take17h39d762637e110b40E', symObjAddr: 0x29BC, symBinAddr: 0x47C48, symSize: 0x5C }
  - { offset: 0x171C5A, size: 0x8, addend: 0x0, symName: '__ZN4core6option15Option$LT$T$GT$4take17h943a708f7caef8e8E', symObjAddr: 0x2A18, symBinAddr: 0x47CA4, symSize: 0x3C }
  - { offset: 0x171CB1, size: 0x8, addend: 0x0, symName: '__ZN4core6option15Option$LT$T$GT$4take17hbc320f667f1230f1E', symObjAddr: 0x2A54, symBinAddr: 0x47CE0, symSize: 0x38 }
  - { offset: 0x171D08, size: 0x8, addend: 0x0, symName: '__ZN4core6option15Option$LT$T$GT$4take17hea19d45139748049E', symObjAddr: 0x2AC8, symBinAddr: 0x47D18, symSize: 0x3C }
  - { offset: 0x171D6C, size: 0x8, addend: 0x0, symName: '__ZN4core6option15Option$LT$T$GT$6as_ref17h0e29f359a1612624E', symObjAddr: 0x2C04, symBinAddr: 0x47D54, symSize: 0x4C }
  - { offset: 0x171DD0, size: 0x8, addend: 0x0, symName: '__ZN4core6option15Option$LT$T$GT$6as_ref17h33b34df962e8682fE', symObjAddr: 0x2C9C, symBinAddr: 0x47DA0, symSize: 0x4C }
  - { offset: 0x171E27, size: 0x8, addend: 0x0, symName: '__ZN4core6option15Option$LT$T$GT$6as_ref17h37882ece79a4a057E', symObjAddr: 0x2CE8, symBinAddr: 0x47DEC, symSize: 0x4C }
  - { offset: 0x171E7E, size: 0x8, addend: 0x0, symName: '__ZN4core6option15Option$LT$T$GT$6as_ref17h481d9300b3f2dfc8E', symObjAddr: 0x2D34, symBinAddr: 0x47E38, symSize: 0x4C }
  - { offset: 0x171F09, size: 0x8, addend: 0x0, symName: '__ZN4core6option15Option$LT$T$GT$6as_ref17h75e61f1e16a7edbeE', symObjAddr: 0x2D80, symBinAddr: 0x47E84, symSize: 0x4C }
  - { offset: 0x171F87, size: 0x8, addend: 0x0, symName: '__ZN4core6option15Option$LT$T$GT$6as_ref17hd70e6efaf0db9abcE', symObjAddr: 0x2E64, symBinAddr: 0x47ED0, symSize: 0x4C }
  - { offset: 0x171FD1, size: 0x8, addend: 0x0, symName: '__ZN4core6option15Option$LT$T$GT$6expect17h12682a21d8c864bcE', symObjAddr: 0x2EB0, symBinAddr: 0x47F1C, symSize: 0x5C }
  - { offset: 0x17200C, size: 0x8, addend: 0x0, symName: '__ZN4core6option15Option$LT$T$GT$6expect17h3600affcdfe696e6E', symObjAddr: 0x2F0C, symBinAddr: 0x47F78, symSize: 0x60 }
  - { offset: 0x172060, size: 0x8, addend: 0x0, symName: '__ZN4core6option15Option$LT$T$GT$6map_or17h1fa318a89a11fcabE', symObjAddr: 0x2F6C, symBinAddr: 0x47FD8, symSize: 0x9C }
  - { offset: 0x172102, size: 0x8, addend: 0x0, symName: '__ZN4core6option15Option$LT$T$GT$6map_or17h8e7003ba7e54f002E', symObjAddr: 0x30B0, symBinAddr: 0x48074, symSize: 0x9C }
  - { offset: 0x17218C, size: 0x8, addend: 0x0, symName: '__ZN4core6option15Option$LT$T$GT$6map_or17hf055819a4183457bE', symObjAddr: 0x314C, symBinAddr: 0x48110, symSize: 0x9C }
  - { offset: 0x172234, size: 0x8, addend: 0x0, symName: '__ZN4core6option15Option$LT$T$GT$7is_none17h68347ff7748d9bb6E', symObjAddr: 0x3234, symBinAddr: 0x481AC, symSize: 0x28 }
  - { offset: 0x1722A7, size: 0x8, addend: 0x0, symName: '__ZN4core6option15Option$LT$T$GT$7is_none17h707e72ff2f81832fE', symObjAddr: 0x325C, symBinAddr: 0x481D4, symSize: 0x28 }
  - { offset: 0x1722FE, size: 0x8, addend: 0x0, symName: '__ZN4core6option15Option$LT$T$GT$7is_some17h75b3162758a27691E', symObjAddr: 0x32D4, symBinAddr: 0x481FC, symSize: 0x28 }
  - { offset: 0x172337, size: 0x8, addend: 0x0, symName: '__ZN4core6option15Option$LT$T$GT$7replace17hf7a2f7718e5c998eE', symObjAddr: 0x32FC, symBinAddr: 0x48224, symSize: 0x24 }
  - { offset: 0x1723B7, size: 0x8, addend: 0x0, symName: __ZN4pyo36marker6Python15assume_attached17h58cc1662ec5b8d06E, symObjAddr: 0x5AF4, symBinAddr: 0x486A0, symSize: 0x4 }
  - { offset: 0x1723CA, size: 0x8, addend: 0x0, symName: __ZN4pyo36marker6Python4None17ha2e4c454fec42da8E, symObjAddr: 0x5CD0, symBinAddr: 0x486A4, symSize: 0x28 }
  - { offset: 0x172406, size: 0x8, addend: 0x0, symName: __ZN4pyo36marker6Python6attach17h0f7c4927c0d712b1E, symObjAddr: 0x5E30, symBinAddr: 0x486CC, symSize: 0xE8 }
  - { offset: 0x172451, size: 0x8, addend: 0x0, symName: __ZN4pyo36marker6Python6attach17h67b045d7cb932a67E, symObjAddr: 0x5FF4, symBinAddr: 0x487B4, symSize: 0xF4 }
  - { offset: 0x17249D, size: 0x8, addend: 0x0, symName: __ZN4pyo36marker6Python6attach17h9166c9ec96316058E, symObjAddr: 0x60E8, symBinAddr: 0x488A8, symSize: 0xE8 }
  - { offset: 0x17250F, size: 0x8, addend: 0x0, symName: __ZN4pyo36marker6Python6detach17h69984007cde38d76E, symObjAddr: 0x62B8, symBinAddr: 0x48990, symSize: 0xB0 }
  - { offset: 0x17257D, size: 0x8, addend: 0x0, symName: __ZN4pyo36marker6Python6import17h0fa7494cee9ec1f8E, symObjAddr: 0x6368, symBinAddr: 0x48A40, symSize: 0x24 }
  - { offset: 0x1725C4, size: 0x8, addend: 0x0, symName: __ZN4pyo36marker6Python6import17h6792bd9001b3b7eaE, symObjAddr: 0x638C, symBinAddr: 0x48A64, symSize: 0x28 }
  - { offset: 0x17260B, size: 0x8, addend: 0x0, symName: __ZN4pyo36marker6Python8get_type17h5f331ad59f6ba404E, symObjAddr: 0x6400, symBinAddr: 0x48A8C, symSize: 0x1C }
  - { offset: 0x172643, size: 0x8, addend: 0x0, symName: __ZN4pyo36marker6Python8get_type17hb123261b4c034866E, symObjAddr: 0x641C, symBinAddr: 0x48AA8, symSize: 0x1C }
  - { offset: 0x1728A5, size: 0x8, addend: 0x0, symName: '__ZN78_$LT$$u21$$u20$as$u20$std..sys..thread_local..native..lazy..DestroyedState$GT$13register_dtor17hc3a435cfe6d965b1E', symObjAddr: 0x3EDC, symBinAddr: 0x49EC8, symSize: 0x10 }
  - { offset: 0x172C10, size: 0x8, addend: 0x0, symName: '__ZN102_$LT$core..iter..adapters..zip..Zip$LT$A$C$B$GT$$u20$as$u20$core..iter..traits..iterator..Iterator$GT$4next17hbc997159cbda2353E', symObjAddr: 0x28, symBinAddr: 0x48CA4, symSize: 0x24 }
  - { offset: 0x172C4E, size: 0x8, addend: 0x0, symName: '__ZN102_$LT$core..iter..adapters..zip..Zip$LT$A$C$B$GT$$u20$as$u20$core..iter..traits..iterator..Iterator$GT$4next17hd29b9b4b14112f5eE', symObjAddr: 0x4C, symBinAddr: 0x48CC8, symSize: 0x24 }
  - { offset: 0x172C8C, size: 0x8, addend: 0x0, symName: '__ZN102_$LT$core..iter..adapters..zip..Zip$LT$A$C$B$GT$$u20$as$u20$core..iter..traits..iterator..Iterator$GT$9size_hint17h117c4d25d98254d2E', symObjAddr: 0xB8, symBinAddr: 0x48CEC, symSize: 0x24 }
  - { offset: 0x172CCA, size: 0x8, addend: 0x0, symName: '__ZN102_$LT$core..iter..adapters..zip..Zip$LT$A$C$B$GT$$u20$as$u20$core..iter..traits..iterator..Iterator$GT$9size_hint17hc64ee1f04a401acfE', symObjAddr: 0xDC, symBinAddr: 0x48D10, symSize: 0x24 }
  - { offset: 0x172D0E, size: 0x8, addend: 0x0, symName: '__ZN111_$LT$core..iter..adapters..zip..Zip$LT$A$C$B$GT$$u20$as$u20$core..iter..adapters..zip..ZipImpl$LT$A$C$B$GT$$GT$3new17h2d10c0b6a71443c2E', symObjAddr: 0x618, symBinAddr: 0x48E70, symSize: 0xBC }
  - { offset: 0x172DA1, size: 0x8, addend: 0x0, symName: '__ZN111_$LT$core..iter..adapters..zip..Zip$LT$A$C$B$GT$$u20$as$u20$core..iter..adapters..zip..ZipImpl$LT$A$C$B$GT$$GT$4next17h87c7751a6862ba5fE', symObjAddr: 0x7F0, symBinAddr: 0x48F68, symSize: 0xB0 }
  - { offset: 0x172DF7, size: 0x8, addend: 0x0, symName: '__ZN111_$LT$core..iter..adapters..zip..Zip$LT$A$C$B$GT$$u20$as$u20$core..iter..adapters..zip..ZipImpl$LT$A$C$B$GT$$GT$9size_hint17h9dcb759db6d6ef97E', symObjAddr: 0xBB4, symBinAddr: 0x49224, symSize: 0x34 }
  - { offset: 0x172E3D, size: 0x8, addend: 0x0, symName: '__ZN111_$LT$core..iter..adapters..zip..Zip$LT$A$C$B$GT$$u20$as$u20$core..iter..adapters..zip..ZipImpl$LT$A$C$B$GT$$GT$3new17hfcb253d6b3bfc441E', symObjAddr: 0x7B4, symBinAddr: 0x48F2C, symSize: 0x3C }
  - { offset: 0x172E89, size: 0x8, addend: 0x0, symName: '__ZN111_$LT$core..iter..adapters..zip..Zip$LT$A$C$B$GT$$u20$as$u20$core..iter..adapters..zip..ZipImpl$LT$A$C$B$GT$$GT$4next17hbbcddff3a0d032d3E', symObjAddr: 0x8A0, symBinAddr: 0x49018, symSize: 0xE0 }
  - { offset: 0x172FEA, size: 0x8, addend: 0x0, symName: '__ZN111_$LT$core..iter..adapters..zip..Zip$LT$A$C$B$GT$$u20$as$u20$core..iter..adapters..zip..ZipImpl$LT$A$C$B$GT$$GT$9size_hint17h1de909e5adb84548E', symObjAddr: 0xA88, symBinAddr: 0x490F8, symSize: 0x12C }
  - { offset: 0x173370, size: 0x8, addend: 0x0, symName: __ZN4core4iter6traits8iterator8Iterator10filter_map17h2cf69f1bc88e4aa0E, symObjAddr: 0x2090, symBinAddr: 0x49850, symSize: 0x30 }
  - { offset: 0x1733DE, size: 0x8, addend: 0x0, symName: __ZN4core4iter6traits8iterator8Iterator10filter_map17h362cc4916354c6a3E, symObjAddr: 0x20C0, symBinAddr: 0x49880, symSize: 0x30 }
  - { offset: 0x17344C, size: 0x8, addend: 0x0, symName: __ZN4core4iter6traits8iterator8Iterator8find_map17h7ddabbf1a985e683E, symObjAddr: 0x21AC, symBinAddr: 0x498B0, symSize: 0x8C }
  - { offset: 0x1734D4, size: 0x8, addend: 0x0, symName: __ZN4core4iter6traits8iterator8Iterator8find_map17ha137e39b31654bb1E, symObjAddr: 0x2238, symBinAddr: 0x4993C, symSize: 0x8C }
  - { offset: 0x17355C, size: 0x8, addend: 0x0, symName: __ZN4core4iter6traits8iterator8Iterator8try_fold17h0ab60bc8544639d8E, symObjAddr: 0x22C4, symBinAddr: 0x499C8, symSize: 0x190 }
  - { offset: 0x173612, size: 0x8, addend: 0x0, symName: __ZN4core4iter6traits8iterator8Iterator8try_fold17h0d9484a1bac4c049E, symObjAddr: 0x2454, symBinAddr: 0x49B58, symSize: 0x190 }
  - { offset: 0x173BF4, size: 0x8, addend: 0x0, symName: __ZN4core3ptr10swap_chunk17h0ff74e77df7fc680E, symObjAddr: 0x1204, symBinAddr: 0x49424, symSize: 0x3C }
  - { offset: 0x173C2D, size: 0x8, addend: 0x0, symName: __ZN4core3ptr10swap_chunk17h17606776f3376913E, symObjAddr: 0x1240, symBinAddr: 0x49460, symSize: 0x3C }
  - { offset: 0x173C66, size: 0x8, addend: 0x0, symName: __ZN4core3ptr10swap_chunk17h7de0682733ac8221E, symObjAddr: 0x127C, symBinAddr: 0x4949C, symSize: 0x3C }
  - { offset: 0x173C9F, size: 0x8, addend: 0x0, symName: __ZN4core3ptr10swap_chunk17hd5a1d5d0dbe31070E, symObjAddr: 0x12B8, symBinAddr: 0x494D8, symSize: 0x3C }
  - { offset: 0x173D13, size: 0x8, addend: 0x0, symName: __ZN4core3ptr15write_unaligned17hd025026dcb613649E, symObjAddr: 0x142C, symBinAddr: 0x49514, symSize: 0x78 }
  - { offset: 0x173D9E, size: 0x8, addend: 0x0, symName: __ZN4core3ptr19copy_nonoverlapping18precondition_check17hb797fdbcbfe7fa7dE, symObjAddr: 0x14A4, symBinAddr: 0x4958C, symSize: 0x168 }
  - { offset: 0x173F58, size: 0x8, addend: 0x0, symName: __ZN4core3ptr25swap_nonoverlapping_bytes26swap_nonoverlapping_chunks17h3099c216ac973d86E, symObjAddr: 0x1A44, symBinAddr: 0x496F4, symSize: 0xC0 }
  - { offset: 0x1740DB, size: 0x8, addend: 0x0, symName: __ZN4core3ptr7replace18precondition_check17hf7db36d9571f9e69E, symObjAddr: 0x1C50, symBinAddr: 0x497B4, symSize: 0x9C }
  - { offset: 0x175719, size: 0x8, addend: 0x0, symName: __ZN4core3mem4drop17h3abefa17e5b550e9E, symObjAddr: 0xFBC, symBinAddr: 0x49364, symSize: 0x2C }
  - { offset: 0x17574C, size: 0x8, addend: 0x0, symName: __ZN4core3mem4drop17h8a9f892361f44cdcE, symObjAddr: 0x1014, symBinAddr: 0x49390, symSize: 0x2C }
  - { offset: 0x1757B2, size: 0x8, addend: 0x0, symName: __ZN4core3mem4take17h3755beba2233d134E, symObjAddr: 0x1094, symBinAddr: 0x493BC, symSize: 0x54 }
  - { offset: 0x17580F, size: 0x8, addend: 0x0, symName: __ZN4core3mem6forget17h768883489ea492ffE, symObjAddr: 0x11A4, symBinAddr: 0x49410, symSize: 0x14 }
  - { offset: 0x175C0F, size: 0x8, addend: 0x0, symName: '__ZN47_$LT$$LP$$RP$$u20$as$u20$core..unit..IsUnit$GT$7is_unit17h802569f3fa293ff9E', symObjAddr: 0xFB0, symBinAddr: 0x49358, symSize: 0xC }
  - { offset: 0x176181, size: 0x8, addend: 0x0, symName: __ZN4pyo35impl_10trampoline33panic_result_into_callback_output17hd57e9ddb7526e9e9E, symObjAddr: 0x37EC, symBinAddr: 0x49CE8, symSize: 0x114 }
  - { offset: 0x17701A, size: 0x8, addend: 0x0, symName: '__ZN103_$LT$alloc..vec..into_iter..IntoIter$LT$T$C$A$GT$$u20$as$u20$core..iter..traits..iterator..Iterator$GT$4next17h65d0facc9bbd6f8bE', symObjAddr: 0x100, symBinAddr: 0x48D34, symSize: 0x88 }
  - { offset: 0x177174, size: 0x8, addend: 0x0, symName: '__ZN103_$LT$alloc..vec..into_iter..IntoIter$LT$T$C$A$GT$$u20$as$u20$core..iter..traits..iterator..Iterator$GT$9size_hint17h791f56f5de9707e3E', symObjAddr: 0x2C4, symBinAddr: 0x48DBC, symSize: 0xB4 }
  - { offset: 0x17729D, size: 0x8, addend: 0x0, symName: '__ZN157_$LT$$LT$alloc..vec..into_iter..IntoIter$LT$T$C$A$GT$$u20$as$u20$core..ops..drop..Drop$GT$..drop..DropGuard$LT$T$C$A$GT$$u20$as$u20$core..ops..drop..Drop$GT$4drop17hedf5756616270cb5E', symObjAddr: 0xCC0, symBinAddr: 0x49258, symSize: 0x6C }
  - { offset: 0x177409, size: 0x8, addend: 0x0, symName: '__ZN86_$LT$alloc..vec..into_iter..IntoIter$LT$T$C$A$GT$$u20$as$u20$core..ops..drop..Drop$GT$4drop17ha5a29e5bb4750c93E', symObjAddr: 0x43A0, symBinAddr: 0x49ED8, symSize: 0x64 }
  - { offset: 0x17787A, size: 0x8, addend: 0x0, symName: '__ZN3std3sys12thread_local6native4lazy20Storage$LT$T$C$D$GT$11get_or_init17h38c35b0331793732E', symObjAddr: 0xD2C, symBinAddr: 0x492C4, symSize: 0x94 }
  - { offset: 0x177AA6, size: 0x8, addend: 0x0, symName: '__ZN3std3sys12thread_local6native4lazy20Storage$LT$T$C$D$GT$16get_or_init_slow17he392efc0de7ead18E', symObjAddr: 0xDC0, symBinAddr: 0x83C00, symSize: 0x1D8 }
  - { offset: 0x177FE5, size: 0x8, addend: 0x0, symName: '__ZN5alloc3vec9into_iter21IntoIter$LT$T$C$A$GT$16as_raw_mut_slice17h767b5ad0f3c7f159E', symObjAddr: 0x3CC0, symBinAddr: 0x49DFC, symSize: 0xCC }
  - { offset: 0x178622, size: 0x8, addend: 0x0, symName: '__ZN103_$LT$pyo3..instance..Bound$LT$pyo3..types..any..PyAny$GT$$u20$as$u20$pyo3..types..any..PyAnyMethods$GT$7getattr5inner17haa68368f60324276E', symObjAddr: 0xC90, symBinAddr: 0x49F6C, symSize: 0x6C }
  - { offset: 0x178665, size: 0x8, addend: 0x0, symName: '__ZN103_$LT$pyo3..instance..Bound$LT$pyo3..types..any..PyAny$GT$$u20$as$u20$pyo3..types..any..PyAnyMethods$GT$7setattr5inner17ha2ec7ff5624faf01E', symObjAddr: 0xE64, symBinAddr: 0x49FD8, symSize: 0x7C }
  - { offset: 0x1786B7, size: 0x8, addend: 0x0, symName: '__ZN103_$LT$pyo3..instance..Bound$LT$pyo3..types..any..PyAny$GT$$u20$as$u20$pyo3..types..any..PyAnyMethods$GT$8set_item5inner17ha6ad69474b7f0aa7E', symObjAddr: 0x1098, symBinAddr: 0x4A054, symSize: 0x7C }
  - { offset: 0x178841, size: 0x8, addend: 0x0, symName: __ZN4pyo35types5tuple16array_into_tuple17h18b79b824d481bbcE, symObjAddr: 0x4560, symBinAddr: 0x4ACDC, symSize: 0x200 }
  - { offset: 0x17895A, size: 0x8, addend: 0x0, symName: '__ZN4pyo35types5tuple74_$LT$impl$u20$pyo3..conversion..IntoPyObject$u20$for$u20$$LP$T0$C$$RP$$GT$13into_pyobject17h511b4afda4afdbf5E', symObjAddr: 0x66F0, symBinAddr: 0x4AFCC, symSize: 0xCC }
  - { offset: 0x1789D4, size: 0x8, addend: 0x0, symName: '__ZN77_$LT$pyo3..types..tuple..PyTuple$u20$as$u20$pyo3..type_object..PyTypeInfo$GT$10is_type_of17hb450fcf2bd699854E', symObjAddr: 0x7CB0, symBinAddr: 0x4BC2C, symSize: 0x30 }
  - { offset: 0x178A00, size: 0x8, addend: 0x0, symName: '__ZN77_$LT$pyo3..types..tuple..PyTuple$u20$as$u20$pyo3..type_object..PyTypeInfo$GT$15type_object_raw17hb3d8fa5c0d143db6E', symObjAddr: 0x7CE0, symBinAddr: 0x4BC5C, symSize: 0x24 }
  - { offset: 0x178A3C, size: 0x8, addend: 0x0, symName: '__ZN77_$LT$pyo3..types..tuple..PyTuple$u20$as$u20$pyo3..type_object..PyTypeInfo$GT$15type_object_raw28_$u7b$$u7b$closure$u7d$$u7d$17h3fe9b074a5db8f9fE', symObjAddr: 0x7D04, symBinAddr: 0x4BC80, symSize: 0x18 }
  - { offset: 0x178A8B, size: 0x8, addend: 0x0, symName: '__ZN97_$LT$pyo3..types..tuple..BoundTupleIterator$u20$as$u20$core..iter..traits..iterator..Iterator$GT$4next17h019f1a6b7dfd8d2dE', symObjAddr: 0x838C, symBinAddr: 0x4C12C, symSize: 0xD0 }
  - { offset: 0x178ADB, size: 0x8, addend: 0x0, symName: '__ZN4pyo35types10boolobject65_$LT$impl$u20$pyo3..conversion..FromPyObject$u20$for$u20$bool$GT$7extract17h9f8d5f5f9edf41b0E', symObjAddr: 0x3F40, symBinAddr: 0x4A718, symSize: 0x3D4 }
  - { offset: 0x178BE0, size: 0x8, addend: 0x0, symName: '__ZN4pyo35types10boolobject65_$LT$impl$u20$pyo3..conversion..FromPyObject$u20$for$u20$bool$GT$7extract28_$u7b$$u7b$closure$u7d$$u7d$17h01e5b36cae220542E', symObjAddr: 0x4314, symBinAddr: 0x4AAEC, symSize: 0x6C }
  - { offset: 0x178C16, size: 0x8, addend: 0x0, symName: '__ZN4pyo35types10boolobject65_$LT$impl$u20$pyo3..conversion..FromPyObject$u20$for$u20$bool$GT$7extract28_$u7b$$u7b$closure$u7d$$u7d$17h3b421642a4bd4bd5E', symObjAddr: 0x4380, symBinAddr: 0x4AB58, symSize: 0xD8 }
  - { offset: 0x178C9C, size: 0x8, addend: 0x0, symName: '__ZN4pyo35types10boolobject65_$LT$impl$u20$pyo3..conversion..FromPyObject$u20$for$u20$bool$GT$7extract28_$u7b$$u7b$closure$u7d$$u7d$17hfc513e981a95d1e1E', symObjAddr: 0x4458, symBinAddr: 0x4AC30, symSize: 0xAC }
  - { offset: 0x178CEE, size: 0x8, addend: 0x0, symName: '__ZN81_$LT$pyo3..types..boolobject..PyBool$u20$as$u20$pyo3..type_object..PyTypeInfo$GT$10is_type_of17h4eb098d2d467f595E', symObjAddr: 0x7E3C, symBinAddr: 0x4BD50, symSize: 0x30 }
  - { offset: 0x178D1A, size: 0x8, addend: 0x0, symName: '__ZN81_$LT$pyo3..types..boolobject..PyBool$u20$as$u20$pyo3..type_object..PyTypeInfo$GT$15type_object_raw17ha495b963e0362feeE', symObjAddr: 0x7E6C, symBinAddr: 0x4BD80, symSize: 0x24 }
  - { offset: 0x178D56, size: 0x8, addend: 0x0, symName: '__ZN81_$LT$pyo3..types..boolobject..PyBool$u20$as$u20$pyo3..type_object..PyTypeInfo$GT$15type_object_raw28_$u7b$$u7b$closure$u7d$$u7d$17hdf44bb76c5748044E', symObjAddr: 0x7E90, symBinAddr: 0x4BDA4, symSize: 0x18 }
  - { offset: 0x178DC0, size: 0x8, addend: 0x0, symName: '__ZN73_$LT$pyo3..types..num..PyInt$u20$as$u20$pyo3..type_object..PyTypeInfo$GT$10is_type_of17ha807b08ae8d3a600E', symObjAddr: 0x7BCC, symBinAddr: 0x4BB48, symSize: 0x30 }
  - { offset: 0x178DEC, size: 0x8, addend: 0x0, symName: '__ZN73_$LT$pyo3..types..num..PyInt$u20$as$u20$pyo3..type_object..PyTypeInfo$GT$15type_object_raw17ha4dec1068b35ccb6E', symObjAddr: 0x7BFC, symBinAddr: 0x4BB78, symSize: 0x24 }
  - { offset: 0x178E28, size: 0x8, addend: 0x0, symName: '__ZN73_$LT$pyo3..types..num..PyInt$u20$as$u20$pyo3..type_object..PyTypeInfo$GT$15type_object_raw28_$u7b$$u7b$closure$u7d$$u7d$17h579c7e6160b04ef1E', symObjAddr: 0x7C20, symBinAddr: 0x4BB9C, symSize: 0x18 }
  - { offset: 0x178EC0, size: 0x8, addend: 0x0, symName: __ZN4pyo35panic14PanicException15type_object_raw11TYPE_OBJECT17hc572088f82ec2487E, symObjAddr: 0x40518, symBinAddr: 0xD1748, symSize: 0x0 }
  - { offset: 0x178ECD, size: 0x8, addend: 0x0, symName: '__ZN4pyo35panic14PanicException15type_object_raw28_$u7b$$u7b$closure$u7d$$u7d$17h63260c0d53dd6bdaE', symObjAddr: 0x3CC0, symBinAddr: 0x4A5DC, symSize: 0xE0 }
  - { offset: 0x178F99, size: 0x8, addend: 0x0, symName: '__ZN77_$LT$pyo3..panic..PanicException$u20$as$u20$pyo3..type_object..PyTypeInfo$GT$15type_object_raw17h7c4346dfb67c73b2E', symObjAddr: 0x7C94, symBinAddr: 0x4BC10, symSize: 0x1C }
  - { offset: 0x179023, size: 0x8, addend: 0x0, symName: '__ZN4pyo38internal5state12ATTACH_COUNT29_$u7b$$u7b$constant$u7d$$u7d$28_$u7b$$u7b$closure$u7d$$u7d$23__RUST_STD_INTERNAL_VAL17h5762f683ed6b1520E', symObjAddr: 0xA19C, symBinAddr: 0xD15A8, symSize: 0x0 }
  - { offset: 0x179032, size: 0x8, addend: 0x0, symName: '__ZN4pyo38internal5state12ATTACH_COUNT29_$u7b$$u7b$constant$u7d$$u7d$28_$u7b$$u7b$closure$u7d$$u7d$17hdbfa61a7a774f596E', symObjAddr: 0x702C, symBinAddr: 0x4B290, symSize: 0x30 }
  - { offset: 0x17907A, size: 0x8, addend: 0x0, symName: __ZN4pyo38internal5state4POOL17hee7c5b320a3bc4bbE, symObjAddr: 0xA1D0, symBinAddr: 0xD0B80, symSize: 0x0 }
  - { offset: 0x1791A9, size: 0x8, addend: 0x0, symName: '__ZN4pyo38internal5state11AttachGuard10try_attach28_$u7b$$u7b$closure$u7d$$u7d$17ha89c579f2d24b233E', symObjAddr: 0x6E80, symBinAddr: 0x4B174, symSize: 0x24 }
  - { offset: 0x179230, size: 0x8, addend: 0x0, symName: '__ZN4pyo38internal5state13SuspendAttach3new28_$u7b$$u7b$closure$u7d$$u7d$17h29f09c4c4a06cbfbE', symObjAddr: 0x7630, symBinAddr: 0x4B894, symSize: 0x28 }
  - { offset: 0x1792BD, size: 0x8, addend: 0x0, symName: __ZN4pyo38internal5state15register_decref17h378fdead450dbdf2E, symObjAddr: 0x7728, symBinAddr: 0x4B8BC, symSize: 0x2C }
  - { offset: 0x1792EC, size: 0x8, addend: 0x0, symName: '__ZN4pyo38internal5state18thread_is_attached28_$u7b$$u7b$closure$u7d$$u7d$17h8b76943a13278688E', symObjAddr: 0x77A8, symBinAddr: 0x4B8E8, symSize: 0x2C }
  - { offset: 0x17932F, size: 0x8, addend: 0x0, symName: '__ZN4pyo38internal5state22decrement_attach_count28_$u7b$$u7b$closure$u7d$$u7d$17h1168b829e8554ae0E', symObjAddr: 0x77D4, symBinAddr: 0x4B914, symSize: 0x8C }
  - { offset: 0x179387, size: 0x8, addend: 0x0, symName: '__ZN4pyo38internal5state22increment_attach_count28_$u7b$$u7b$closure$u7d$$u7d$17hcff172d0039f9e32E', symObjAddr: 0x7860, symBinAddr: 0x4B9A0, symSize: 0x74 }
  - { offset: 0x1793DA, size: 0x8, addend: 0x0, symName: __ZN4pyo38internal5state24drop_deferred_references17h1025160aac2c01a4E, symObjAddr: 0x78D4, symBinAddr: 0x4BA14, symSize: 0x4C }
  - { offset: 0x17942B, size: 0x8, addend: 0x0, symName: __ZN4pyo38internal5state8get_pool17haa62292a9ae3cbc7E, symObjAddr: 0x7920, symBinAddr: 0x4BA60, symSize: 0x1C }
  - { offset: 0x17945B, size: 0x8, addend: 0x0, symName: '__ZN76_$LT$pyo3..internal..state..AttachGuard$u20$as$u20$core..ops..drop..Drop$GT$4drop17h78c4ebcf08146bb8E', symObjAddr: 0x7C38, symBinAddr: 0x4BBB4, symSize: 0x5C }
  - { offset: 0x1794BA, size: 0x8, addend: 0x0, symName: '__ZN78_$LT$pyo3..internal..state..SuspendAttach$u20$as$u20$core..ops..drop..Drop$GT$4drop17h3ff79e7f5c505f1fE', symObjAddr: 0x7D1C, symBinAddr: 0x4BC98, symSize: 0x80 }
  - { offset: 0x179505, size: 0x8, addend: 0x0, symName: '__ZN78_$LT$pyo3..internal..state..SuspendAttach$u20$as$u20$core..ops..drop..Drop$GT$4drop28_$u7b$$u7b$closure$u7d$$u7d$17h6aecc0ceb2e2e8ceE', symObjAddr: 0x7D9C, symBinAddr: 0x4BD18, symSize: 0x38 }
  - { offset: 0x179587, size: 0x8, addend: 0x0, symName: __ZN4pyo310conversion15IntoPyObjectExt17into_bound_py_any17h60a541ad55df185fE, symObjAddr: 0x21BC, symBinAddr: 0x4A450, symSize: 0x54 }
  - { offset: 0x1795F2, size: 0x8, addend: 0x0, symName: __ZN4pyo310conversion15IntoPyObjectExt22into_pyobject_or_pyerr17h8d277d2fc650335bE, symObjAddr: 0x238C, symBinAddr: 0x4A4A4, symSize: 0x4C }
  - { offset: 0x179669, size: 0x8, addend: 0x0, symName: __ZN4pyo311type_object10PyTypeInfo11type_object17h03c2924f337c64d3E, symObjAddr: 0x3428, symBinAddr: 0x4A4F0, symSize: 0x30 }
  - { offset: 0x1796A9, size: 0x8, addend: 0x0, symName: __ZN4pyo311type_object10PyTypeInfo11type_object17h5e4202f8f67ea999E, symObjAddr: 0x3488, symBinAddr: 0x4A520, symSize: 0x30 }
  - { offset: 0x1796E9, size: 0x8, addend: 0x0, symName: __ZN4pyo311type_object10PyTypeInfo11type_object17h8a30476d5989ef42E, symObjAddr: 0x34E8, symBinAddr: 0x4A550, symSize: 0x30 }
  - { offset: 0x179729, size: 0x8, addend: 0x0, symName: __ZN4pyo311type_object10PyTypeInfo11type_object17hd61bafdaea037147E, symObjAddr: 0x3518, symBinAddr: 0x4A580, symSize: 0x30 }
  - { offset: 0x17976F, size: 0x8, addend: 0x0, symName: '__ZN52_$LT$T$u20$as$u20$pyo3..type_object..PyTypeCheck$GT$10type_check17h182c69d98a8f45e9E', symObjAddr: 0x795C, symBinAddr: 0x4BA7C, symSize: 0x24 }
  - { offset: 0x1797A4, size: 0x8, addend: 0x0, symName: '__ZN52_$LT$T$u20$as$u20$pyo3..type_object..PyTypeCheck$GT$10type_check17h1d4c58fad7b87f22E', symObjAddr: 0x7980, symBinAddr: 0x4BAA0, symSize: 0x24 }
  - { offset: 0x1797D9, size: 0x8, addend: 0x0, symName: '__ZN52_$LT$T$u20$as$u20$pyo3..type_object..PyTypeCheck$GT$10type_check17h8f214e277fef50bcE', symObjAddr: 0x79C8, symBinAddr: 0x4BAC4, symSize: 0x24 }
  - { offset: 0x17980E, size: 0x8, addend: 0x0, symName: '__ZN52_$LT$T$u20$as$u20$pyo3..type_object..PyTypeCheck$GT$16classinfo_object17h0e217e8436b61a88E', symObjAddr: 0x7A10, symBinAddr: 0x4BAE8, symSize: 0x20 }
  - { offset: 0x17984E, size: 0x8, addend: 0x0, symName: '__ZN52_$LT$T$u20$as$u20$pyo3..type_object..PyTypeCheck$GT$16classinfo_object17hcd75e4380f264e36E', symObjAddr: 0x7A90, symBinAddr: 0x4BB08, symSize: 0x20 }
  - { offset: 0x17988E, size: 0x8, addend: 0x0, symName: '__ZN52_$LT$T$u20$as$u20$pyo3..type_object..PyTypeCheck$GT$16classinfo_object17he1e303d212390640E', symObjAddr: 0x7AB0, symBinAddr: 0x4BB28, symSize: 0x20 }
  - { offset: 0x17AF39, size: 0x8, addend: 0x0, symName: __ZN4core3ptr9alignment9Alignment13new_unchecked18precondition_check17hd595d291b881ba8dE, symObjAddr: 0x16C8, symBinAddr: 0x4A180, symSize: 0x70 }
  - { offset: 0x17B71E, size: 0x8, addend: 0x0, symName: '__ZN4core3cmp5impls54_$LT$impl$u20$core..cmp..PartialEq$u20$for$u20$i32$GT$2ne17hf7fc4f0717bcdc8cE', symObjAddr: 0x1450, symBinAddr: 0x4A0D0, symSize: 0x2C }
  - { offset: 0x17B761, size: 0x8, addend: 0x0, symName: '__ZN4core3cmp5impls54_$LT$impl$u20$core..cmp..PartialEq$u20$for$u20$i64$GT$2ne17he7008e1ba9f4f35bE', symObjAddr: 0x14A8, symBinAddr: 0x4A0FC, symSize: 0x2C }
  - { offset: 0x17B7A4, size: 0x8, addend: 0x0, symName: '__ZN4core3cmp5impls54_$LT$impl$u20$core..cmp..PartialEq$u20$for$u20$u64$GT$2eq17hee9bcaafbc6fd3f5E', symObjAddr: 0x14D4, symBinAddr: 0x4A128, symSize: 0x2C }
  - { offset: 0x17B7E7, size: 0x8, addend: 0x0, symName: '__ZN4core3cmp5impls56_$LT$impl$u20$core..cmp..PartialEq$u20$for$u20$isize$GT$2ne17h76eba98607ef9ec3E', symObjAddr: 0x153C, symBinAddr: 0x4A154, symSize: 0x2C }
  - { offset: 0x17B8F8, size: 0x8, addend: 0x0, symName: '__ZN100_$LT$core..array..iter..iter_inner..PolymorphicIter$LT$DATA$GT$$u20$as$u20$core..ops..drop..Drop$GT$4drop17hd600d1664d67718aE', symObjAddr: 0x60, symBinAddr: 0x49F3C, symSize: 0x30 }
  - { offset: 0x17C1C8, size: 0x8, addend: 0x0, symName: __ZN4core4iter6traits8iterator8Iterator9enumerate17hd720ea2a8c2c30afE, symObjAddr: 0x181C, symBinAddr: 0x4A1F0, symSize: 0x18 }
  - { offset: 0x17C1F9, size: 0x8, addend: 0x0, symName: __ZN4core4iter6traits8iterator8Iterator9enumerate17hd720ea2a8c2c30afE, symObjAddr: 0x181C, symBinAddr: 0x4A1F0, symSize: 0x18 }
  - { offset: 0x17C350, size: 0x8, addend: 0x0, symName: __ZN4core9ub_checks23maybe_is_nonoverlapping7runtime17hd7308e71f2132995E, symObjAddr: 0x2098, symBinAddr: 0x4A378, symSize: 0xD8 }
  - { offset: 0x17CC0E, size: 0x8, addend: 0x0, symName: __ZN8pyo3_ffi7cpython10listobject15PyList_GET_ITEM17h459f8ca4a225f860E, symObjAddr: 0x7F14, symBinAddr: 0x4BDBC, symSize: 0x104 }
  - { offset: 0x17CC6D, size: 0x8, addend: 0x0, symName: __ZN8pyo3_ffi7cpython10listobject15PyList_GET_SIZE17h874ff0e273a144e4E, symObjAddr: 0x8018, symBinAddr: 0x4BEC0, symSize: 0x24 }
  - { offset: 0x17CC9F, size: 0x8, addend: 0x0, symName: __ZN8pyo3_ffi7cpython11tupleobject16PyTuple_GET_ITEM17h98a3f243b82ebd5eE, symObjAddr: 0x803C, symBinAddr: 0x4BEE4, symSize: 0x10C }
  - { offset: 0x17CCFE, size: 0x8, addend: 0x0, symName: __ZN8pyo3_ffi7cpython11tupleobject16PyTuple_GET_SIZE17hd12f64763d18b1e1E, symObjAddr: 0x8148, symBinAddr: 0x4BFF0, symSize: 0x24 }
  - { offset: 0x17CD2A, size: 0x8, addend: 0x0, symName: __ZN8pyo3_ffi7cpython11tupleobject16PyTuple_SET_ITEM17h613acdaeb024dd73E, symObjAddr: 0x816C, symBinAddr: 0x4C014, symSize: 0x118 }
  - { offset: 0x17D98D, size: 0x8, addend: 0x0, symName: '__ZN4core5array4iter10iter_inner78PolymorphicIter$LT$$u5b$core..mem..maybe_uninit..MaybeUninit$LT$T$GT$$u5d$$GT$4next17hb515146d76385c23E', symObjAddr: 0x1B20, symBinAddr: 0x4A208, symSize: 0x170 }
  - { offset: 0x17DBF5, size: 0x8, addend: 0x0, symName: __ZN4pyo35panic14PanicException15type_object_raw17h2bbfeb962957ff8dE, symObjAddr: 0x3C94, symBinAddr: 0x4A5B0, symSize: 0x2C }
  - { offset: 0x17DC50, size: 0x8, addend: 0x0, symName: __ZN4pyo35panic14PanicException18from_panic_payload17h6dc3bc08baa65889E, symObjAddr: 0x3DA0, symBinAddr: 0x83DD8, symSize: 0x144 }
  - { offset: 0x17DCAF, size: 0x8, addend: 0x0, symName: __ZN4pyo35panic14PanicException7new_err17h01b63a587e5511a3E, symObjAddr: 0x3EE4, symBinAddr: 0x4A6BC, symSize: 0x34 }
  - { offset: 0x17DCEE, size: 0x8, addend: 0x0, symName: __ZN4pyo35panic14PanicException7new_err17h302bf7e5df6aa9bcE, symObjAddr: 0x3F18, symBinAddr: 0x4A6F0, symSize: 0x28 }
  - { offset: 0x17DD19, size: 0x8, addend: 0x0, symName: __ZN4pyo35types5tuple18BoundTupleIterator3new17h3fa0e1ccc5d9c4f6E, symObjAddr: 0x5474, symBinAddr: 0x4AEDC, symSize: 0x78 }
  - { offset: 0x17DD67, size: 0x8, addend: 0x0, symName: __ZN4pyo35types5tuple21BorrowedTupleIterator3new17hff3041e2f9149ea2E, symObjAddr: 0x55B0, symBinAddr: 0x4AF54, symSize: 0x48 }
  - { offset: 0x17DDB5, size: 0x8, addend: 0x0, symName: __ZN4pyo35types5tuple21BorrowedTupleIterator8get_item17h518da940519ca246E, symObjAddr: 0x55F8, symBinAddr: 0x4AF9C, symSize: 0x30 }
  - { offset: 0x17DE63, size: 0x8, addend: 0x0, symName: __ZN4pyo38internal5state11AttachGuard10try_attach17hcd7745eb6bf3b43fE, symObjAddr: 0x6DA4, symBinAddr: 0x4B098, symSize: 0xDC }
  - { offset: 0x17DEA3, size: 0x8, addend: 0x0, symName: __ZN4pyo38internal5state11AttachGuard19do_attach_unchecked17hae47f339ec50027fE, symObjAddr: 0x6EF8, symBinAddr: 0x83F1C, symSize: 0x3C }
  - { offset: 0x17DEE8, size: 0x8, addend: 0x0, symName: __ZN4pyo38internal5state11AttachGuard6assume17h9cce5c924330afadE, symObjAddr: 0x6F34, symBinAddr: 0x4B198, symSize: 0x28 }
  - { offset: 0x17DF10, size: 0x8, addend: 0x0, symName: __ZN4pyo38internal5state11AttachGuard6attach17ha420598c4b2ec8dfE, symObjAddr: 0x6F5C, symBinAddr: 0x4B1C0, symSize: 0xB0 }
  - { offset: 0x17DF41, size: 0x8, addend: 0x0, symName: __ZN4pyo38internal5state11AttachGuard6python17h7bbece67cce3972eE, symObjAddr: 0x700C, symBinAddr: 0x4B270, symSize: 0x20 }
  - { offset: 0x17DFB3, size: 0x8, addend: 0x0, symName: __ZN4pyo38internal5state13ReferencePool15register_decref17h6c048ee1f3f554dfE, symObjAddr: 0x705C, symBinAddr: 0x4B2C0, symSize: 0x128 }
  - { offset: 0x17E038, size: 0x8, addend: 0x0, symName: __ZN4pyo38internal5state13ReferencePool24drop_deferred_references17hc5c8f741dc3b976cE, symObjAddr: 0x7184, symBinAddr: 0x4B3E8, symSize: 0x420 }
  - { offset: 0x17E158, size: 0x8, addend: 0x0, symName: __ZN4pyo38internal5state13ReferencePool3new17hf958e9ca6c4c3b00E, symObjAddr: 0x75A4, symBinAddr: 0x4B808, symSize: 0x4C }
  - { offset: 0x17E16B, size: 0x8, addend: 0x0, symName: __ZN4pyo38internal5state13SuspendAttach3new17h3a54ed9466ba3cfeE, symObjAddr: 0x75F0, symBinAddr: 0x4B854, symSize: 0x40 }
  - { offset: 0x17E19C, size: 0x8, addend: 0x0, symName: __ZN4pyo38internal5state15ForbidAttaching4bail17h7c5dfb5e8519475fE, symObjAddr: 0x76D8, symBinAddr: 0x83F58, symSize: 0x50 }
  - { offset: 0x17FF89, size: 0x8, addend: 0x0, symName: '__ZN185_$LT$core..ops..control_flow..ControlFlow$LT$B$C$C$GT$$u20$as$u20$core..ops..try_trait..FromResidual$LT$core..ops..control_flow..ControlFlow$LT$B$C$core..convert..Infallible$GT$$GT$$GT$13from_residual17h5f2f5f6c76eba009E', symObjAddr: 0x9EC, symBinAddr: 0x4C694, symSize: 0x18 }
  - { offset: 0x17FFCD, size: 0x8, addend: 0x0, symName: '__ZN95_$LT$core..ops..control_flow..ControlFlow$LT$B$C$C$GT$$u20$as$u20$core..ops..try_trait..Try$GT$11from_output17hb0b65e9a3f87a001E', symObjAddr: 0x3D94, symBinAddr: 0x4D120, symSize: 0x10 }
  - { offset: 0x18000B, size: 0x8, addend: 0x0, symName: '__ZN95_$LT$core..ops..control_flow..ControlFlow$LT$B$C$C$GT$$u20$as$u20$core..ops..try_trait..Try$GT$6branch17h30b29a1c8b984aa4E', symObjAddr: 0x3DA4, symBinAddr: 0x4D130, symSize: 0x54 }
  - { offset: 0x180201, size: 0x8, addend: 0x0, symName: '__ZN44_$LT$$RF$T$u20$as$u20$core..fmt..Display$GT$3fmt17h676b9609e9dda6efE', symObjAddr: 0xA18, symBinAddr: 0x4C6AC, symSize: 0x30 }
  - { offset: 0x1803B6, size: 0x8, addend: 0x0, symName: '__ZN4core4iter6traits8iterator8Iterator8find_map5check28_$u7b$$u7b$closure$u7d$$u7d$17hd43f99360dbfc6f5E', symObjAddr: 0xB18, symBinAddr: 0x4C6DC, symSize: 0x7C }
  - { offset: 0x180439, size: 0x8, addend: 0x0, symName: '__ZN4core4iter6traits8iterator8Iterator8find_map5check28_$u7b$$u7b$closure$u7d$$u7d$17hee6688721da4051aE', symObjAddr: 0xB94, symBinAddr: 0x4C758, symSize: 0x7C }
  - { offset: 0x180790, size: 0x8, addend: 0x0, symName: '__ZN50_$LT$T$u20$as$u20$core..convert..Into$LT$U$GT$$GT$4into17hd2616c5f2443e7ebE', symObjAddr: 0x1340, symBinAddr: 0x4C7D4, symSize: 0x14 }
  - { offset: 0x18102F, size: 0x8, addend: 0x0, symName: __ZN8pyo3_ffi10longobject12PyLong_Check17h0e5d712222a6b0eeE, symObjAddr: 0x3A84, symBinAddr: 0x4CFE0, symSize: 0x30 }
  - { offset: 0x181CAA, size: 0x8, addend: 0x0, symName: '__ZN5alloc3vec16Vec$LT$T$C$A$GT$7set_len18precondition_check17h061b363cb42866eeE', symObjAddr: 0x29E8, symBinAddr: 0x4CC58, symSize: 0x60 }
  - { offset: 0x181D09, size: 0x8, addend: 0x0, symName: '__ZN111_$LT$alloc..vec..Vec$LT$T$GT$$u20$as$u20$alloc..vec..spec_from_iter_nested..SpecFromIterNested$LT$T$C$I$GT$$GT$9from_iter17h19e21a4607b53696E', symObjAddr: 0x310, symBinAddr: 0x4C1FC, symSize: 0x24C }
  - { offset: 0x181F68, size: 0x8, addend: 0x0, symName: '__ZN111_$LT$alloc..vec..Vec$LT$T$GT$$u20$as$u20$alloc..vec..spec_from_iter_nested..SpecFromIterNested$LT$T$C$I$GT$$GT$9from_iter17hcb472dd5ef7a4012E', symObjAddr: 0x7A0, symBinAddr: 0x4C448, symSize: 0x24C }
  - { offset: 0x1825AB, size: 0x8, addend: 0x0, symName: '__ZN67_$LT$alloc..vec..Vec$LT$T$GT$$u20$as$u20$core..default..Default$GT$7default17h5825ae03ef11e685E', symObjAddr: 0x3388, symBinAddr: 0x4CEEC, symSize: 0x14 }
  - { offset: 0x1825CD, size: 0x8, addend: 0x0, symName: '__ZN67_$LT$alloc..vec..Vec$LT$T$GT$$u20$as$u20$core..default..Default$GT$7default17h5825ae03ef11e685E', symObjAddr: 0x3388, symBinAddr: 0x4CEEC, symSize: 0x14 }
  - { offset: 0x1825EE, size: 0x8, addend: 0x0, symName: '__ZN70_$LT$alloc..vec..Vec$LT$T$C$A$GT$$u20$as$u20$core..ops..drop..Drop$GT$4drop17h9092d023b201ea21E', symObjAddr: 0x348C, symBinAddr: 0x4CF00, symSize: 0x24 }
  - { offset: 0x18269E, size: 0x8, addend: 0x0, symName: '__ZN70_$LT$alloc..vec..Vec$LT$T$C$A$GT$$u20$as$u20$core..ops..drop..Drop$GT$4drop17had1556b85fdd102bE', symObjAddr: 0x3530, symBinAddr: 0x4CF24, symSize: 0x24 }
  - { offset: 0x182754, size: 0x8, addend: 0x0, symName: '__ZN72_$LT$alloc..vec..Vec$LT$T$C$A$GT$$u20$as$u20$core..ops..deref..Deref$GT$5deref17h9ec1c6d788cbc86aE', symObjAddr: 0x3694, symBinAddr: 0x4CFC0, symSize: 0x20 }
  - { offset: 0x182817, size: 0x8, addend: 0x0, symName: '__ZN90_$LT$alloc..vec..Vec$LT$T$C$A$GT$$u20$as$u20$core..iter..traits..collect..IntoIterator$GT$9into_iter17h10e33a7cc5f0d370E', symObjAddr: 0x3AB4, symBinAddr: 0x4D010, symSize: 0xA8 }
  - { offset: 0x182A14, size: 0x8, addend: 0x0, symName: '__ZN95_$LT$alloc..vec..Vec$LT$T$GT$$u20$as$u20$core..iter..traits..collect..FromIterator$LT$T$GT$$GT$9from_iter17h9f7a4ea7f251e506E', symObjAddr: 0x3CB4, symBinAddr: 0x4D0B8, symSize: 0x34 }
  - { offset: 0x182A55, size: 0x8, addend: 0x0, symName: '__ZN95_$LT$alloc..vec..Vec$LT$T$GT$$u20$as$u20$core..iter..traits..collect..FromIterator$LT$T$GT$$GT$9from_iter17hbb89cbf52ab94b24E', symObjAddr: 0x3CE8, symBinAddr: 0x4D0EC, symSize: 0x34 }
  - { offset: 0x182AA1, size: 0x8, addend: 0x0, symName: '__ZN97_$LT$alloc..vec..Vec$LT$T$C$A$GT$$u20$as$u20$alloc..vec..spec_extend..SpecExtend$LT$T$C$I$GT$$GT$11spec_extend17h4cafacdf6ce668ebE', symObjAddr: 0x3F58, symBinAddr: 0x4D184, symSize: 0x24 }
  - { offset: 0x182AF3, size: 0x8, addend: 0x0, symName: '__ZN97_$LT$alloc..vec..Vec$LT$T$C$A$GT$$u20$as$u20$alloc..vec..spec_extend..SpecExtend$LT$T$C$I$GT$$GT$11spec_extend17hbe0a32ca828e994aE', symObjAddr: 0x3F7C, symBinAddr: 0x4D1A8, symSize: 0x24 }
  - { offset: 0x182B51, size: 0x8, addend: 0x0, symName: '__ZN98_$LT$alloc..vec..Vec$LT$T$GT$$u20$as$u20$alloc..vec..spec_from_iter..SpecFromIter$LT$T$C$I$GT$$GT$9from_iter17h417019d7152a3c9bE', symObjAddr: 0x3FA0, symBinAddr: 0x4D1CC, symSize: 0x14 }
  - { offset: 0x182B90, size: 0x8, addend: 0x0, symName: '__ZN98_$LT$alloc..vec..Vec$LT$T$GT$$u20$as$u20$alloc..vec..spec_from_iter..SpecFromIter$LT$T$C$I$GT$$GT$9from_iter17h47db08497a290b3fE', symObjAddr: 0x3FB4, symBinAddr: 0x4D1E0, symSize: 0x14 }
  - { offset: 0x182CDD, size: 0x8, addend: 0x0, symName: __ZN5alloc6borrow3Cow8Borrowed17h95ceb8e97f34f46fE, symObjAddr: 0x32AC, symBinAddr: 0x4CE3C, symSize: 0x2C }
  - { offset: 0x182D15, size: 0x8, addend: 0x0, symName: '__ZN66_$LT$alloc..borrow..Cow$LT$B$GT$$u20$as$u20$core..fmt..Display$GT$3fmt17h4143adb3aa00cbedE', symObjAddr: 0x32F0, symBinAddr: 0x4CE68, symSize: 0x84 }
  - { offset: 0x182DCD, size: 0x8, addend: 0x0, symName: '__ZN71_$LT$alloc..borrow..Cow$LT$B$GT$$u20$as$u20$core..ops..deref..Deref$GT$5deref17h80e1ded315da7d82E', symObjAddr: 0x35FC, symBinAddr: 0x4CF48, symSize: 0x78 }
  - { offset: 0x183421, size: 0x8, addend: 0x0, symName: '__ZN5alloc3vec12Vec$LT$T$GT$3new17h765b37b810cb1ce5E', symObjAddr: 0x13AC, symBinAddr: 0x4C7E8, symSize: 0x14 }
  - { offset: 0x183633, size: 0x8, addend: 0x0, symName: '__ZN5alloc3vec16Vec$LT$T$C$A$GT$16extend_desugared17h0803196d2a5fd6a8E', symObjAddr: 0x18A8, symBinAddr: 0x4C7FC, symSize: 0x1C4 }
  - { offset: 0x183A1D, size: 0x8, addend: 0x0, symName: '__ZN5alloc3vec16Vec$LT$T$C$A$GT$16extend_desugared17h541bb435ea6074b2E', symObjAddr: 0x1A6C, symBinAddr: 0x4C9C0, symSize: 0x1C4 }
  - { offset: 0x183CC6, size: 0x8, addend: 0x0, symName: '__ZN5alloc3vec16Vec$LT$T$C$A$GT$4push17h6e1172a09c0d8e1fE', symObjAddr: 0x2680, symBinAddr: 0x4CB84, symSize: 0x2C }
  - { offset: 0x183E2D, size: 0x8, addend: 0x0, symName: '__ZN5alloc3vec16Vec$LT$T$C$A$GT$7reserve17h18480144cee2a4ebE', symObjAddr: 0x27F0, symBinAddr: 0x4CBB0, symSize: 0xA8 }
  - { offset: 0x183FA0, size: 0x8, addend: 0x0, symName: '__ZN5alloc3vec16Vec$LT$T$C$A$GT$8is_empty17h6186d1770d3ad57bE', symObjAddr: 0x2A68, symBinAddr: 0x4CCB8, symSize: 0x20 }
  - { offset: 0x184025, size: 0x8, addend: 0x0, symName: '__ZN5alloc3vec16Vec$LT$T$C$A$GT$8is_empty17h67b3a2ba4ca34dd1E', symObjAddr: 0x2A88, symBinAddr: 0x4CCD8, symSize: 0x20 }
  - { offset: 0x18418C, size: 0x8, addend: 0x0, symName: '__ZN5alloc3vec16Vec$LT$T$C$A$GT$8push_mut17ha18efd534fe38f96E', symObjAddr: 0x2CD8, symBinAddr: 0x4CCF8, symSize: 0xD0 }
